Trying to open 'tiny.canary'..
Loading ELF information..
FileFormat: Elf, Arch: x64

Wait a few seconds, rp++ is looking for gadgets (2 threads max)..
A total of 30462 gadgets found.
You decided to keep only the unique ones, 7867 unique gadgets found.
0x44d991: aaa ; lea rax, qword [rdi] ; ret ; (1 found)
0x440954: aaa ; mov  [r9-0x04], ecx ; ret ; (1 found)
0x440943: aaa ; mov qword [r9-0x08], rcx ; ret ; (1 found)
0x4505ea: aaa ; mov qword [rdi+rdx-0x08], rcx ; ret ; (5 found)
0x440968: aaa ; mov word [r9-0x02], cx ; ret ; (1 found)
0x448eeb: aaa ; ret ; (5 found)
0x4b1cb3: aaa ; sti ; jmp qword [rsi+0x2E] ; (1 found)
0x4b1c9a: aaa ; sti ; jmp qword [rsi-0x70] ; (2 found)
0x4af577: aad 0x00 ; nop  [rax+0x00000000] ; call qword [rbx] ; (1 found)
0x4246c8: aad 0x0F ; lahf ; retn 0x3949 ; (1 found)
0x424760: aad 0x0F ; lahf ; retn 0x63E9 ; (1 found)
0x429ab4: aad 0x0F ; xchg eax, ebp ; retn 0x294C ; (1 found)
0x4297a6: aad 0x0F ; xchg eax, ebp ; retn 0xE083 ; (1 found)
0x41bc95: aad 0x0F ; xchg eax, esp ; retn 0xD008 ; (1 found)
0x41ac2b: aad 0x48 ; mov edi, ebx ; call qword [r14+0x38] ; (2 found)
0x40f1df: aad 0xFF ; dec  [rax-0x77] ; retn 0x8B48 ; (1 found)
0x4761da: aam 0x0F ; xchg eax, ebx ; retn 0xD008 ; (2 found)
0x468873: aam 0xF9 ; jmp qword [rsi+0x2E] ; (1 found)
0x490dc0: aas ; mov rdi, rbx ; call qword [rbp+0x20] ; (1 found)
0x455a8a: aas ; ret ; (9 found)
0x455f51: aas ; retn 0x6200 ; (6 found)
0x455a64: aas ; retn 0xC500 ; (10 found)
0x464783: adc  [0x00000000004F9C60], eax ; ret ; (1 found)
0x42cf9b: adc  [0x000000000F8ACFA2], ecx ; retn 0x0FC3 ; (1 found)
0x45f865: adc  [rax+0x000002D8], eax ; mov eax, 0x00000111 ; syscall ; (1 found)
0x4ac3b0: adc  [rax+0x00000300], eax ; ret ; (1 found)
0x4ac400: adc  [rax+0x00000308], eax ; ret ; (1 found)
0x4a287e: adc  [rax+0x29], ecx ; retn 0x0149 ; (2 found)
0x489db7: adc  [rax+0x39], ecx ; ret ; (3 found)
0x4918eb: adc  [rax+0x40], eax ; pop rbx ; ret ; (2 found)
0x451bac: adc  [rax+rdx-0x10], eax ; ret ; (1 found)
0x484970: adc  [rax-0x0000DF6B], ecx ; jmp qword [rsi+0x0F] ; (1 found)
0x47565d: adc  [rax-0x39], ecx ; retn 0xFFE0 ; (1 found)
0x403430: adc  [rax-0x73], ecx ; push 0x001F0FF8 ; call qword [rbp+rbx*8+0x00] ; (1 found)
0x4881e9: adc  [rax-0x77], ecx ; retn 0xC148 ; (1 found)
0x47788f: adc  [rax-0x7D], ecx ; retn 0x4101 ; (4 found)
0x44741b: adc  [rax], 0x83480000 ; retn 0x4910 ; (1 found)
0x49df97: adc  [rax], eax ; add byte [rax-0x468AFB1B], al ; ret ; (1 found)
0x445cf6: adc  [rax], eax ; add byte [rax-0x7D], cl ; retn 0x4910 ; (4 found)
0x44731f: adc  [rax], eax ; add byte [rax-0x7D], cl ; retn 0xE910 ; (3 found)
0x4a1be8: adc  [rax], eax ; add byte [rax], al ; syscall ; (1 found)
0x451ba9: adc  [rax], eax ; movups  [rax+rdx-0x10], xmm0 ; ret ; (1 found)
0x490ad3: adc  [rax], eax ; ret ; (1 found)
0x490a98: adc  [rax], ecx ; ret ; (1 found)
0x464832: adc  [rbx+0x000002D8], eax ; syscall ; (1 found)
0x41f3c6: adc  [rbx+0x08], eax ; pop rbx ; ret ; (1 found)
0x41efc7: adc  [rbx+0x28], eax ; pop rbx ; ret ; (2 found)
0x422296: adc  [rbx+0x48], eax ; pop rbx ; ret ; (2 found)
0x4a224e: adc  [rbx], eax ; pop rbx ; ret ; (1 found)
0x440c34: adc  [rcx+0x06], esi ; vmovups  [r9+0x01C0], zmm15 ; ret ; (1 found)
0x440c3b: adc  [rcx+0x07], edi ; ret ; (1 found)
0x42a3d9: adc  [rcx+0x2EE80009], esp ; mov bh, 0xFF ; jmp qword [rsi+0x66] ; (1 found)
0x423261: adc  [rcx+0x40], eax ; mov qword [rax+0x000000A8], 0x0000000000000000 ; ret ; (1 found)
0x4408d6: adc  [rcx-0x01], ebx ; ret ; (1 found)
0x44089a: adc  [rcx-0x01], edi ; ret ; (2 found)
0x4408cf: adc  [rcx-0x02], edx ; vmovups  [r9-0x40], zmm3 ; ret ; (1 found)
0x440acd: adc  [rcx-0x02], esi ; vmovups  [r9-0x40], zmm15 ; ret ; (1 found)
0x440893: adc  [rcx-0x02], esi ; vmovups  [r9-0x40], zmm7 ; ret ; (1 found)
0x45f86c: adc  [rcx], eax ; add byte [rax], al ; syscall ; (1 found)
0x45070c: adc  [rcx], eax ; ret ; (1 found)
0x42306a: adc  [rdi+0x000000A0], eax ; ret ; (2 found)
0x4221ac: adc  [rdi+0x08], eax ; ret ; (1 found)
0x422171: adc  [rdi+0x08], ecx ; ret ; (1 found)
0x451c20: adc  [rdi+0x20], eax ; movups  [rdi+0x30], xmm0 ; ret ; (1 found)
0x451c24: adc  [rdi+0x30], eax ; ret ; (1 found)
0x450777: adc  [rdi+0x30], edi ; movups  [rdx+rdi-0x10], xmm8 ; ret ; (1 found)
0x451b2d: adc  [rdi+rdx-0x10], eax ; movups  [rdi], xmm0 ; ret ; (1 found)
0x450925: adc  [rdi+rdx-0x10], ebx ; ret ; (2 found)
0x4504b7: adc  [rdi+rdx-0x10], ecx ; ret ; (2 found)
0x450603: adc  [rdi+rdx-0x10], edx ; movups  [rdi+rdx-0x20], xmm3 ; ret ; (1 found)
0x450608: adc  [rdi+rdx-0x20], ebx ; ret ; (1 found)
0x450920: adc  [rdi+rdx-0x20], edx ; movups  [rdi+rdx-0x10], xmm3 ; ret ; (2 found)
0x450666: adc  [rdi+rdx-0x30], esi ; movups  [rdi+rdx-0x40], xmm7 ; ret ; (1 found)
0x45066b: adc  [rdi+rdx-0x40], edi ; ret ; (1 found)
0x440d96: adc  [rdi-0x07], esi ; vmovups  [rdi-0x0200], zmm15 ; ret ; (1 found)
0x440d9d: adc  [rdi-0x08], edi ; ret ; (1 found)
0x451bb6: adc  [rdi-0x10], eax ; ret ; (1 found)
0x451bb2: adc  [rdi-0x20], eax ; movups  [rdi-0x10], xmm0 ; ret ; (1 found)
0x4504b4: adc  [rdi], eax ; movups  [rdi+rdx-0x10], xmm1 ; ret ; (2 found)
0x451b32: adc  [rdi], eax ; ret ; (1 found)
0x450270: adc  [rdi], edx ; vmovups  [rsi-0x40], zmm2 ; ret ; (1 found)
0x45077c: adc  [rdx+rdi-0x10], eax ; ret ; (1 found)
0x450709: adc  [rdx], eax ; movups  [rcx], xmm0 ; ret ; (1 found)
0x45039c: adc  [rsi+0x02], edx ; vmovups  [rsi+0x00C0], zmm2 ; ret ; (1 found)
0x4503a3: adc  [rsi+0x03], edx ; ret ; (1 found)
0x450439: adc  [rsi+0x06], edx ; vmovups  [rsi+0x01C0], zmm2 ; ret ; (1 found)
0x450440: adc  [rsi+0x07], edx ; ret ; (1 found)
0x450242: adc  [rsi-0x01], edx ; ret ; (4 found)
0x45023b: adc  [rsi-0x02], edx ; vmovups  [rsi-0x40], zmm2 ; ret ; (3 found)
0x402791: adc  [rsi], eax ; add cl, cl ; ret ; (1 found)
0x451c6d: adc ah, bh ; ret ; (3 found)
0x451e24: adc ah, bh ; vzeroupper ; ret ; (1 found)
0x4459af: adc al, 0x00 ; add byte [rax-0x7D], cl ; retn 0x4910 ; (3 found)
0x445a19: adc al, 0x00 ; add byte [rax-0x7D], cl ; retn 0xE910 ; (3 found)
0x4a8e1e: adc al, 0x00 ; add byte [rax], al ; syscall ; (1 found)
0x40245c: adc al, 0x06 ; add cl, cl ; ret ; (1 found)
0x47f777: adc al, 0x09 ; retn 0x8F74 ; (1 found)
0x42d5a7: adc al, 0x0A ; jmp r10 ; (13 found)
0x42eb13: adc al, 0x0A ; sub eax, edx ; ret ; (8 found)
0x4333fa: adc al, 0x0E ; sub eax, edx ; ret ; (1 found)
0x41982b: adc al, 0x10 ; jmp qword [rcx+rdx*8] ; (2 found)
0x48dbb0: adc al, 0x10 ; lea rsi, qword [0x00000000004EFAA0] ; jmp qword [rsi+rdx*8] ; (1 found)
0x48dc49: adc al, 0x10 ; lea rsi, qword [0x00000000004EFBA0] ; jmp qword [rsi+rdx*8] ; (1 found)
0x418b44: adc al, 0x10 ; mov rdx, qword [r11+rdx*8] ; jmp rdx ; (3 found)
0x41994f: adc al, 0x10 ; mov rdx, qword [rcx+rdx*8] ; jmp rdx ; (1 found)
0x419686: adc al, 0x10 ; mov rdx, qword [rdi+rdx*8] ; jmp rdx ; (4 found)
0x419644: adc al, 0x10 ; mov rdx, qword [rsi+rdx*8] ; jmp rdx ; (5 found)
0x463a31: adc al, 0x11 ; mov qword [rax+0x08], rdx ; ret ; (1 found)
0x435d85: adc al, 0x13 ; jmp rdx ; (150 found)
0x42e9a9: adc al, 0x16 ; sub eax, edx ; ret ; (8 found)
0x456fd6: adc al, 0x3A ; sub eax, edx ; ret ; (2 found)
0x4604bc: adc al, 0x48 ; add esp, 0x28 ; ret ; (1 found)
0x44db80: adc al, 0x48 ; lea eax,  [rdi+0x14] ; ret ; (1 found)
0x4232eb: adc al, 0x5D ; ret ; (1 found)
0x4bae89: adc al, 0x90 ; add rdx, r8 ; jmp rdx ; (1 found)
0x4056b0: adc al, 0x91 ; add rdx, rcx ; jmp rdx ; (4 found)
0x44556e: adc al, 0x91 ; sub eax, edx ; ret ; (4 found)
0x40b27a: adc al, 0x93 ; add r10, r11 ; jmp r10 ; (1 found)
0x435d81: adc al, 0x93 ; lea rdx, qword [r11+rdx] ; jmp rdx ; (150 found)
0x4ba4c2: adc al, 0x96 ; add rdx, r14 ; jmp rdx ; (1 found)
0x40afa4: adc al, 0x96 ; add rdx, rsi ; jmp rdx ; (3 found)
0x45c9a0: adc al, 0x97 ; add rdx, rdi ; jmp rdx ; (1 found)
0x48d0af: adc al, 0xD0 ; jmp rdx ; (3 found)
0x419953: adc al, 0xD1 ; jmp rdx ; (1 found)
0x418b48: adc al, 0xD3 ; jmp rdx ; (3 found)
0x48dccf: adc al, 0xD3 ; mov rbx, qword [rsp+0x00000090] ; jmp rdx ; (1 found)
0x48d9ce: adc al, 0xD3 ; mov rbx, rcx ; jmp rdx ; (9 found)
0x419648: adc al, 0xD6 ; jmp rdx ; (5 found)
0x41968a: adc al, 0xD7 ; jmp rdx ; (4 found)
0x4a491f: adc al, 0xF6 ; jmp qword [rsi+0x0F] ; (1 found)
0x4bb822: adc al, 0xF7 ; ret ; (1 found)
0x45fd84: adc al, 0xFA ; dec  [rax-0x77] ; ret ; (1 found)
0x4924ac: adc al, 0xFD ; call qword [rax+0x56415741] ; (1 found)
0x4300d3: adc al, ah ; mov eax,  [0xDAFDC520124C7465] ; retn 0xF5C5 ; (4 found)
0x451d28: adc al, ah ; vzeroupper ; ret ; (1 found)
0x451c66: adc al, bh ; ret ; (3 found)
0x451e16: adc al, bh ; vzeroupper ; ret ; (1 found)
0x445b57: adc al, byte [rax] ; add byte [rax-0x7D], cl ; retn 0x4910 ; (2 found)
0x445bc1: adc al, byte [rax] ; add byte [rax-0x7D], cl ; retn 0xE910 ; (3 found)
0x4b4c1b: adc al, ch ; call rax ; (1 found)
0x4be2d7: adc al, ch ; ret ; (1 found)
0x451bae: adc al, dh ; ret ; (1 found)
0x451e0a: adc al, dh ; vzeroupper ; ret ; (1 found)
0x451d27: adc al, r12L ; vzeroupper ; ret ; (1 found)
0x451bad: adc al, r14L ; ret ; (1 found)
0x451e09: adc al, r14L ; vzeroupper ; ret ; (1 found)
0x451c76: adc bh, bh ; ret ; (8 found)
0x451e36: adc bh, bh ; vzeroupper ; ret ; (1 found)
0x4aa166: adc bh, byte [rcx] ; retn 0x0C74 ; (1 found)
0x4aa0d4: adc bh, byte [rcx] ; retn 0x850F ; (1 found)
0x474adf: adc bh, cl ; jmp qword [rsi+0x66] ; (1 found)
0x45970b: adc bl, al ; mov rax, r8 ; ret ; (1 found)
0x4ad0ba: adc bl, byte [rax+0x00] ; add byte [rcx-0x77], cl ; ret ; (1 found)
0x4b943e: adc byte [0x00000000004D7968], al ; divss xmm0,  [0x00000000004DEEC0] ; ret ; (1 found)
0x4b3435: adc byte [r13+0x59840FC0], al ; add eax, 0x01480000 ; ret ; (1 found)
0x41d6d2: adc byte [r8+0x01], r9L ; ret ; (1 found)
0x422551: adc byte [r8+0x39], r9L ; retn 0x870F ; (1 found)
0x4adb03: adc byte [r8+0x5A], bl ; pop rbx ; ret ; (3 found)
0x424133: adc byte [r8-0x77], r9L ; retn 0x0F8B ; (1 found)
0x4aa823: adc byte [r9+0x03], cl ; add al, 0x24 ; call rax ; (1 found)
0x422fbb: adc byte [rax+0x00000001], bh ; pop rbx ; ret ; (2 found)
0x46088f: adc byte [rax+0x00000001], bh ; syscall ; (1 found)
0x460a5f: adc byte [rax+0x00000003], bh ; syscall ; (1 found)
0x4616bf: adc byte [rax+0x00000009], bh ; syscall ; (1 found)
0x46349f: adc byte [rax+0x0000002B], bh ; syscall ; (1 found)
0x460bcd: adc byte [rax+0x0000004F], bh ; syscall ; (1 found)
0x476d3f: adc byte [rax+0x0000013E], bh ; syscall ; (1 found)
0x49ea9e: adc byte [rax+0x01], cl ; clc ; ret ; (1 found)
0x4beefe: adc byte [rax+0x01], cl ; out dx, eax ; call r12 ; (1 found)
0x41d6d3: adc byte [rax+0x01], cl ; ret ; (2 found)
0x425a79: adc byte [rax+0x01], cl ; retn 0x0349 ; (1 found)
0x41cdda: adc byte [rax+0x01], cl ; retn 0x2B48 ; (1 found)
0x4a9381: adc byte [rax+0x29], cl ; retn 0x394C ; (1 found)
0x487488: adc byte [rax+0x29], cl ; retn 0xC148 ; (1 found)
0x422552: adc byte [rax+0x39], cl ; retn 0x870F ; (1 found)
0x476188: adc byte [rax+0x39], cl ; retn 0x8E0F ; (1 found)
0x4942ce: adc byte [rax+0x39], cl ; retn 0xF475 ; (1 found)
0x4adb04: adc byte [rax+0x5A], bl ; pop rbx ; ret ; (3 found)
0x422fe3: adc byte [rax-0x00000001], bh ; pop rbx ; ret ; (2 found)
0x461b83: adc byte [rax-0x09], cl ; retn 0xFFFE ; (1 found)
0x46113b: adc byte [rax-0x39], cl ; ret ; (1 found)
0x48dbb1: adc byte [rax-0x73], cl ; xor eax, 0x00061EE7 ; jmp qword [rsi+rdx*8] ; (1 found)
0x48dc4a: adc byte [rax-0x73], cl ; xor eax, 0x00061F4E ; jmp qword [rsi+rdx*8] ; (1 found)
0x419950: adc byte [rax-0x75], cl ; adc al, 0xD1 ; jmp rdx ; (1 found)
0x419645: adc byte [rax-0x75], cl ; adc al, 0xD6 ; jmp rdx ; (5 found)
0x419687: adc byte [rax-0x75], cl ; adc al, 0xD7 ; jmp rdx ; (4 found)
0x41fce0: adc byte [rax-0x77], cl ; out dx, eax ; call qword [r13+0x00000090] ; (1 found)
0x41f695: adc byte [rax-0x77], cl ; out dx, eax ; call qword [rax+0x00000090] ; (1 found)
0x461b07: adc byte [rax-0x77], cl ; out dx, eax ; call rax ; (1 found)
0x424134: adc byte [rax-0x77], cl ; retn 0x0F8B ; (1 found)
0x423cb4: adc byte [rax-0x77], cl ; retn 0x8B48 ; (1 found)
0x4b15c1: adc byte [rax-0x7B], cl ; sal byte [rbp-0x17], cl ; ret ; (1 found)
0x4049e2: adc byte [rax-0x7D], cl ; ret ; (3 found)
0x4bdc84: adc byte [rax-0x7D], cl ; retn 0x4801 ; (1 found)
0x462102: adc byte [rax-0x7D], cl ; retn 0x4808 ; (2 found)
0x465752: adc byte [rax-0x7D], cl ; retn 0x4810 ; (8 found)
0x4659a5: adc byte [rax-0x7D], cl ; retn 0x8310 ; (8 found)
0x49df6a: adc byte [rax], al ; add byte [rax+0x0F], cl ; retn 0x66C3 ; (1 found)
0x44741c: adc byte [rax], al ; add byte [rax-0x7D], cl ; retn 0x4910 ; (4 found)
0x445d61: adc byte [rax], al ; add byte [rax-0x7D], cl ; retn 0xE910 ; (2 found)
0x425869: adc byte [rax], al ; add byte [rax], al ; ret ; (2 found)
0x4a1c44: adc byte [rax], al ; add byte [rax], al ; syscall ; (1 found)
0x462c86: adc byte [rax], al ; add byte [rcx], dh ; jmp qword [rax+rcx*2-0x75] ; (1 found)
0x40d43c: adc byte [rbp+0x29], cl ; ret ; (1 found)
0x4b3436: adc byte [rbp+0x59840FC0], al ; add eax, 0x01480000 ; ret ; (1 found)
0x42cc49: adc byte [rbp-0x7CB7FD8E], cl ; retn 0x4802 ; (2 found)
0x41cff8: adc byte [rbx+0x5D], bl ; pop r12 ; ret ; (6 found)
0x423d0a: adc byte [rbx-0x2FD6EFB9], cl ; ret ; (1 found)
0x464507: adc byte [rbx-0x4D], dh ; xor eax, eax ; ret ; (1 found)
0x46019a: adc byte [rbx], al ; add bh, dh ; retn 0x0067 ; (1 found)
0x426017: adc byte [rcx+0x01], cl ; retn 0x3948 ; (1 found)
0x4aa824: adc byte [rcx+0x03], cl ; add al, 0x24 ; call rax ; (1 found)
0x459a8e: adc byte [rcx+0x29], al ; ret ; (1 found)
0x45d0c4: adc byte [rcx+0x29], bl ; retn 0x8949 ; (1 found)
0x40bc7e: adc byte [rcx+0x39], cl ; retn 0xEC75 ; (1 found)
0x418b45: adc byte [rcx-0x75], cl ; adc al, 0xD3 ; jmp rdx ; (3 found)
0x460820: adc byte [rcx-0x77], al ; ror byte [rbx+0x3108247C], 0xC0 ; syscall ; (1 found)
0x4b91c1: adc byte [rcx-0x77], cl ; ret ; (1 found)
0x4259ce: adc byte [rcx-0x7D], al ; ret ; (2 found)
0x499f67: adc byte [rcx-0x7D], cl ; retn 0x0F10 ; (15 found)
0x43348d: adc byte [rcx-0x7D], cl ; retn 0x7F10 ; (60 found)
0x49475e: adc byte [rcx], cl ; retn 0x3949 ; (1 found)
0x41d1cf: adc byte [rcx], dh ; ror byte [rcx+rcx*4-0x01], cl ; call qword [r14+0x00000080] ; (1 found)
0x4bc29f: adc byte [rdi+0x00000001], bh ; jmp rax ; (1 found)
0x404d62: adc byte [rdi+rsi-0x09], dh ; retn 0x0000 ; (1 found)
0x433d21: adc byte [rdi], cl ; xchg byte [0x83480000+rax], ch ; retn 0xEB10 ; (1 found)
0x4341c9: adc byte [rdi], cl ; xchg byte [rax+rax-0x7CB80000], al ; retn 0xEB10 ; (1 found)
0x4334b1: adc byte [rdi], cl ; xchg byte [rbp+rcx-0x7CB80000], bl ; retn 0xEB10 ; (1 found)
0x433691: adc byte [rdi], cl ; xchg byte [rbx+rcx-0x7CB80000], bh ; retn 0xEB10 ; (1 found)
0x4335a1: adc byte [rdi], cl ; xchg byte [rsp+rcx-0x7CB80000], ch ; retn 0xEB10 ; (1 found)
0x43628a: adc byte [rdx+0x09], dh ; movaps  [rdi], xmm4 ; jmp r9 ; (30 found)
0x4b4ce0: adc ch, dh ; jmp qword [rsi+0x2E] ; (1 found)
0x4b2b23: adc cl, byte [rax+0x01] ; retn 0x8D49 ; (1 found)
0x449f35: adc cl, byte [rax-0x01] ; retn 0x2288 ; (2 found)
0x415b48: adc cl, byte [rax-0x75] ; adc cl, byte [rbx+rcx*4+0x74] ; retn 0x4C40 ; (2 found)
0x4a933d: adc cl, byte [rax-0x7D] ; ret ; (1 found)
0x484339: adc cl, byte [rax-0x7D] ; retn 0x4810 ; (1 found)
0x41b5fd: adc cl, byte [rax-0x7D] ; retn 0xEB01 ; (1 found)
0x41e6dd: adc cl, byte [rbx+0x42394C42] ; cmovne rax, rcx ; ret ; (1 found)
0x415b4b: adc cl, byte [rbx+rcx*4+0x74] ; retn 0x4C40 ; (2 found)
0x451ee7: adc dil, r15L ; ret ; (5 found)
0x4581a4: adc eax,  [rax] ; add bh, dh ; retn 0x0000 ; (1 found)
0x44717e: adc eax,  [rax] ; add byte [rax-0x7D], cl ; retn 0x4910 ; (3 found)
0x49a749: adc eax,  [rax] ; add byte [rax-0x7D], cl ; retn 0xE910 ; (1 found)
0x40252a: adc eax,  [rsi] ; add cl, cl ; ret ; (1 found)
0x458168: adc eax, 0x00000AA3 ; cmovne rax, rdx ; ret ; (1 found)
0x49df68: adc eax, 0x00001073 ; cmovne rax, rdx ; ret ; (1 found)
0x42c2e6: adc eax, 0x00002925 ; cmovne rax, rdx ; ret ; (1 found)
0x49417d: adc eax, 0x0000348E ; cmovne rax, rdx ; ret ; (1 found)
0x42c5da: adc eax, 0x00005541 ; cmovne rax, rdx ; ret ; (1 found)
0x42d38a: adc eax, 0x0000DE31 ; cmovne rax, rdx ; ret ; (1 found)
0x42d1aa: adc eax, 0x0000DFF1 ; cmovne rax, rdx ; ret ; (1 found)
0x42cf9a: adc eax, 0x00010D11 ; cmovne rax, rdx ; ret ; (1 found)
0x42d2fd: adc eax, 0x00015EAE ; cmovne rax, rdx ; ret ; (1 found)
0x42c366: adc eax, 0x0001DCD5 ; cmovne rax, rdx ; ret ; (1 found)
0x42d276: adc eax, 0x0001E575 ; cmovne rax, rdx ; ret ; (1 found)
0x42ceb8: adc eax, 0x00021503 ; cmovne rax, rdx ; ret ; (1 found)
0x42c26a: adc eax, 0x00021E31 ; cmovne rax, rdx ; ret ; (1 found)
0x42d0d4: adc eax, 0x00024D87 ; cmove rax, rdx ; ret ; (1 found)
0x4af34f: adc eax, 0x0004B004 ; add word [rdx+rax*2], 0x0001 ; ret ; (1 found)
0x41ad85: adc eax, 0x000A8976 ; add rax, rdx ; ret ; (1 found)
0x425949: adc eax, 0x000CCF7A ; ret ; (1 found)
0x42ceba: adc eax, 0x0F480002 ; retn 0x66C3 ; (1 found)
0x49ea9a: adc eax, 0x10EF8348 ; add rax, rdi ; ret ; (1 found)
0x445881: adc eax, 0x83480000 ; retn 0xE910 ; (3 found)
0x45ff16: adc eax, 0x89480000 ; ret ; (1 found)
0x49ef1a: adc eax, 0xE180D188 ; pcmpeqb mm3, qword [rsi] ; ret ; (1 found)
0x46d20e: adc eax, 0xF7000005 ; retn 0x0000 ; (1 found)
0x49373a: adc eax, 0xFB894853 ; mov rdi, qword [rdi+0x08] ; call qword [rbx] ; (1 found)
0x49e08d: adc eax, 0xFFFB3BEE ; cmove rax, rdx ; ret ; (1 found)
0x47f7ed: adc eax, eax ; ret ; (2 found)
0x4ba3a2: adc ecx,  [rax+0x63] ; retn 0xBC80 ; (1 found)
0x487850: adc ecx,  [rax-0x77] ; retn 0xC148 ; (3 found)
0x40c439: adc ecx,  [rax-0x7D] ; ret ; (2 found)
0x416656: adc ecx,  [rcx+rax-0x1E] ; call qword [r10+rax*8] ; (2 found)
0x435d86: adc edi,  [rsi] ; jmp rdx ; (150 found)
0x4727de: adc edi, edi ; jmp qword [rsi+0x66] ; (2 found)
0x4904d2: adc esi, edi ; jmp qword [rsi+0x2E] ; (1 found)
0x47712b: adc esp, ebp ; clc ; call qword [rax+0x56415741] ; (1 found)
0x49c372: adc qword [r8], rax ; add byte [rax-0x7D], cl ; retn 0xE910 ; (1 found)
0x440c33: adc qword [rcx+0x06], rsi ; vmovups  [r9+0x01C0], zmm15 ; ret ; (1 found)
0x440c3a: adc qword [rcx+0x07], rdi ; ret ; (1 found)
0x4408d5: adc qword [rcx-0x01], rbx ; ret ; (1 found)
0x440899: adc qword [rcx-0x01], rdi ; ret ; (2 found)
0x4408ce: adc qword [rcx-0x02], rdx ; vmovups  [r9-0x40], zmm3 ; ret ; (1 found)
0x440acc: adc qword [rcx-0x02], rsi ; vmovups  [r9-0x40], zmm15 ; ret ; (1 found)
0x440892: adc qword [rcx-0x02], rsi ; vmovups  [r9-0x40], zmm7 ; ret ; (1 found)
0x440d95: adc qword [rdi-0x07], rsi ; vmovups  [rdi-0x0200], zmm15 ; ret ; (1 found)
0x440d9c: adc qword [rdi-0x08], rdi ; ret ; (1 found)
0x45026f: adc qword [rdi], rdx ; vmovups  [rsi-0x40], zmm2 ; ret ; (1 found)
0x45039b: adc qword [rsi+0x02], rdx ; vmovups  [rsi+0x00C0], zmm2 ; ret ; (1 found)
0x4503a2: adc qword [rsi+0x03], rdx ; ret ; (1 found)
0x450438: adc qword [rsi+0x06], rdx ; vmovups  [rsi+0x01C0], zmm2 ; ret ; (1 found)
0x45043f: adc qword [rsi+0x07], rdx ; ret ; (1 found)
0x450241: adc qword [rsi-0x01], rdx ; ret ; (4 found)
0x45023a: adc qword [rsi-0x02], rdx ; vmovups  [rsi-0x40], zmm2 ; ret ; (3 found)
0x49a8b0: adc r8L, byte [r8] ; add byte [rax-0x7D], cl ; retn 0x4910 ; (1 found)
0x42409f: add  [0x00000000004F5394], 0x01 ; pop rbx ; ret ; (1 found)
0x40de10: add  [r14+0x0F], r12d ; insb ; ret ; (1 found)
0x484398: add  [r8-0x73], ecx ; add cl, byte [rcx+0x39] ; ret ; (1 found)
0x40b732: add  [r8-0x7D], ecx ; ret ; (3 found)
0x4a1f09: add  [rax+0x01], ecx ; ret ; (1 found)
0x4adf17: add  [rax+0x01], ecx ; ror byte [rax-0x77], 1 ; retn 0xC148 ; (3 found)
0x40b7ff: add  [rax+0x01], ecx ; ror byte [rax-0x77], 1 ; retn 0xE281 ; (1 found)
0x44ce91: add  [rax+0x028D4802], ecx ; ret ; (1 found)
0x42b7c8: add  [rax+0x0F], ecx ; retn 0x66C3 ; (1 found)
0x40d31e: add  [rax+0x0F], ecx ; retn 0x8948 ; (1 found)
0x422a3b: add  [rax+0x39], ecx ; ret ; (11 found)
0x470f3f: add  [rax+0x39], ecx ; retn 0x2476 ; (1 found)
0x46cc1f: add  [rax+0x39], ecx ; retn 0x4076 ; (1 found)
0x46dacb: add  [rax+0x39], ecx ; retn 0x4276 ; (3 found)
0x422dd4: add  [rax+0x39], ecx ; retn 0xEE75 ; (2 found)
0x41e332: add  [rax+0x39], ecx ; retn 0xF075 ; (1 found)
0x4c00f3: add  [rax+0x39], ecx ; sal  [rcx+rcx*4+0x48], 0xFFFFFF89 ; retn 0xC148 ; (1 found)
0x4bfc9b: add  [rax+0x39], ecx ; sal  [rdi+rax*4+0x48], 0xFFFFFF89 ; retn 0xC148 ; (1 found)
0x4bfdf3: add  [rax+0x39], ecx ; sal  [rdx+rcx*4+0x48], 0xFFFFFF89 ; retn 0xC148 ; (1 found)
0x404218: add  [rax+0x3D094400], eax ; retn 0x0F5B ; (1 found)
0x4b9aa1: add  [rax+0x63], ecx ; ret ; (1 found)
0x48b566: add  [rax-0x0008E343], eax ; jmp qword [rax] ; (1 found)
0x44b6e1: add  [rax-0x0776B7FE], ecx ; ret ; (1 found)
0x484395: add  [rax-0x72B7FEBF], ecx ; add cl, byte [rcx+0x39] ; ret ; (2 found)
0x484389: add  [rax-0x73], ecx ; add  [rcx+0x39], ecx ; ret ; (1 found)
0x484399: add  [rax-0x73], ecx ; add cl, byte [rcx+0x39] ; ret ; (1 found)
0x429840: add  [rax-0x73], ecx ; push rsp ; retn 0xE8F0 ; (2 found)
0x4653ba: add  [rax-0x76B7FFF9], eax ; retn 0xFF85 ; (1 found)
0x425946: add  [rax-0x77], ecx ; adc eax, 0x000CCF7A ; ret ; (1 found)
0x46497e: add  [rax-0x77], ecx ; push rax ; ret ; (2 found)
0x4776eb: add  [rax-0x77], ecx ; ret ; (4 found)
0x469007: add  [rax-0x77], ecx ; retn 0x2B48 ; (1 found)
0x4a22d3: add  [rax-0x77], ecx ; retn 0x8948 ; (1 found)
0x40c2c8: add  [rax-0x77], ecx ; retn 0x8949 ; (1 found)
0x4a7c29: add  [rax-0x77], ecx ; retn 0x8B49 ; (2 found)
0x4af627: add  [rax-0x77], ecx ; retn 0xC148 ; (2 found)
0x4a3b83: add  [rax-0x77], ecx ; xor cl, byte [rax-0x7D] ; retn 0x4838 ; (1 found)
0x409707: add  [rax-0x7CB700B2], ecx ; retn 0x4901 ; (1 found)
0x40b733: add  [rax-0x7D], ecx ; ret ; (16 found)
0x476672: add  [rax-0x7D], ecx ; retn 0x4001 ; (3 found)
0x4698cb: add  [rax-0x7D], ecx ; retn 0x4101 ; (5 found)
0x45f727: add  [rax-0x7D], ecx ; retn 0x4908 ; (1 found)
0x45c583: add  [rax-0x7D], ecx ; retn 0x4C08 ; (1 found)
0x408c42: add  [rax-0x7D], ecx ; retn 0x8401 ; (10 found)
0x4896f3: add  [rax-0x7D], ecx ; retn 0x8404 ; (1 found)
0x4583b9: add  [rax-0x7D], ecx ; retn 0x8801 ; (1 found)
0x41a60e: add  [rax-0x7D], ecx ; retn 0x8901 ; (2 found)
0x4098ba: add  [rax-0x7D], ecx ; retn 0xA801 ; (2 found)
0x449866: add  [rax], 0xC8010000 ; vzeroupper ; ret ; (1 found)
0x4189f9: add  [rax], eax ; add al, ch ; call rdi ; (1 found)
0x46f70d: add  [rax], eax ; add byte [rax+0x39], cl ; retn 0x3676 ; (1 found)
0x415eb2: add  [rax], eax ; add byte [rax+0x63], cl ; ret ; (2 found)
0x45cb24: add  [rax], eax ; add byte [rax+0x63], cl ; retn 0x8941 ; (2 found)
0x45ca97: add  [rax], eax ; add byte [rax+0x63], cl ; retn 0xD789 ; (1 found)
0x4ba551: add  [rax], eax ; add byte [rax-0x0080], al ; call qword [rcx] ; (1 found)
0x4bd025: add  [rax], eax ; add byte [rax-0x39], cl ; retn 0xFFFF ; (1 found)
0x41b1ba: add  [rax], eax ; add byte [rax-0x73], cl ; jmp qword [r14+0x48] ; (1 found)
0x4a57f2: add  [rax], eax ; add byte [rax-0x77], cl ; ret ; (2 found)
0x4b80bf: add  [rax], eax ; add byte [rax-0x77], cl ; retn 0xC148 ; (3 found)
0x42afd0: add  [rax], eax ; add byte [rax-0x7B], cl ; retn 0x840F ; (1 found)
0x4a203f: add  [rax], eax ; add byte [rax-0x7D], cl ; ret ; (1 found)
0x4340b7: add  [rax], eax ; add byte [rax-0x7D], cl ; retn 0x4910 ; (4 found)
0x48fa14: add  [rax], eax ; add byte [rax-0x7D], cl ; retn 0x8908 ; (1 found)
0x4299a4: add  [rax], eax ; add byte [rax-0x7D], cl ; retn 0xB817 ; (1 found)
0x4943b6: add  [rax], eax ; add byte [rax-0x7D], cl ; retn 0xE901 ; (2 found)
0x4482df: add  [rax], eax ; add byte [rax-0x7D], cl ; retn 0xE910 ; (1 found)
0x4340e5: add  [rax], eax ; add byte [rax-0x7D], cl ; retn 0xEB10 ; (1 found)
0x42045b: add  [rax], eax ; add byte [rax], al ; call qword [rax+0x00000080] ; (1 found)
0x4617dd: add  [rax], eax ; add byte [rax], al ; call r12 ; (4 found)
0x4bb536: add  [rax], eax ; add byte [rax], al ; call rax ; (5 found)
0x4bc2a1: add  [rax], eax ; add byte [rax], al ; jmp rax ; (1 found)
0x492f14: add  [rax], eax ; add byte [rax], al ; ret ; (10 found)
0x460891: add  [rax], eax ; add byte [rax], al ; syscall ; (3 found)
0x404114: add  [rax], eax ; add byte [rbx-0x7CBEFE3A], al ; ret ; (1 found)
0x45cb15: add  [rax], eax ; add byte [rcx+0x29], al ; retn 0x8944 ; (1 found)
0x4916ab: add  [rax], eax ; add byte [rcx+rcx*4-0x11], cl ; call qword [r14+0x20] ; (1 found)
0x46a961: add  [rax], eax ; add byte [rcx-0x0A], al ; retn 0x0F04 ; (1 found)
0x40c36e: add  [rax], eax ; add byte [rcx-0x1076B312], cl ; call r15 ; (1 found)
0x4212d8: add  [rax], eax ; add byte [rdi+rcx-0x42], cl ; retn 0x4A8D ; (1 found)
0x4288e1: add  [rax], eax ; add dh, dh ; retn 0x0F0F ; (1 found)
0x44e175: add  [rax], eax ; add dh, dh ; retn 0x7501 ; (1 found)
0x44e182: add  [rax], eax ; add dh, dh ; retn 0x7502 ; (1 found)
0x44e18f: add  [rax], eax ; add dh, dh ; retn 0x7504 ; (1 found)
0x44e147: add  [rax], eax ; add dh, dh ; retn 0x7510 ; (1 found)
0x44e154: add  [rax], eax ; add dh, dh ; retn 0x7520 ; (1 found)
0x44e161: add  [rax], eax ; add dh, dh ; retn 0x7540 ; (1 found)
0x493684: add  [rax], eax ; call rbx ; (1 found)
0x42c4e2: add  [rax], eax ; cmove rax, rdx ; ret ; (4 found)
0x42c369: add  [rax], eax ; cmovne rax, rdx ; ret ; (4 found)
0x4b9442: add  [rax], eax ; divss xmm0,  [0x00000000004DEEC0] ; ret ; (1 found)
0x457cec: add  [rbp+rcx*4+0x4C], ecx ; and al, 0x20 ; call rbx ; (1 found)
0x49e218: add  [rbp+rcx*4+0x4C], ecx ; and al, 0x38 ; call rbx ; (1 found)
0x401b40: add  [rbp-0x3D], ebx ; nop  [rax+rax+0x00] ; ret ; (1 found)
0x45ad53: add  [rbp-0x73], eax ; add eax,  [r13+0x0F] ; ret ; (1 found)
0x40374e: add  [rbp-0x77], ecx ; ret ; (2 found)
0x43dad2: add  [rbx+0x0157890E], ecx ; mov  [rdi], ecx ; ret ; (2 found)
0x427cba: add  [rbx+0x0CABE305], ecx ; add byte [rcx], bh ; retn 0x0A7E ; (1 found)
0x414e4b: add  [rbx-0x0006477B], ecx ; dec  [rax-0x7D] ; ret ; (1 found)
0x403c80: add  [rbx-0x50F0FE40], eax ; retn 0x518D ; (1 found)
0x4031a6: add  [rbx-0x50F0FE40], eax ; retn 0x538D ; (1 found)
0x42983d: add  [rbx-0x72B7FE20], eax ; push rsp ; retn 0xE8F0 ; (2 found)
0x47e280: add  [rcx+0x0F], eax ; mov esi, 0x89412404 ; ret ; (1 found)
0x403104: add  [rcx+0x0F], eax ; xchg eax, esp ; ret ; (1 found)
0x48438c: add  [rcx+0x39], ecx ; ret ; (2 found)
0x42834c: add  [rcx+0x39], ecx ; retn 0x870F ; (1 found)
0x4228dd: add  [rcx+rcx*4-0x19], ecx ; call qword [rbx+0x18] ; (1 found)
0x44b711: add  [rcx-0x0776B7FE], ecx ; ret ; (1 found)
0x4805d8: add  [rcx-0x77], ecx ; push rsp ; ret ; (2 found)
0x404119: add  [rcx-0x7D], eax ; ret ; (1 found)
0x40d2eb: add  [rcx-0x7D], ecx ; retn 0x8401 ; (1 found)
0x40411d: add  [rcx-0x7D], ecx ; rol  [rcx+rcx*2], 0xFFFFFF83 ; retn 0x4104 ; (1 found)
0x4605d5: add  [rcx], eax ; add byte [rax], al ; syscall ; (6 found)
0x4816ea: add  [rcx], eax ; clc ; jmp qword [rsi-0x70] ; (1 found)
0x4240e8: add  [rdi+0x05], edi ; ret ; (1 found)
0x489ac2: add  [rdi+0x0B], edi ; ret ; (1 found)
0x45fb5a: add  [rdi+0x13], edi ; pop rbx ; ret ; (1 found)
0x4bee6e: add  [rdi+0x1F], edi ; pop rbx ; ret ; (1 found)
0x45af9d: add  [rdi+0x20], edi ; add rsp, 0x08 ; ret ; (1 found)
0x4af023: add  [rdi+0x32], edi ; pop rbp ; ret ; (1 found)
0x421c60: add  [rdi+0x3D], edi ; add rsp, 0x08 ; ret ; (1 found)
0x419339: add  [rdi+rcx+0x45], eax ; retn 0x448B ; (1 found)
0x403c83: add  [rdi], ecx ; scasd ; retn 0x518D ; (1 found)
0x4031a9: add  [rdi], ecx ; scasd ; retn 0x538D ; (1 found)
0x403c89: add  [rdi], ecx ; scasd ; retn 0xDA89 ; (1 found)
0x403c97: add  [rdi], ecx ; scasd ; retn 0xEBE9 ; (1 found)
0x40c860: add  [rdi], ecx ; test byte [rcx-0x7CFFFFFF], cl ; jmp qword [rdi+rcx] ; (1 found)
0x4787d9: add  [rdi], ecx ; xchg eax, ebp ; retn 0xC220 ; (4 found)
0x47fc97: add  [rdi], ecx ; xchg eax, edx ; retn 0x8948 ; (1 found)
0x478f3e: add  [rdi], ecx ; xchg eax, esp ; retn 0x2040 ; (4 found)
0x4a0f5f: add  [rdi], ecx ; xchg eax, esp ; retn 0xB60F ; (1 found)
0x4b3c4f: add  [rdi], ecx ; xchg eax, esp ; retn 0xF883 ; (1 found)
0x4502c0: add  [rdx+0x02], esi ; mov byte [rdi], cl ; ret ; (1 found)
0x45798f: add  [rdx+0x2B], 0xE2748104 ; ret ; (1 found)
0x4af355: add  [rdx+rax*2], 0x01 ; ret ; (1 found)
0x425ce3: add  [rdx+rcx+0x48], esi ; add esp, 0x08 ; ret ; (1 found)
0x4ad201: add  [rdx+rdx*8-0x41F0318B], eax ; sal edi, 0xFFFFFFD8 ; ret ; (1 found)
0x4b81ae: add  [rdx], 0x00000000 ; add byte [rax-0x77], cl ; retn 0xC148 ; (1 found)
0x40de11: add  [rsi+0x0F], esp ; insb ; ret ; (1 found)
0x41cf5f: add  [rsi+rbp-0x77], esi ; retn 0xC085 ; (1 found)
0x4b5ab1: add  [rsi+rcx-0x77], esi ; retn 0xC083 ; (1 found)
0x4226f9: add  [rsp-0x77], esi ; retn 0xC883 ; (1 found)
0x46d203: add al, 0x00 ; add bh, dh ; retn 0x0000 ; (1 found)
0x464293: add al, 0x00 ; add byte [rax+0x39], cl ; ret ; (1 found)
0x4a3b62: add al, 0x00 ; add byte [rax+0x39], cl ; retn 0xBF77 ; (1 found)
0x460cba: add al, 0x00 ; add byte [rax-0x39], cl ; ret ; (1 found)
0x4b84ff: add al, 0x00 ; add byte [rax-0x77], cl ; retn 0xC148 ; (1 found)
0x433de7: add al, 0x00 ; add byte [rax-0x7D], cl ; retn 0x4910 ; (6 found)
0x44803f: add al, 0x00 ; add byte [rax-0x7D], cl ; retn 0xE910 ; (2 found)
0x433e15: add al, 0x00 ; add byte [rax-0x7D], cl ; retn 0xEB10 ; (1 found)
0x49efa3: add al, 0x00 ; add byte [rax], al ; ret ; (1 found)
0x42591a: add al, 0x00 ; add byte [rsi+0x01], dh ; ret ; (1 found)
0x4ac007: add al, 0x00 ; add cl, ch ; retn 0xFFEF ; (1 found)
0x485c3f: add al, 0x00 ; add dh, dh ; retn 0x0F50 ; (1 found)
0x4b2e07: add al, 0x00 ; add rsp, 0x18 ; ret ; (1 found)
0x4af352: add al, 0x00 ; add word [rdx+rax*2], 0x0001 ; ret ; (1 found)
0x4656a7: add al, 0x00 ; nop word [rax+rax+0x00] ; ret ; (2 found)
0x4af538: add al, 0x00 ; ret ; (1 found)
0x49d82a: add al, 0x07 ; cmovle rax, rcx ; ret ; (2 found)
0x48ae88: add al, 0x07 ; jmp qword [rsi+rax*8] ; (1 found)
0x416cfe: add al, 0x07 ; lea rdi, qword [0x00000000004EE7C0] ; jmp qword [rdi+rax*8] ; (1 found)
0x44879c: add al, 0x07 ; ret ; (4 found)
0x435451: add al, 0x07 ; sub eax, ecx ; ret ; (2 found)
0x4636da: add al, 0x11 ; ret ; (1 found)
0x455d9e: add al, 0x17 ; ret ; (4 found)
0x42e93a: add al, 0x17 ; sub eax, ecx ; ret ; (5 found)
0x44e02e: add al, 0x17 ; vzeroupper ; ret ; (4 found)
0x4b9047: add al, 0x24 ; add rsp, 0x38 ; ret ; (1 found)
0x40ba8d: add al, 0x24 ; call rax ; (2 found)
0x4bc435: add al, 0x24 ; mov  [rsp+0x08], ecx ; call rax ; (1 found)
0x448fee: add al, 0x31 ; ret ; (1 found)
0x448eea: add al, 0x37 ; ret ; (1 found)
0x42686d: add al, 0x39 ; ret ; (1 found)
0x459e22: add al, 0x39 ; ror byte [rdi], 1 ; retn 0xB70F ; (1 found)
0x42343f: add al, 0x3A ; ret ; (2 found)
0x44d9eb: add al, 0x48 ; lea eax,  [rdi+0x05] ; ret ; (1 found)
0x44cee8: add al, 0x48 ; lea eax,  [rdx+0x04] ; ret ; (2 found)
0x44cefa: add al, 0x48 ; lea eax,  [rdx+0x05] ; ret ; (2 found)
0x43d7ca: add al, 0x48 ; mov  [rdi], ecx ; ret ; (2 found)
0x44b728: add al, 0x48 ; mov eax, edi ; ret ; (5 found)
0x449468: add al, 0x48 ; xor eax, eax ; ret ; (2 found)
0x457d67: add al, 0x4C ; lea ecx,  [rsp+0x20] ; call rbx ; (2 found)
0x40a67a: add al, 0x5B ; ret ; (1 found)
0x403510: add al, 0x68 ; sldt word [rbx+0x0D890FE2] ; jmp qword [rdi+0x0F] ; (1 found)
0x4b8b02: add al, 0x74 ; or ecx,  [rcx-0x7D] ; ret ; (1 found)
0x46cbf9: add al, 0x77 ; retn 0x3948 ; (2 found)
0x403345: add al, 0x81 ; add rax, rcx ; jmp rax ; (16 found)
0x446e43: add al, 0x81 ; sub eax, edx ; ret ; (4 found)
0x421057: add al, 0x82 ; add rax, r10 ; jmp rax ; (6 found)
0x40dff6: add al, 0x82 ; add rax, rdx ; jmp rax ; (10 found)
0x49fd74: add al, 0x82 ; ret ; (1 found)
0x443167: add al, 0x82 ; sub eax, ecx ; ret ; (16 found)
0x4666da: add al, 0x83 ; add rax, rbx ; jmp rax ; (1 found)
0x49e29a: add al, 0x85 ; sal byte [rbp-0x0F], cl ; ret ; (1 found)
0x4ba24f: add al, 0x86 ; add rax, r14 ; jmp rax ; (1 found)
0x48f43a: add al, 0x86 ; add rax, rsi ; jmp rax ; (1 found)
0x49ff6a: add al, 0x87 ; cmovle rax, rcx ; ret ; (2 found)
0x49fd1b: add al, 0x87 ; ret ; (5 found)
0x4a0146: add al, 0x87 ; vzeroupper ; ret ; (1 found)
0x489db5: add al, 0x89 ; adc  [rax+0x39], ecx ; ret ; (2 found)
0x4167a0: add al, 0x89 ; retn 0x9D89 ; (1 found)
0x4b9acd: add al, 0x8E ; add rax, r14 ; jmp rax ; (1 found)
0x405e65: add al, 0x91 ; add rax, rcx ; jmp rax ; (1 found)
0x403314: add al, 0x96 ; add rax, rsi ; jmp rax ; (1 found)
0x40e179: add al, 0x9A ; add rax, rdx ; jmp rax ; (2 found)
0x4226f7: add al, 0xA8 ; add  [rsp-0x77], esi ; retn 0xC883 ; (1 found)
0x4aad32: add al, 0xA9 ; add rax, rcx ; jmp rax ; (1 found)
0x45ff9d: add al, 0xAA ; add rax, rdx ; jmp rax ; (3 found)
0x4ab570: add al, 0xAE ; add rax, rsi ; jmp rax ; (1 found)
0x4032a6: add al, 0xB7 ; add rax, rdi ; jmp rax ; (1 found)
0x49ddfc: add al, 0xBA ; add rax, rdx ; jmp rax ; (1 found)
0x45ec91: add al, 0xD0 ; ret ; (1 found)
0x43db32: add al, 0xF3 ; movq qword [rdi], mm1 ; ret ; (4 found)
0x41ad5a: add al, 0xF8 ; ret ; (1 found)
0x48ea14: add al, 0xF9 ; jmp qword [rsi+0x0F] ; (1 found)
0x49d272: add al, byte [r8] ; add byte [rax-0x7D], cl ; retn 0xE910 ; (1 found)
0x42cfc6: add al, byte [r8] ; cmove rax, rdx ; ret ; (1 found)
0x449f31: add al, byte [rax+rax*8-0x00B7ED8C] ; retn 0x2288 ; (2 found)
0x46d1f7: add al, byte [rax] ; add bh, dh ; retn 0xF800 ; (1 found)
0x45f82d: add al, byte [rax] ; add byte [rax+0x00000038], bh ; syscall ; (1 found)
0x4647d4: add al, byte [rax] ; add byte [rax+0x000000DA], bh ; syscall ; (1 found)
0x45f868: add al, byte [rax] ; add byte [rax+0x00000111], bh ; syscall ; (1 found)
0x49e008: add al, byte [rax] ; add byte [rax+0x0F], cl ; retn 0x81C3 ; (1 found)
0x4a39fd: add al, byte [rax] ; add byte [rax+0x29], cl ; ret ; (1 found)
0x475626: add al, byte [rax] ; add byte [rax-0x007F], cl ; retn 0x0200 ; (1 found)
0x4891b8: add al, byte [rax] ; add byte [rax-0x39], cl ; retn 0xFFE0 ; (1 found)
0x428a92: add al, byte [rax] ; add byte [rax-0x77], cl ; retn 0x8D4C ; (1 found)
0x4b81af: add al, byte [rax] ; add byte [rax-0x77], cl ; retn 0xC148 ; (1 found)
0x433fc7: add al, byte [rax] ; add byte [rax-0x7D], cl ; retn 0x4910 ; (4 found)
0x446c01: add al, byte [rax] ; add byte [rax-0x7D], cl ; retn 0xE910 ; (3 found)
0x433ff5: add al, byte [rax] ; add byte [rax-0x7D], cl ; retn 0xEB10 ; (1 found)
0x49ef83: add al, byte [rax] ; add byte [rax], al ; ret ; (5 found)
0x40c90b: add al, byte [rax] ; add byte [rbx+rcx*4+0x15], cl ; ret ; (1 found)
0x44f744: add al, byte [rax] ; add byte [rbx-0x7BF0ED07], al ; retn 0x0002 ; (1 found)
0x40a284: add al, byte [rax] ; add byte [rbx-0x7BF0FE08], al ; retn 0x0002 ; (1 found)
0x4b261f: add al, byte [rax] ; add byte [rcx+0x248B4CE8], cl ; retn 0x0F41 ; (1 found)
0x425508: add al, byte [rax] ; add byte [rcx], bh ; retn 0x6974 ; (1 found)
0x425144: add al, byte [rax] ; add byte [rcx], bh ; retn 0x840F ; (2 found)
0x49316f: add al, byte [rax] ; add byte [rcx], bh ; retn 0x850F ; (1 found)
0x42d058: add al, byte [rax] ; add dh, dh ; retn 0x7420 ; (1 found)
0x41b216: add al, byte [rax] ; add dh, dh ; retn 0x7504 ; (1 found)
0x42ce77: add al, byte [rax] ; cmove rax, rdx ; ret ; (22 found)
0x42c26d: add al, byte [rax] ; cmovne rax, rdx ; ret ; (5 found)
0x455d78: add al, byte [rax] ; lea rax, qword [rdi+0x02] ; ret ; (1 found)
0x456b48: add al, byte [rax] ; ret ; (2 found)
0x449dd8: add al, byte [rax] ; vzeroupper ; ret ; (1 found)
0x49e7f2: add al, byte [rbp-0x7C968A40] ; retn 0x0F40 ; (2 found)
0x4b3c46: add al, byte [rbx-0x1F7CFC1A] ; add eax,  [rbx-0x6BF0FE02] ; retn 0xF883 ; (1 found)
0x47f86a: add al, byte [rbx-0x6F3CFE18] ; xor eax, eax ; ret ; (1 found)
0x45ad6c: add al, byte [rcx+0x01] ; fadd  [rbp+0x01] ; retn 0x2945 ; (1 found)
0x45f891: add al, byte [rcx+rcx*4-0x40] ; ret ; (1 found)
0x4092a3: add al, byte [rcx-0x000CCC1E] ; inc  [rcx] ; retn 0xD089 ; (1 found)
0x41b5f2: add al, byte [rcx-0x77] ; retn 0xE883 ; (1 found)
0x4ae863: add al, byte [rdx] ; sar bh, 0xFF ; ret ; (1 found)
0x4a8c5b: add al, ch ; call qword [rax] ; (1 found)
0x4189fb: add al, ch ; call rdi ; (1 found)
0x42860b: add al, ch ; call rsp ; (1 found)
0x4b1b5c: add al, ch ; fiadd word [rcx-0x0B] ; jmp qword [rsi+0x66] ; (1 found)
0x48135c: add al, ch ; fimul word [rcx-0x08] ; jmp qword [rsi+0x66] ; (1 found)
0x4295db: add al, ch ; lahf ; ret ; (1 found)
0x42a3dc: add al, ch ; mov bh, 0xFF ; jmp qword [rsi+0x66] ; (1 found)
0x4b03ac: add al, ch ; mov ds, word [rcx-0x0B] ; jmp qword [rsi+0x0F] ; (1 found)
0x40c5d7: add al, ch ; movsxd edx,  [rdi-0x3FCE0001] ; ret ; (1 found)
0x479a4c: add al, ch ; out dx, al ; retn 0xFFF8 ; (1 found)
0x420a97: add al, ch ; ret ; (8 found)
0x419218: add al, ch ; retn 0x06AF ; (1 found)
0x468978: add al, ch ; retn 0xF9D3 ; (1 found)
0x428688: add al, ch ; sar bh, cl ; jmp qword [rsi-0x70] ; (1 found)
0x4b40f0: add al, ch ; sbb al, 0xF5 ; jmp qword [rsi+0x2E] ; (1 found)
0x48ea11: add al, ch ; sub  [rcx+rdi*8], eax ; jmp qword [rsi+0x0F] ; (1 found)
0x4ac4f8: add al, ch ; sub edi, esi ; jmp qword [rsi-0x70] ; (1 found)
0x4b1809: add al, ch ; xor  [rbp-0x0B], eax ; call qword [rax-0x05E1F00D] ; (1 found)
0x4b2cf9: add al, ch ; xor r13L, sil ; call qword [rax-0x76B6AABF] ; (1 found)
0x40c437: add bh, bh ; adc ecx,  [rax-0x7D] ; ret ; (1 found)
0x404a54: add bh, bh ; idiv esi ; jmp qword [rsi+0x0F] ; (1 found)
0x4bf69b: add bh, bh ; ror byte [rax-0x7D], 1 ; ret ; (1 found)
0x4ae848: add bh, byte [rax+0x00000001] ; ret ; (1 found)
0x40b869: add bh, byte [rax-0x00000001] ; pop rbp ; ret ; (1 found)
0x45e903: add bh, byte [rax-0x00000001] ; ret ; (8 found)
0x4bb534: add bh, byte [rdi+0x00000001] ; call rax ; (1 found)
0x4578af: add bh, ch ; jmp qword [rsi+0x66] ; (1 found)
0x4a6071: add bh, dh ; ret ; (1 found)
0x404d5c: add bh, dh ; retn 0x0000 ; (18 found)
0x46019c: add bh, dh ; retn 0x0067 ; (1 found)
0x46d1f9: add bh, dh ; retn 0xF800 ; (1 found)
0x49de0e: add bl, al ; mov rax, qword [0x00000000004F9E80] ; ret ; (1 found)
0x45bc11: add bl, ch ; or  [rax-0x7D], ecx ; ret ; (2 found)
0x41e5c4: add bl, ch ; retn 0x44E8 ; (1 found)
0x40c09d: add bl, ch ; retn 0x55BF ; (1 found)
0x46294d: add bl, ch ; sub  [rax-0x77], ecx ; retn 0x0ABE ; (1 found)
0x4b9443: add bl, dh ; divps xmm0,  [0x00000000004DEEC0] ; ret ; (1 found)
0x401a8f: add bl, dh ; hint_nop edx ; ret ; (5 found)
0x46665e: add bl, sil ; hint_nop edx ; ret ; (2 found)
0x488b57: add byte [0x0000000000419A46], ch ; jmp qword [rsi-0x70] ; (1 found)
0x4a3cca: add byte [0xF641E589+rcx*2], al ; ret ; (1 found)
0x492fa7: add byte [0xFFFFFFFFA35877AD], cl ; retn 0x820F ; (1 found)
0x4af0c5: add byte [eax], al ; add byte [rax+0x0F], cl ; retn 0x66C3 ; (1 found)
0x462f5b: add byte [fs:rax], al ; add byte [rbp-0x3DBBF040], al ; ret ; (1 found)
0x4928d6: add byte [r14+rdi-0x77], r14L ; retn 0x48E9 ; (1 found)
0x41f42c: add byte [r8+0x39], r9L ; ret ; (5 found)
0x41d0cc: add byte [r8-0x39], r9L ; ret ; (6 found)
0x4163f6: add byte [r8-0x77], r9L ; retn 0x2949 ; (4 found)
0x41f67c: add byte [r8-0x77], r9L ; retn 0x294C ; (2 found)
0x4a6ebf: add byte [r8-0x77], r9L ; retn 0x314C ; (1 found)
0x4163f0: add byte [r9-0x39], r9L ; ror byte [rax+0x48004F44], 0x89 ; retn 0x2949 ; (2 found)
0x4ae85c: add byte [rax+0x00000001], bh ; mov  [rdx], 0xFFFFC002 ; ret ; (1 found)
0x492f12: add byte [rax+0x00000001], bh ; ret ; (3 found)
0x4ae8d2: add byte [rax+0x00000002], bh ; ret ; (1 found)
0x4759ab: add byte [rax+0x0000000D], bh ; syscall ; (1 found)
0x424e6f: add byte [rax+0x0000000E], bh ; syscall ; (3 found)
0x4651dd: add byte [rax+0x00000015], bh ; syscall ; (1 found)
0x49227f: add byte [rax+0x00000016], bh ; ret ; (2 found)
0x45f82f: add byte [rax+0x00000038], bh ; syscall ; (1 found)
0x461331: add byte [rax+0x00000048], bh ; syscall ; (2 found)
0x4048f8: add byte [rax+0x0000009E], bh ; syscall ; (3 found)
0x424f1f: add byte [rax+0x000000BA], bh ; syscall ; (2 found)
0x424ca0: add byte [rax+0x000000CA], bh ; syscall ; ret ; (2 found)
0x424be3: add byte [rax+0x000000CA], bh ; syscall ; (5 found)
0x424c44: add byte [rax+0x000000CA], bh ; xor sil, 0x80 ; syscall ; (1 found)
0x4647d6: add byte [rax+0x000000DA], bh ; syscall ; (1 found)
0x45e8e7: add byte [rax+0x000000E4], bh ; syscall ; (1 found)
0x4a1427: add byte [rax+0x000000E6], bh ; syscall ; (2 found)
0x45f86a: add byte [rax+0x00000111], bh ; syscall ; (1 found)
0x4673f1: add byte [rax+0x00], al ; add byte [rax+0x39], cl ; retn 0x0F48 ; (1 found)
0x44e2ee: add byte [rax+0x01478D48], dl ; ret ; (1 found)
0x427cda: add byte [rax+0x01], cl ; ret ; (3 found)
0x4a463d: add byte [rax+0x01], cl ; retn 0xBA41 ; (1 found)
0x4afe7a: add byte [rax+0x01], cl ; ror byte [rbp-0x73], 1 ; retn 0xEB08 ; (1 found)
0x44d98f: add byte [rax+0x078D4837], cl ; ret ; (1 found)
0x4297c0: add byte [rax+0x09], cl ; ret ; (1 found)
0x40c9e3: add byte [rax+0x0F48C985], al ; retn 0x13EB ; (1 found)
0x448e49: add byte [rax+0x0F], cl ; mov ebp, 0xF80148C0 ; ret ; (1 found)
0x4698c6: add byte [rax+0x0F], cl ; mov esi, 0x83480142 ; retn 0x4101 ; (2 found)
0x40c88f: add byte [rax+0x0F], cl ; mov esi, 0x83480143 ; ret ; (2 found)
0x42c26e: add byte [rax+0x0F], cl ; retn 0x0FC3 ; (18 found)
0x4a4b1b: add byte [rax+0x0F], cl ; retn 0x3145 ; (1 found)
0x42c3c8: add byte [rax+0x0F], cl ; retn 0x66C3 ; (23 found)
0x42d47a: add byte [rax+0x0F], cl ; retn 0x81C3 ; (3 found)
0x42c2ea: add byte [rax+0x0F], cl ; retn 0x85C3 ; (3 found)
0x425b01: add byte [rax+0x0F], cl ; retn 0x8948 ; (5 found)
0x4ae294: add byte [rax+0x0F], cl ; retn 0x8D48 ; (1 found)
0x4be5df: add byte [rax+0x107550FA], al ; xor eax, eax ; ret ; (1 found)
0x4b7314: add byte [rax+0x21], cl ; retn 0x8548 ; (1 found)
0x4ae75a: add byte [rax+0x21], cl ; retn 0xC148 ; (1 found)
0x4aa935: add byte [rax+0x29], cl ; enter 0x8D48, 0x04 ; retn 0x3948 ; (2 found)
0x423447: add byte [rax+0x29], cl ; enter 0xE883, 0x01 ; ret ; (1 found)
0x403423: add byte [rax+0x29], cl ; ret ; (5 found)
0x4a1122: add byte [rax+0x29], cl ; retn 0x0348 ; (2 found)
0x4a3bd8: add byte [rax+0x29], cl ; retn 0x8B4C ; (1 found)
0x4a76f7: add byte [rax+0x29], cl ; retn 0x8D48 ; (1 found)
0x4a3a39: add byte [rax+0x29], cl ; retn 0xC148 ; (2 found)
0x4a0dc2: add byte [rax+0x29], cl ; ror byte [rax-0x77], 1 ; retn 0xC148 ; (3 found)
0x4a444c: add byte [rax+0x29], cl ; ror byte [rbp+rcx*4+0x34], 1 ; ret ; (1 found)
0x4a155b: add byte [rax+0x39480000], al ; ret ; (4 found)
0x41613d: add byte [rax+0x39], cl ; ret ; (34 found)
0x4673f4: add byte [rax+0x39], cl ; retn 0x0F48 ; (1 found)
0x45fb3c: add byte [rax+0x39], cl ; retn 0x1E74 ; (1 found)
0x46f70f: add byte [rax+0x39], cl ; retn 0x3676 ; (2 found)
0x429d05: add byte [rax+0x39], cl ; retn 0x3D74 ; (1 found)
0x41f6c7: add byte [rax+0x39], cl ; retn 0x850F ; (1 found)
0x4a3b64: add byte [rax+0x39], cl ; retn 0xBF77 ; (1 found)
0x42722f: add byte [rax+0x39], cl ; retn 0xEB75 ; (1 found)
0x4245a8: add byte [rax+0x39], cl ; ror byte [rax+0x0F], 1 ; retn 0x8949 ; (1 found)
0x45ffd0: add byte [rax+0x39], cl ; ror byte [rax+0x0F], 1 ; retn 0xC148 ; (1 found)
0x460351: add byte [rax+0x39], cl ; ror byte [rax+0x0F], 1 ; retn 0xCFE9 ; (1 found)
0x415eb4: add byte [rax+0x63], cl ; ret ; (2 found)
0x45cb26: add byte [rax+0x63], cl ; retn 0x8941 ; (2 found)
0x473ca8: add byte [rax+0x63], cl ; retn 0x8948 ; (1 found)
0x45ca99: add byte [rax+0x63], cl ; retn 0xD789 ; (1 found)
0x449f2f: add byte [rax+0x74C08402], cl ; adc cl, byte [rax-0x01] ; retn 0x2288 ; (2 found)
0x4afd6f: add byte [rax+rcx*4+0x4D], al ; ret ; (1 found)
0x41d8ef: add byte [rax-0x00000001], bh ; pop rbp ; ret ; (1 found)
0x41e6ef: add byte [rax-0x00000001], bh ; ret ; (11 found)
0x4852f3: add byte [rax-0x00013B43], al ; jmp qword [rsi+0x0F] ; (1 found)
0x48bd3f: add byte [rax-0x0008E343], al ; jmp qword [rax] ; (1 found)
0x416741: add byte [rax-0x007F], cl ; ret ; (3 found)
0x42ffc5: add byte [rax-0x007F], cl ; retn 0x0080 ; (76 found)
0x475628: add byte [rax-0x007F], cl ; retn 0x0200 ; (1 found)
0x47cd4f: add byte [rax-0x007F], cl ; sti ; retn 0xFFBF ; (1 found)
0x4ba553: add byte [rax-0x0080], al ; call qword [rcx] ; (1 found)
0x4ac492: add byte [rax-0x03], 0xFF ; dec  [rax+0x39] ; ret ; (2 found)
0x46173e: add byte [rax-0x05E1F00D], dl ; mov eax, 0x0000000A ; syscall ; (1 found)
0x46176e: add byte [rax-0x05E1F00D], dl ; mov eax, 0x0000001C ; syscall ; (1 found)
0x46355e: add byte [rax-0x05E1F00D], dl ; mov eax, 0x00000032 ; syscall ; (1 found)
0x460b0e: add byte [rax-0x05E1F00D], dl ; mov eax, 0x00000050 ; syscall ; (1 found)
0x4a194e: add byte [rax-0x05E1F00D], dl ; mov eax, 0x00000066 ; syscall ; (1 found)
0x4a19be: add byte [rax-0x05E1F00D], dl ; mov eax, 0x00000090 ; syscall ; (1 found)
0x4a19ee: add byte [rax-0x05E1F00D], dl ; mov eax, 0x00000091 ; syscall ; (1 found)
0x4a1a1e: add byte [rax-0x05E1F00D], dl ; mov eax, 0x00000092 ; syscall ; (1 found)
0x4a1a4e: add byte [rax-0x05E1F00D], dl ; mov eax, 0x00000093 ; syscall ; (1 found)
0x4163ea: add byte [rax-0x39], cl ; ret ; (21 found)
0x4b40b5: add byte [rax-0x39], cl ; retn 0x0990 ; (1 found)
0x40b85e: add byte [rax-0x39], cl ; retn 0xFFA0 ; (47 found)
0x4891ba: add byte [rax-0x39], cl ; retn 0xFFE0 ; (1 found)
0x41c853: add byte [rax-0x39], cl ; retn 0xFFFF ; (6 found)
0x410313: add byte [rax-0x39], cl ; shl byte [rax+0x48FFFFFF], 0xC7 ; retn 0xFFFE ; (1 found)
0x49491f: add byte [rax-0x3F7CB7F8], cl ; add  [rax-0x7D], ecx ; ret ; (1 found)
0x40c652: add byte [rax-0x3F], cl ; retn 0x0F11 ; (1 found)
0x4724f3: add byte [rax-0x3F], cl ; retn 0x4811 ; (2 found)
0x472ea4: add byte [rax-0x3F], cl ; retn 0x4911 ; (1 found)
0x472e7b: add byte [rax-0x3F], cl ; retn 0x6411 ; (1 found)
0x458199: add byte [rax-0x468AFB1B], al ; ret ; (2 found)
0x4785ad: add byte [rax-0x48], cl ; retn 0xFFFF ; (1 found)
0x463ac9: add byte [rax-0x73], cl ; add eax, 0x00096117 ; ret ; (1 found)
0x41b1bc: add byte [rax-0x73], cl ; jmp qword [r14+0x48] ; (1 found)
0x44e3af: add byte [rax-0x73], cl ; push cs ; ret ; (1 found)
0x46574f: add byte [rax-0x75], cl ; adc byte [rax-0x7D], cl ; retn 0x4810 ; (1 found)
0x4ba39f: add byte [rax-0x75], cl ; adc ecx,  [rax+0x63] ; retn 0xBC80 ; (1 found)
0x41ad57: add byte [rax-0x75], cl ; add al, 0xF8 ; ret ; (1 found)
0x49deaf: add byte [rax-0x75], cl ; add eax, 0x0005C019 ; ret ; (1 found)
0x49de9f: add byte [rax-0x75], cl ; add eax, 0x0005C021 ; ret ; (1 found)
0x49de8f: add byte [rax-0x75], cl ; add eax, 0x0005C029 ; ret ; (1 found)
0x49de7f: add byte [rax-0x75], cl ; add eax, 0x0005C031 ; ret ; (1 found)
0x49de6f: add byte [rax-0x75], cl ; add eax, 0x0005C039 ; ret ; (1 found)
0x49de5f: add byte [rax-0x75], cl ; add eax, 0x0005C041 ; ret ; (1 found)
0x49de4f: add byte [rax-0x75], cl ; add eax, 0x0005C049 ; ret ; (1 found)
0x49de3f: add byte [rax-0x75], cl ; add eax, 0x0005C051 ; ret ; (1 found)
0x49de2f: add byte [rax-0x75], cl ; add eax, 0x0005C059 ; ret ; (1 found)
0x49de1f: add byte [rax-0x75], cl ; add eax, 0x0005C061 ; ret ; (1 found)
0x49de06: add byte [rax-0x75], cl ; add eax, 0x0005C0C9 ; ret ; (2 found)
0x4a3702: add byte [rax-0x75], cl ; or byte [r8-0x7D], cl ; ret ; (1 found)
0x465887: add byte [rax-0x75], cl ; or byte [rax-0x7D], cl ; retn 0x4110 ; (4 found)
0x46585f: add byte [rax-0x75], cl ; or byte [rax-0x7D], cl ; retn 0xBD10 ; (1 found)
0x465976: add byte [rax-0x75], cl ; or byte [rax-0x7D], cl ; retn 0xC610 ; (4 found)
0x405e19: add byte [rax-0x75], cl ; pop rsp ; ret ; (1 found)
0x42313e: add byte [rax-0x75], cl ; push 0x75C08548 ; lock ret ; (1 found)
0x4bdc99: add byte [rax-0x75], cl ; ret ; (1 found)
0x414fc4: add byte [rax-0x75], cl ; test  [rax-0x7C000005], edx ; retn 0x4830 ; (1 found)
0x4bf784: add byte [rax-0x75], cl ; xor al, ch ; ret ; (1 found)
0x406b3d: add byte [rax-0x76B7BCC8], al ; ret ; (1 found)
0x425bc1: add byte [rax-0x77], cl ; add eax, 0x000CCCA7 ; ret ; (1 found)
0x425ba1: add byte [rax-0x77], cl ; add eax, 0x000CCCBF ; ret ; (1 found)
0x425b81: add byte [rax-0x77], cl ; add eax, 0x000CCCD7 ; ret ; (1 found)
0x464866: add byte [rax-0x77], cl ; fistp qword [rax+0x0000014E] ; syscall ; (1 found)
0x405a78: add byte [rax-0x77], cl ; mov qword [rsi+0x10], rsi ; syscall ; (1 found)
0x41bfac: add byte [rax-0x77], cl ; out dx, eax ; call qword [rbx+0x00000080] ; (3 found)
0x404ff2: add byte [rax-0x77], cl ; ret ; (28 found)
0x4af321: add byte [rax-0x77], cl ; retn 0x0D8B ; (1 found)
0x47848c: add byte [rax-0x77], cl ; retn 0x0F4D ; (3 found)
0x4168dd: add byte [rax-0x77], cl ; retn 0x2548 ; (3 found)
0x4ae994: add byte [rax-0x77], cl ; retn 0x2944 ; (1 found)
0x4163f8: add byte [rax-0x77], cl ; retn 0x2949 ; (2 found)
0x41cb15: add byte [rax-0x77], cl ; retn 0x294C ; (6 found)
0x4a6ec0: add byte [rax-0x77], cl ; retn 0x314C ; (1 found)
0x45c5c7: add byte [rax-0x77], cl ; retn 0x3AE9 ; (1 found)
0x4a92c1: add byte [rax-0x77], cl ; retn 0x56E8 ; (1 found)
0x42047c: add byte [rax-0x77], cl ; retn 0x8148 ; (2 found)
0x464b7e: add byte [rax-0x77], cl ; retn 0x8348 ; (8 found)
0x48bcaf: add byte [rax-0x77], cl ; retn 0x8349 ; (1 found)
0x45b66f: add byte [rax-0x77], cl ; retn 0x850F ; (1 found)
0x41b5cf: add byte [rax-0x77], cl ; retn 0x8945 ; (1 found)
0x472484: add byte [rax-0x77], cl ; retn 0x8948 ; (5 found)
0x4b76b6: add byte [rax-0x77], cl ; retn 0x8949 ; (1 found)
0x40ec65: add byte [rax-0x77], cl ; retn 0x8B48 ; (4 found)
0x402106: add byte [rax-0x77], cl ; retn 0x8D48 ; (1 found)
0x428a94: add byte [rax-0x77], cl ; retn 0x8D4C ; (1 found)
0x424b2a: add byte [rax-0x77], cl ; retn 0xC148 ; (13 found)
0x493eff: add byte [rax-0x77], cl ; retn 0xD148 ; (1 found)
0x4653bd: add byte [rax-0x77], cl ; retn 0xFF85 ; (1 found)
0x420d23: add byte [rax-0x77], cl ; retn 0xFFB8 ; (1 found)
0x402a57: add byte [rax-0x77], cl ; ror  [rax+0x29], cl ; ret ; (1 found)
0x49111e: add byte [rax-0x7B], cl ; push qword [rbp+rax-0x0A] ; retn 0x7408 ; (1 found)
0x42afd2: add byte [rax-0x7B], cl ; retn 0x840F ; (1 found)
0x47afbf: add byte [rax-0x7B], cl ; ror byte [rdi], 0x84 ; ret ; (1 found)
0x48d76b: add byte [rax-0x7B], cl ; ror byte [rdi], 0x84 ; retn 0x0012 ; (1 found)
0x463f0a: add byte [rax-0x7B], cl ; ror byte [rdi], 0x94 ; ret ; (1 found)
0x45f568: add byte [rax-0x7B], cl ; sal byte [rcx+rbx*2+0x48], 0x89 ; retn 0x8348 ; (1 found)
0x4a845f: add byte [rax-0x7B], cl ; sal byte [rdi+rbp*8+0x31], 0xC0 ; ret ; (1 found)
0x4ab123: add byte [rax-0x7B], cl ; test byte [rax-0x73], 0x05 ; retn 0x01C8 ; (1 found)
0x407027: add byte [rax-0x7D], cl ; ret ; (48 found)
0x428f57: add byte [rax-0x7D], cl ; retn 0x0110 ; (1 found)
0x459c09: add byte [rax-0x7D], cl ; retn 0x0F01 ; (3 found)
0x44fc0f: add byte [rax-0x7D], cl ; retn 0x3A01 ; (2 found)
0x40f62d: add byte [rax-0x7D], cl ; retn 0x3C01 ; (1 found)
0x45832f: add byte [rax-0x7D], cl ; retn 0x4001 ; (1 found)
0x47d2df: add byte [rax-0x7D], cl ; retn 0x4101 ; (1 found)
0x457977: add byte [rax-0x7D], cl ; retn 0x4501 ; (1 found)
0x45eb7f: add byte [rax-0x7D], cl ; retn 0x4801 ; (4 found)
0x4b198f: add byte [rax-0x7D], cl ; retn 0x4808 ; (1 found)
0x45856f: add byte [rax-0x7D], cl ; retn 0x4817 ; (1 found)
0x4698f6: add byte [rax-0x7D], cl ; retn 0x4901 ; (1 found)
0x433489: add byte [rax-0x7D], cl ; retn 0x4910 ; (75 found)
0x48f69e: add byte [rax-0x7D], cl ; retn 0x8904 ; (1 found)
0x48fa16: add byte [rax-0x7D], cl ; retn 0x8908 ; (1 found)
0x4299a6: add byte [rax-0x7D], cl ; retn 0xB817 ; (1 found)
0x40989c: add byte [rax-0x7D], cl ; retn 0xC602 ; (1 found)
0x40921b: add byte [rax-0x7D], cl ; retn 0xE801 ; (1 found)
0x4943b8: add byte [rax-0x7D], cl ; retn 0xE901 ; (2 found)
0x4456e3: add byte [rax-0x7D], cl ; retn 0xE910 ; (59 found)
0x4334b7: add byte [rax-0x7D], cl ; retn 0xEB10 ; (15 found)
0x42ea4f: add byte [rax-0x7D], cl ; rol byte [rax+0x48], 0x83 ; retn 0x4840 ; (1 found)
0x44959e: add byte [rax-0x7D], cl ; rol byte [rax+0x49], 0x39 ; retn 0x2774 ; (4 found)
0x4720ad: add byte [rax-0x7D], cl ; rol byte [rax+rcx*2], 0x83 ; ret ; (1 found)
0x4af7b5: add byte [rax-0x7D], cl ; ror  [rax], 0xFFFFFF83 ; retn 0x8001 ; (1 found)
0x424be0: add byte [rax], 0x00 ; add byte [rax+0x000000CA], bh ; syscall ; (1 found)
0x46c3b5: add byte [rax], 0x00 ; add byte [rax+0x39], cl ; ret ; (3 found)
0x42ffc2: add byte [rax], 0x00 ; add byte [rax-0x007F], cl ; retn 0x0080 ; (6 found)
0x420d20: add byte [rax], 0x00 ; add byte [rax-0x77], cl ; retn 0xFFB8 ; (1 found)
0x40c433: add byte [rax], 0x00 ; add byte [rax], al ; call qword [rbx] ; (2 found)
0x425ccb: add byte [rax], 0x00 ; add byte [rax], al ; ret ; (5 found)
0x4ac4d3: add byte [rax], 0x00 ; add byte [rcx+rcx*4-0x38], al ; syscall ; (2 found)
0x47bee6: add byte [rax], 0x00 ; add cl, ch ; retn 0xFFEE ; (1 found)
0x4ac3b1: add byte [rax], 0x03 ; add byte [rax], al ; ret ; (1 found)
0x404d60: add byte [rax], al ; adc byte [rdi+rsi-0x09], dh ; retn 0x0000 ; (1 found)
0x45f725: add byte [rax], al ; add  [rax-0x7D], ecx ; retn 0x4908 ; (1 found)
0x4a8c59: add byte [rax], al ; add al, ch ; call qword [rax] ; (1 found)
0x46d785: add byte [rax], al ; add al, ch ; ret ; (1 found)
0x419216: add byte [rax], al ; add al, ch ; retn 0x06AF ; (1 found)
0x4a606f: add byte [rax], al ; add bh, dh ; ret ; (1 found)
0x41e5c2: add byte [rax], al ; add bl, ch ; retn 0x44E8 ; (1 found)
0x4ae774: add byte [rax], al ; add byte [rax+0x00000001], bh ; ret ; (2 found)
0x4ae8d0: add byte [rax], al ; add byte [rax+0x00000002], bh ; ret ; (1 found)
0x4759a9: add byte [rax], al ; add byte [rax+0x0000000D], bh ; syscall ; (1 found)
0x424ebb: add byte [rax], al ; add byte [rax+0x0000000E], bh ; syscall ; (2 found)
0x46132f: add byte [rax], al ; add byte [rax+0x00000048], bh ; syscall ; (2 found)
0x424be1: add byte [rax], al ; add byte [rax+0x000000CA], bh ; syscall ; (5 found)
0x45e8e5: add byte [rax], al ; add byte [rax+0x000000E4], bh ; syscall ; (1 found)
0x4a1425: add byte [rax], al ; add byte [rax+0x000000E6], bh ; syscall ; (2 found)
0x44e2ec: add byte [rax], al ; add byte [rax+0x01478D48], dl ; ret ; (1 found)
0x44d98d: add byte [rax], al ; add byte [rax+0x078D4837], cl ; ret ; (1 found)
0x4297be: add byte [rax], al ; add byte [rax+0x09], cl ; ret ; (1 found)
0x40c9e1: add byte [rax], al ; add byte [rax+0x0F48C985], al ; retn 0x13EB ; (1 found)
0x4a4b19: add byte [rax], al ; add byte [rax+0x0F], cl ; retn 0x3145 ; (1 found)
0x4af0c6: add byte [rax], al ; add byte [rax+0x0F], cl ; retn 0x66C3 ; (1 found)
0x425aff: add byte [rax], al ; add byte [rax+0x0F], cl ; retn 0x8948 ; (4 found)
0x4ae292: add byte [rax], al ; add byte [rax+0x0F], cl ; retn 0x8D48 ; (1 found)
0x489b6a: add byte [rax], al ; add byte [rax+0x29], cl ; ret ; (1 found)
0x4a1120: add byte [rax], al ; add byte [rax+0x29], cl ; retn 0x0348 ; (2 found)
0x4a3bd6: add byte [rax], al ; add byte [rax+0x29], cl ; retn 0x8B4C ; (1 found)
0x4a76f5: add byte [rax], al ; add byte [rax+0x29], cl ; retn 0x8D48 ; (1 found)
0x4a3a37: add byte [rax], al ; add byte [rax+0x29], cl ; retn 0xC148 ; (2 found)
0x46c3b6: add byte [rax], al ; add byte [rax+0x39], cl ; ret ; (3 found)
0x45fb3a: add byte [rax], al ; add byte [rax+0x39], cl ; retn 0x1E74 ; (1 found)
0x470f2b: add byte [rax], al ; add byte [rax+0x39], cl ; retn 0x3676 ; (1 found)
0x429d03: add byte [rax], al ; add byte [rax+0x39], cl ; retn 0x3D74 ; (1 found)
0x473ca6: add byte [rax], al ; add byte [rax+0x63], cl ; retn 0x8948 ; (1 found)
0x41e6ed: add byte [rax], al ; add byte [rax-0x00000001], bh ; ret ; (9 found)
0x48bd3d: add byte [rax], al ; add byte [rax-0x0008E343], al ; jmp qword [rax] ; (1 found)
0x464843: add byte [rax], al ; add byte [rax-0x007F], cl ; ret ; (1 found)
0x42ffc3: add byte [rax], al ; add byte [rax-0x007F], cl ; retn 0x0080 ; (10 found)
0x4163e8: add byte [rax], al ; add byte [rax-0x39], cl ; ret ; (10 found)
0x45f87d: add byte [rax], al ; add byte [rax-0x39], cl ; retn 0xFFA0 ; (12 found)
0x42c6c4: add byte [rax], al ; add byte [rax-0x39], cl ; retn 0xFFFF ; (3 found)
0x40c650: add byte [rax], al ; add byte [rax-0x3F], cl ; retn 0x0F11 ; (1 found)
0x4724f1: add byte [rax], al ; add byte [rax-0x3F], cl ; retn 0x4811 ; (2 found)
0x472ea2: add byte [rax], al ; add byte [rax-0x3F], cl ; retn 0x4911 ; (1 found)
0x472e79: add byte [rax], al ; add byte [rax-0x3F], cl ; retn 0x6411 ; (1 found)
0x404ff0: add byte [rax], al ; add byte [rax-0x77], cl ; ret ; (14 found)
0x47848a: add byte [rax], al ; add byte [rax-0x77], cl ; retn 0x0F4D ; (3 found)
0x4168db: add byte [rax], al ; add byte [rax-0x77], cl ; retn 0x2548 ; (3 found)
0x4ae992: add byte [rax], al ; add byte [rax-0x77], cl ; retn 0x2944 ; (1 found)
0x41cb13: add byte [rax], al ; add byte [rax-0x77], cl ; retn 0x294C ; (4 found)
0x45c5c5: add byte [rax], al ; add byte [rax-0x77], cl ; retn 0x3AE9 ; (1 found)
0x4a92bf: add byte [rax], al ; add byte [rax-0x77], cl ; retn 0x56E8 ; (1 found)
0x42047a: add byte [rax], al ; add byte [rax-0x77], cl ; retn 0x8148 ; (2 found)
0x4650cd: add byte [rax], al ; add byte [rax-0x77], cl ; retn 0x8348 ; (5 found)
0x4a886d: add byte [rax], al ; add byte [rax-0x77], cl ; retn 0x8B48 ; (1 found)
0x4b0ecd: add byte [rax], al ; add byte [rax-0x77], cl ; retn 0xC148 ; (1 found)
0x420d21: add byte [rax], al ; add byte [rax-0x77], cl ; retn 0xFFB8 ; (1 found)
0x40cb3a: add byte [rax], al ; add byte [rax-0x7D], cl ; ret ; (17 found)
0x428f55: add byte [rax], al ; add byte [rax-0x7D], cl ; retn 0x0110 ; (1 found)
0x459c07: add byte [rax], al ; add byte [rax-0x7D], cl ; retn 0x0F01 ; (1 found)
0x44fc0d: add byte [rax], al ; add byte [rax-0x7D], cl ; retn 0x3A01 ; (1 found)
0x45832d: add byte [rax], al ; add byte [rax-0x7D], cl ; retn 0x4001 ; (1 found)
0x47d2dd: add byte [rax], al ; add byte [rax-0x7D], cl ; retn 0x4101 ; (1 found)
0x457975: add byte [rax], al ; add byte [rax-0x7D], cl ; retn 0x4501 ; (1 found)
0x45fb2d: add byte [rax], al ; add byte [rax-0x7D], cl ; retn 0x4801 ; (2 found)
0x4b198d: add byte [rax], al ; add byte [rax-0x7D], cl ; retn 0x4808 ; (1 found)
0x45856d: add byte [rax], al ; add byte [rax-0x7D], cl ; retn 0x4817 ; (1 found)
0x4341a3: add byte [rax], al ; add byte [rax-0x7D], cl ; retn 0x4910 ; (3 found)
0x40989a: add byte [rax], al ; add byte [rax-0x7D], cl ; retn 0xC602 ; (1 found)
0x409219: add byte [rax], al ; add byte [rax-0x7D], cl ; retn 0xE801 ; (1 found)
0x446da1: add byte [rax], al ; add byte [rax-0x7D], cl ; retn 0xE910 ; (3 found)
0x4341cd: add byte [rax], al ; add byte [rax-0x7D], cl ; retn 0xEB10 ; (1 found)
0x4049dc: add byte [rax], al ; add byte [rax], al ; call qword [rbx+0x10] ; (1 found)
0x40c434: add byte [rax], al ; add byte [rax], al ; call qword [rbx] ; (2 found)
0x405be0: add byte [rax], al ; add byte [rax], al ; ret ; (28 found)
0x45ad9a: add byte [rax], al ; add byte [rbp+0x29], al ; ret ; (1 found)
0x45ab23: add byte [rax], al ; add byte [rbp+0x29], al ; retn 0x2944 ; (1 found)
0x459acd: add byte [rax], al ; add byte [rbp+0x39], al ; ret ; (1 found)
0x41f46d: add byte [rax], al ; add byte [rbp+0x4F0F48C9], al ; retn 0x8948 ; (2 found)
0x462f5c: add byte [rax], al ; add byte [rbp-0x3DBBF040], al ; ret ; (1 found)
0x4038a7: add byte [rax], al ; add byte [rbp-0x77], cl ; ret ; (1 found)
0x41ba20: add byte [rax], al ; add byte [rbx+0x5D], bl ; ret ; (8 found)
0x48eee3: add byte [rax], al ; add byte [rbx-0x7CB7FBB5], cl ; ret ; (1 found)
0x449d21: add byte [rax], al ; add byte [rbx-0x7CF0FB06], al ; ret ; (3 found)
0x41cb47: add byte [rax], al ; add byte [rcx+0x01], cl ; ret ; (2 found)
0x46f019: add byte [rax], al ; add byte [rcx+0x3948FC51], cl ; ret ; (1 found)
0x41d4ae: add byte [rax], al ; add byte [rcx+rcx*4-0x01], cl ; call qword [r13+0x00000080] ; (1 found)
0x41d69c: add byte [rax], al ; add byte [rcx+rcx*4-0x01], cl ; call qword [rbp+0x00000080] ; (1 found)
0x4bea8c: add byte [rax], al ; add byte [rcx+rcx*4-0x09], cl ; call rbp ; (2 found)
0x41ead2: add byte [rax], al ; add byte [rcx+rcx*4-0x38], al ; syscall ; (4 found)
0x4b506d: add byte [rax], al ; add byte [rcx+rcx*4-0x40], cl ; ret ; (1 found)
0x434b44: add byte [rax], al ; add byte [rcx-0x09], cl ; retn 0x0001 ; (1 found)
0x434b6a: add byte [rax], al ; add byte [rcx-0x09], cl ; retn 0x0002 ; (1 found)
0x46decb: add byte [rax], al ; add byte [rcx-0x0A], al ; retn 0x7501 ; (1 found)
0x46c779: add byte [rax], al ; add byte [rcx-0x77], al ; ret ; (3 found)
0x49424d: add byte [rax], al ; add byte [rcx-0x77], cl ; retn 0x8948 ; (1 found)
0x42d6ad: add byte [rax], al ; add byte [rcx-0x7D], cl ; retn 0x0F10 ; (73 found)
0x42edad: add byte [rax], al ; add byte [rcx-0x7D], cl ; retn 0x7F10 ; (15 found)
0x459a74: add byte [rax], al ; add byte [rcx], ch ; ret ; (1 found)
0x45daad: add byte [rax], al ; add byte [rcx], ch ; retn 0xD729 ; (1 found)
0x4096aa: add byte [rax], al ; add byte [rcx], dh ; call qword [rax+0x480AB60F] ; (1 found)
0x4bb66f: add byte [rax], al ; add byte [rdi+0x00000001], bh ; call rax ; (4 found)
0x42a4d0: add byte [rax], al ; add byte [rdi+rcx+0x46], cl ; retn 0x02A8 ; (1 found)
0x4937d6: add byte [rax], al ; add byte [rdi], cl ; retn 0x8B48 ; (1 found)
0x4188ef: add byte [rax], al ; add byte [rdi], cl ; retn 0xC085 ; (2 found)
0x45cc17: add byte [rax], al ; add byte [rdi], cl ; retn 0xC801 ; (1 found)
0x425aea: add byte [rax], al ; add byte [rsi+0x01], dh ; ret ; (1 found)
0x45d0cd: add byte [rax], al ; add byte [rsi+0x0F], bl ; retn 0x2949 ; (1 found)
0x49122d: add byte [rax], al ; add byte [rsi-0x00000001], bh ; call qword [rax+0x18] ; (1 found)
0x423910: add byte [rax], al ; add cl, ch ; ret ; (2 found)
0x47bee7: add byte [rax], al ; add cl, ch ; retn 0xFFEE ; (1 found)
0x417496: add byte [rax], al ; add cl, ch ; retn 0xFFFC ; (2 found)
0x484ba5: add byte [rax], al ; add dh, dh ; retn 0x0F01 ; (1 found)
0x465ddf: add byte [rax], al ; add dh, dh ; retn 0x7404 ; (2 found)
0x44f5a1: add byte [rax], al ; add dh, dh ; retn 0x7501 ; (2 found)
0x425524: add byte [rax], al ; add dh, dh ; retn 0x7502 ; (1 found)
0x49ef4e: add byte [rax], al ; add rax, 0x03 ; ret ; (1 found)
0x4057ac: add byte [rax], al ; add rsp, 0x0000000000000098 ; ret ; (1 found)
0x40b952: add byte [rax], al ; add rsp, 0x08 ; ret ; (5 found)
0x4609aa: add byte [rax], al ; add rsp, 0x68 ; ret ; (2 found)
0x460714: add byte [rax], al ; add rsp, 0x78 ; ret ; (1 found)
0x449500: add byte [rax], al ; bsf rax, rdx ; ret ; (1 found)
0x4258e4: add byte [rax], al ; call 0x00000000 ; (2 found)
0x42045d: add byte [rax], al ; call qword [rax+0x00000080] ; (1 found)
0x4910f9: add byte [rax], al ; call qword [rax+0x68] ; (1 found)
0x4049de: add byte [rax], al ; call qword [rbx+0x10] ; (1 found)
0x40c436: add byte [rax], al ; call qword [rbx] ; (2 found)
0x4617df: add byte [rax], al ; call r12 ; (5 found)
0x40c3c1: add byte [rax], al ; call r15 ; (2 found)
0x4bb538: add byte [rax], al ; call rax ; (5 found)
0x42d479: add byte [rax], al ; cmove rax, rdx ; ret ; (6 found)
0x42c2e9: add byte [rax], al ; cmovne rax, rdx ; ret ; (8 found)
0x401a8e: add byte [rax], al ; endbr64 ; ret ; (2 found)
0x4bc2a3: add byte [rax], al ; jmp rax ; (1 found)
0x48d078: add byte [rax], al ; jmp rdx ; (2 found)
0x44e2fe: add byte [rax], al ; lea rax, qword [rdi+0x02] ; ret ; (1 found)
0x44e30e: add byte [rax], al ; lea rax, qword [rdi+0x03] ; ret ; (1 found)
0x44e31e: add byte [rax], al ; lea rax, qword [rdi+0x04] ; ret ; (1 found)
0x44e32e: add byte [rax], al ; lea rax, qword [rdi+0x05] ; ret ; (1 found)
0x44e33e: add byte [rax], al ; lea rax, qword [rdi+0x06] ; ret ; (1 found)
0x44e27a: add byte [rax], al ; lea rax, qword [rdi+0x07] ; ret ; (1 found)
0x44e34e: add byte [rax], al ; lea rax, qword [rdi+0x08] ; ret ; (1 found)
0x44e35e: add byte [rax], al ; lea rax, qword [rdi+0x09] ; ret ; (1 found)
0x44e36e: add byte [rax], al ; lea rax, qword [rdi+0x0A] ; ret ; (1 found)
0x44e37e: add byte [rax], al ; lea rax, qword [rdi+0x0B] ; ret ; (1 found)
0x44e38e: add byte [rax], al ; lea rax, qword [rdi+0x0C] ; ret ; (1 found)
0x44e39e: add byte [rax], al ; lea rax, qword [rdi+0x0D] ; ret ; (1 found)
0x44e3ae: add byte [rax], al ; lea rax, qword [rdi+0x0E] ; ret ; (1 found)
0x44e2cd: add byte [rax], al ; lea rax, qword [rdi+0x0F] ; ret ; (1 found)
0x425be0: add byte [rax], al ; mov  [0x00000000004F28A0], eax ; ret ; (1 found)
0x4b3d96: add byte [rax], al ; mov  [fs:0x00000048], r8d ; ret ; (1 found)
0x4ae860: add byte [rax], al ; mov  [rdx], 0xFFFFC002 ; ret ; (1 found)
0x48d070: add byte [rax], al ; mov  [rsp+0x50], 0x00000020 ; jmp rdx ; (1 found)
0x4920d0: add byte [rax], al ; mov byte [rax+0x00000972], 0x00 ; ret ; (1 found)
0x44d35e: add byte [rax], al ; mov byte [rdi], dh ; ret ; (1 found)
0x418b02: add byte [rax], al ; mov byte [rsp+0x40], 0x20 ; jmp rdx ; (1 found)
0x492f11: add byte [rax], al ; mov eax, 0x00000001 ; ret ; (3 found)
0x4ae8d1: add byte [rax], al ; mov eax, 0x00000002 ; ret ; (1 found)
0x4759aa: add byte [rax], al ; mov eax, 0x0000000D ; syscall ; (1 found)
0x424ebc: add byte [rax], al ; mov eax, 0x0000000E ; syscall ; (2 found)
0x492426: add byte [rax], al ; mov eax, 0x00000016 ; ret ; (1 found)
0x45f82e: add byte [rax], al ; mov eax, 0x00000038 ; syscall ; (1 found)
0x461330: add byte [rax], al ; mov eax, 0x00000048 ; syscall ; (2 found)
0x4048f7: add byte [rax], al ; mov eax, 0x0000009E ; syscall ; (3 found)
0x424f1e: add byte [rax], al ; mov eax, 0x000000BA ; syscall ; (2 found)
0x424be2: add byte [rax], al ; mov eax, 0x000000CA ; syscall ; (5 found)
0x4647d5: add byte [rax], al ; mov eax, 0x000000DA ; syscall ; (1 found)
0x45e8e6: add byte [rax], al ; mov eax, 0x000000E4 ; syscall ; (1 found)
0x4a1426: add byte [rax], al ; mov eax, 0x000000E6 ; syscall ; (2 found)
0x45f869: add byte [rax], al ; mov eax, 0x00000111 ; syscall ; (1 found)
0x41e6ee: add byte [rax], al ; mov eax, 0xFFFFFFFF ; ret ; (11 found)
0x45f8be: add byte [rax], al ; mov eax, edx ; syscall ; (1 found)
0x41ead3: add byte [rax], al ; mov eax, r9d ; syscall ; (4 found)
0x4bb670: add byte [rax], al ; mov edi, 0x00000001 ; call rax ; (4 found)
0x40c316: add byte [rax], al ; mov edi, ebp ; call r15 ; (1 found)
0x49122e: add byte [rax], al ; mov esi, 0xFFFFFFFF ; call qword [rax+0x18] ; (1 found)
0x425b80: add byte [rax], al ; mov qword [0x00000000004F2860], rax ; ret ; (1 found)
0x425ba0: add byte [rax], al ; mov qword [0x00000000004F2868], rax ; ret ; (1 found)
0x425bc0: add byte [rax], al ; mov qword [0x00000000004F2870], rax ; ret ; (1 found)
0x42410d: add byte [rax], al ; mov qword [0x00000000004F5398], 0x0000000000000000 ; ret ; (1 found)
0x424b78: add byte [rax], al ; mov qword [fs:0x000002F8], rdi ; ret ; (1 found)
0x47573d: add byte [rax], al ; mov qword [fs:rdx], rax ; ret ; (1 found)
0x4231ad: add byte [rax], al ; mov qword [rax+0x08], 0x0000000000000000 ; ret ; (1 found)
0x41c208: add byte [rax], al ; mov qword [rdx+0x000000E0], rcx ; ret ; (1 found)
0x4ae788: add byte [rax], al ; mov qword [rsi], rdx ; ret ; (1 found)
0x4a1134: add byte [rax], al ; mov qword [rsp+0x38], rdx ; call r12 ; (2 found)
0x49ef7e: add byte [rax], al ; mov rax, 0x0000000000000002 ; ret ; (1 found)
0x49ef8e: add byte [rax], al ; mov rax, 0x0000000000000003 ; ret ; (1 found)
0x49ef9e: add byte [rax], al ; mov rax, 0x0000000000000004 ; ret ; (1 found)
0x49efae: add byte [rax], al ; mov rax, 0x0000000000000005 ; ret ; (1 found)
0x49efbe: add byte [rax], al ; mov rax, 0x0000000000000006 ; ret ; (1 found)
0x49efce: add byte [rax], al ; mov rax, 0x0000000000000007 ; ret ; (1 found)
0x40b91e: add byte [rax], al ; mov rax, 0xFFFFFFFFFFFFFFFF ; ret ; (4 found)
0x49de1e: add byte [rax], al ; mov rax, qword [0x00000000004F9E88] ; ret ; (1 found)
0x49de2e: add byte [rax], al ; mov rax, qword [0x00000000004F9E90] ; ret ; (1 found)
0x49de3e: add byte [rax], al ; mov rax, qword [0x00000000004F9E98] ; ret ; (1 found)
0x49de4e: add byte [rax], al ; mov rax, qword [0x00000000004F9EA0] ; ret ; (1 found)
0x49de5e: add byte [rax], al ; mov rax, qword [0x00000000004F9EA8] ; ret ; (1 found)
0x49de6e: add byte [rax], al ; mov rax, qword [0x00000000004F9EB0] ; ret ; (1 found)
0x49de7e: add byte [rax], al ; mov rax, qword [0x00000000004F9EB8] ; ret ; (1 found)
0x49de8e: add byte [rax], al ; mov rax, qword [0x00000000004F9EC0] ; ret ; (1 found)
0x49de9e: add byte [rax], al ; mov rax, qword [0x00000000004F9EC8] ; ret ; (1 found)
0x49deae: add byte [rax], al ; mov rax, qword [0x00000000004F9ED0] ; ret ; (1 found)
0x41d8e2: add byte [rax], al ; mov rax, qword [rax+0x20] ; jmp rax ; (1 found)
0x4b506e: add byte [rax], al ; mov rax, r8 ; ret ; (1 found)
0x461971: add byte [rax], al ; mov rdi, qword [r13+0x00] ; call rbx ; (4 found)
0x4916ac: add byte [rax], al ; mov rdi, r13 ; call qword [r14+0x20] ; (1 found)
0x4bea8e: add byte [rax], al ; mov rdi, r14 ; call rbp ; (1 found)
0x41d4af: add byte [rax], al ; mov rdi, r15 ; call qword [r13+0x00000080] ; (1 found)
0x41d69d: add byte [rax], al ; mov rdi, r15 ; call qword [rbp+0x00000080] ; (1 found)
0x41bfab: add byte [rax], al ; mov rdi, rbp ; call qword [rbx+0x00000080] ; (3 found)
0x420e94: add byte [rax], al ; mov rdi, rbx ; call qword [r12+0x00000088] ; (1 found)
0x420c6d: add byte [rax], al ; mov rdi, rbx ; call qword [r12+0x48] ; (1 found)
0x422e3d: add byte [rax], al ; mov rdi, rbx ; call qword [r13+0x60] ; (1 found)
0x41e01a: add byte [rax], al ; mov rdi, rbx ; call qword [rbp+0x00000080] ; (3 found)
0x422bbe: add byte [rax], al ; mov rdi, rbx ; call qword [rbp+0x20] ; (1 found)
0x48f900: add byte [rax], al ; mov rdi, rbx ; call r8 ; (1 found)
0x41b4ff: add byte [rax], al ; mov rdi, rbx ; call rax ; (1 found)
0x48daca: add byte [rax], al ; mov rdx, qword [r8+rdx*8] ; jmp rdx ; (1 found)
0x4ac3ad: add byte [rax], al ; movups  [rax+0x00000300], xmm0 ; ret ; (1 found)
0x49241e: add byte [rax], al ; neg eax ; ret ; (1 found)
0x47487c: add byte [rax], al ; nop ; ret ; (1 found)
0x4049d6: add byte [rax], al ; nop  [rax+rax+0x00000000] ; call qword [rbx+0x10] ; (1 found)
0x404d68: add byte [rax], al ; or byte [rbx+rbx-0x09], dh ; retn 0x0000 ; (1 found)
0x4581f6: add byte [rax], al ; pop rbp ; ret ; (2 found)
0x403659: add byte [rax], al ; pop rbx ; ret ; (9 found)
0x401b46: add byte [rax], al ; ret ; (125 found)
0x450071: add byte [rax], al ; sub rax, rdx ; ret ; (2 found)
0x424ca4: add byte [rax], al ; syscall ; ret ; (7 found)
0x4048fc: add byte [rax], al ; syscall ; (107 found)
0x40b826: add byte [rax], al ; xor eax, eax ; ret ; (24 found)
0x46151e: add byte [rax], al ; xor edi, edi ; syscall ; (1 found)
0x44e11e: add byte [rax], al ; xor rax, rax ; ret ; (2 found)
0x424c48: add byte [rax], al ; xor sil, 0x80 ; syscall ; (1 found)
0x4253dc: add byte [rax], al ; xor sil, 0x81 ; syscall ; (3 found)
0x4ad354: add byte [rax], cl ; add byte [rax+0x0F], cl ; retn 0x8948 ; (1 found)
0x4b94c2: add byte [rax], cl ; mov byte [0x00000000004FA3B0], 0x08 ; ret ; (1 found)
0x4b94c9: add byte [rax], cl ; ret ; (1 found)
0x4a1568: add byte [rax], dl ; add byte [rax+0x39], cl ; ret ; (4 found)
0x4258db: add byte [rax], dl ; mov rdi, qword [fs:0x00000300] ; call 0x00000000 ; (2 found)
0x42401d: add byte [rax], r8L ; endbr64 ; ret ; (1 found)
0x492425: add byte [rax], r8L ; mov eax, 0x00000016 ; ret ; (1 found)
0x424f1d: add byte [rax], r8L ; mov eax, 0x000000BA ; syscall ; (2 found)
0x41f2fd: add byte [rax], r8L ; mov eax, 0xFFFFFFFF ; ret ; (3 found)
0x45f075: add byte [rax], r8L ; pop rbp ; ret ; (1 found)
0x401b45: add byte [rax], r8L ; ret ; (8 found)
0x41e29d: add byte [rax], r8L ; xor eax, eax ; ret ; (6 found)
0x478b8d: add byte [rbp+0x01], al ; dec  [rax-0x7D] ; ret ; (2 found)
0x45a7ee: add byte [rbp+0x01], cl ; retn 0x894C ; (1 found)
0x429bba: add byte [rbp+0x03], dh ; ret ; (1 found)
0x45e8ab: add byte [rbp+0x05], dh ; add rsp, 0x18 ; ret ; (1 found)
0x46169d: add byte [rbp+0x05], dh ; add rsp, 0x28 ; ret ; (2 found)
0x4b4748: add byte [rbp+0x05], dh ; add rsp, 0x38 ; ret ; (4 found)
0x40d619: add byte [rbp+0x08], dh ; add rsp, 0x00000000000000D8 ; ret ; (5 found)
0x40b8e4: add byte [rbp+0x08], dh ; add rsp, 0x0000000000000148 ; ret ; (1 found)
0x47fa4f: add byte [rbp+0x0F], cl ; lodsd ; ret ; (1 found)
0x47f93f: add byte [rbp+0x0F], cl ; movsd ; ret ; (1 found)
0x4616bd: add byte [rbp+0x10], dh ; mov eax, 0x00000009 ; syscall ; (1 found)
0x4604ba: add byte [rbp+0x14], dh ; add rsp, 0x28 ; ret ; (1 found)
0x462cc8: add byte [rbp+0x1A], dh ; add rsp, 0x0000000000001018 ; ret ; (1 found)
0x4adfa8: add byte [rbp+0x28], dh ; add rsp, 0x38 ; ret ; (1 found)
0x45ad9c: add byte [rbp+0x29], al ; ret ; (1 found)
0x45ab25: add byte [rbp+0x29], al ; retn 0x2944 ; (1 found)
0x45adb5: add byte [rbp+0x29], al ; retn 0x8D45 ; (1 found)
0x45a7e4: add byte [rbp+0x29], cl ; retn 0x634C ; (1 found)
0x4adbd2: add byte [rbp+0x29], dh ; add rsp, 0x58 ; ret ; (1 found)
0x4adca4: add byte [rbp+0x2D], dh ; add rsp, 0x58 ; ret ; (2 found)
0x41f62e: add byte [rbp+0x31], al ; dec  [rax+0x39] ; retn 0x860F ; (1 found)
0x4a4c01: add byte [rbp+0x31], al ; jmp qword [rbx+rcx*4+0x00] ; (1 found)
0x46b6cf: add byte [rbp+0x31], al ; ror byte [rax+0x39], cl ; ret ; (1 found)
0x427ff2: add byte [rbp+0x31], al ; ror byte [rax-0x7D], 0x3D ; retn 0x0CA8 ; (1 found)
0x459acf: add byte [rbp+0x39], al ; ret ; (1 found)
0x45f234: add byte [rbp+0x41], bl ; pop rsp ; ret ; (2 found)
0x41febf: add byte [rbp+0x45110FC9], al ; cmp byte [rax+0x0F], cl ; retn 0x110F ; (2 found)
0x463014: add byte [rbp+0x46], dh ; add rsp, 0x58 ; ret ; (1 found)
0x46131a: add byte [rbp+0x46], dh ; add rsp, 0x68 ; ret ; (1 found)
0x4613a9: add byte [rbp+0x47], dh ; add rsp, 0x18 ; ret ; (1 found)
0x4843fb: add byte [rbp+0x47], dh ; add rsp, 0x38 ; ret ; (1 found)
0x461461: add byte [rbp+0x47], dh ; add rsp, 0x58 ; ret ; (1 found)
0x45f2f6: add byte [rbp+0x480575C0], al ; add esp, 0x08 ; ret ; (1 found)
0x475adc: add byte [rbp+0x480F75C0], al ; add esp, 0x08 ; ret ; (1 found)
0x4a1b8f: add byte [rbp+0x49], dh ; add rsp, 0x58 ; ret ; (1 found)
0x41c2c0: add byte [rbp+0x4F0F48C9], al ; retn 0x8948 ; (4 found)
0x417a0e: add byte [rbp+0x57890FC0], al ; idiv edi ; jmp qword [rsi+0x0F] ; (1 found)
0x40b855: add byte [rbp+0x5D0675C0], al ; ret ; (1 found)
0x45ae27: add byte [rbp+0x63], cl ; retn 0x694D ; (1 found)
0x4937ec: add byte [rbp+0x78], dh ; add rsp, 0x0000000000000098 ; ret ; (1 found)
0x480db9: add byte [rbp+0x79], dh ; leave ; ret ; (1 found)
0x4b2396: add byte [rbp+rcx*4+0x3D], cl ; pop rdx ; ret ; (1 found)
0x457ad6: add byte [rbp+rcx*4+0x4C], cl ; and al, 0x18 ; call r13 ; (1 found)
0x4943ef: add byte [rbp+rcx*4+0x58], cl ; dec  [rcx-0x77] ; retn 0x3948 ; (1 found)
0x478194: add byte [rbp+rcx*4+0x6A], al ; inc byte [rbx-0x7BF0FE06] ; ret ; (1 found)
0x429118: add byte [rbp-0x007CFDB9], cl ; add dh, byte [rsp-0x77] ; retn 0xB48B ; (1 found)
0x4290fe: add byte [rbp-0x007CFEB9], cl ; add esi,  [rbp+rdi-0x77] ; retn 0xB48B ; (2 found)
0x4a5bf3: add byte [rbp-0x36], dh ; ret ; (1 found)
0x462d22: add byte [rbp-0x3DBBF040], al ; add rsp, 0x08 ; ret ; (1 found)
0x462f5e: add byte [rbp-0x3DBBF040], al ; ret ; (1 found)
0x42cef7: add byte [rbp-0x5D], dh ; ret ; (1 found)
0x4a7c27: add byte [rbp-0x76B7FEBE], cl ; retn 0x8B49 ; (1 found)
0x4038a9: add byte [rbp-0x77], cl ; ret ; (1 found)
0x4b0cff: add byte [rbp-0x77], cl ; ror byte [rcx-0x7D], 1 ; retn 0x4901 ; (1 found)
0x41f469: add byte [rbx+0x0000C08D], cl ; add byte [rbp+0x4F0F48C9], al ; retn 0x8948 ; (2 found)
0x44d39f: add byte [rbx+0x0477880E], cl ; mov  [rdi], ecx ; ret ; (1 found)
0x4240e5: add byte [rbx+0x057F01F8], al ; ret ; (1 found)
0x424bab: add byte [rbx+0x077401F8], al ; ret ; (1 found)
0x425ce0: add byte [rbx+0x0A7401F8], al ; add rsp, 0x08 ; ret ; (1 found)
0x42d249: add byte [rbx+0x0CCBE40D], cl ; add dh, dh ; retn 0x7420 ; (1 found)
0x42c5af: add byte [rbx+0x0CD77615], cl ; add bh, dh ; retn 0x0000 ; (1 found)
0x42c339: add byte [rbx+0x0CDAF40D], cl ; add dh, dh ; retn 0x7420 ; (1 found)
0x42c2b9: add byte [rbx+0x0CDB740D], cl ; add dh, dh ; retn 0x7420 ; (1 found)
0x403513: add byte [rbx+0x0D890FE2], al ; jmp qword [rdi+0x0F] ; (1 found)
0x45fb57: add byte [rbx+0x137F01F8], al ; pop rbx ; ret ; (1 found)
0x4bee6b: add byte [rbx+0x1F7F01F8], al ; pop rbx ; ret ; (1 found)
0x45af9a: add byte [rbx+0x207F01F8], al ; add rsp, 0x08 ; ret ; (1 found)
0x420bd7: add byte [rbx+0x31], bl ; rcr byte [rbp+0x41], 0x5C ; ret ; (1 found)
0x4af020: add byte [rbx+0x327F01F8], al ; pop rbp ; ret ; (1 found)
0x421c5d: add byte [rbx+0x3D7F01F8], al ; add rsp, 0x08 ; ret ; (1 found)
0x44cece: add byte [rbx+0x48028901], cl ; lea eax,  [rdx+0x03] ; ret ; (2 found)
0x460a9e: add byte [rbx+0x480C2444], cl ; add esp, 0x18 ; ret ; (1 found)
0x4634f2: add byte [rbx+0x480C2444], cl ; add esp, 0x28 ; ret ; (1 found)
0x43d41e: add byte [rbx+0x5789FC56], cl ; cld ; ret ; (4 found)
0x409740: add byte [rbx+0x5D], bl ; pop r12 ; ret ; (8 found)
0x41ba22: add byte [rbx+0x5D], bl ; ret ; (8 found)
0x492fbc: add byte [rbx+0x5E7421F8], al ; mov eax, 0x00000016 ; ret ; (1 found)
0x467245: add byte [rbx+rbx*2], cl ; ret ; (1 found)
0x40ca34: add byte [rbx+rcx*4+0x04], cl ; retn 0x8840 ; (1 found)
0x40cb0c: add byte [rbx+rcx*4+0x04], cl ; retn 0x8D48 ; (1 found)
0x40c90d: add byte [rbx+rcx*4+0x15], cl ; ret ; (1 found)
0x4ae0b7: add byte [rbx+rcx*4+0x57], cl ; or byte [rcx+0x01], cl ; retn 0x894C ; (1 found)
0x480fc7: add byte [rbx+rcx*4+0x57], cl ; or byte [rcx+0x29], cl ; retn 0x894C ; (1 found)
0x46229a: add byte [rbx+rcx*4+0x5E], cl ; or byte [rcx-0x0A], al ; ret ; (1 found)
0x40c1b7: add byte [rbx+rcx*4+0x63], cl ; or byte [rax-0x7D], cl ; ret ; (2 found)
0x47680f: add byte [rbx+rcx*4+0x7B], cl ; or byte [rax-0x7D], cl ; ret ; (1 found)
0x4115ff: add byte [rbx-0x0005A76B], cl ; inc  [rbx-0x78F0D006] ; ret ; (1 found)
0x410f03: add byte [rbx-0x00066773], cl ; dec  [rax-0x7D] ; ret ; (1 found)
0x491507: add byte [rbx-0x3B7CB7FE], cl ; or byte [rbx+0x5D], bl ; ret ; (1 found)
0x49374b: add byte [rbx-0x3D], bl ; nop ; ret ; (1 found)
0x403c94: add byte [rbx-0x50F0FE3E], al ; retn 0xEBE9 ; (1 found)
0x4b72b4: add byte [rbx-0x70F08B06], al ; retn 0x0006 ; (1 found)
0x48e8d7: add byte [rbx-0x78F0D008], al ; mov ecx, 0x89000007 ; retn 0xC083 ; (1 found)
0x403862: add byte [rbx-0x7A07DBA4], cl ; test byte [rdi], 0x9F ; retn 0xC031 ; (1 found)
0x44f746: add byte [rbx-0x7BF0ED07], al ; retn 0x0002 ; (1 found)
0x40a286: add byte [rbx-0x7BF0FE08], al ; retn 0x0002 ; (1 found)
0x48de37: add byte [rbx-0x7CB7F7A6], cl ; retn 0x8D08 ; (1 found)
0x465926: add byte [rbx-0x7CB7F7BE], cl ; retn 0x4110 ; (2 found)
0x4658d6: add byte [rbx-0x7CB7F7BE], cl ; retn 0xBB10 ; (2 found)
0x48eee5: add byte [rbx-0x7CB7FBB5], cl ; ret ; (1 found)
0x48952e: add byte [rbx-0x7CB7FBBD], cl ; ret ; (2 found)
0x4014ab: add byte [rbx-0x7CB7FD12], al ; retn 0x4810 ; (5 found)
0x404116: add byte [rbx-0x7CBEFE3A], al ; ret ; (1 found)
0x449d23: add byte [rbx-0x7CF0FB06], al ; ret ; (3 found)
0x4258e2: add byte [rbx], al ; add byte [rax], al ; call 0x00000000 ; (2 found)
0x4ac3b2: add byte [rbx], al ; add byte [rax], al ; ret ; (1 found)
0x4671b5: add byte [rbx], al ; pop rbx ; ret ; (1 found)
0x41cb49: add byte [rcx+0x01], cl ; ret ; (2 found)
0x45a7de: add byte [rcx+0x09ED0305], cl ; add byte [rbp+0x29], cl ; retn 0x634C ; (1 found)
0x487942: add byte [rcx+0x21], cl ; ret ; (1 found)
0x4b2621: add byte [rcx+0x248B4CE8], cl ; retn 0x0F41 ; (1 found)
0x45cb17: add byte [rcx+0x29], al ; retn 0x8944 ; (1 found)
0x41d6cf: add byte [rcx+0x2B], cl ; adc byte [r8+0x01], r9L ; ret ; (1 found)
0x46f01b: add byte [rcx+0x3948FC51], cl ; ret ; (1 found)
0x46f3b1: add byte [rcx+0x3948FC56], cl ; ret ; (1 found)
0x4495cf: add byte [rcx+0x39], cl ; ret ; (3 found)
0x4a9d29: add byte [rcx+rcx*4+0x0D], cl ; syscall ; (1 found)
0x41d4b0: add byte [rcx+rcx*4-0x01], cl ; call qword [r13+0x00000080] ; (1 found)
0x41d69e: add byte [rcx+rcx*4-0x01], cl ; call qword [rbp+0x00000080] ; (1 found)
0x490ee7: add byte [rcx+rcx*4-0x02], al ; mov rdi, rbp ; call qword [r14+0x18] ; (1 found)
0x4bea8f: add byte [rcx+rcx*4-0x09], cl ; call rbp ; (1 found)
0x424fd8: add byte [rcx+rcx*4-0x0E], cl ; lea rsi, qword [0x00000000004C42A0] ; syscall ; (1 found)
0x4916ad: add byte [rcx+rcx*4-0x11], cl ; call qword [r14+0x20] ; (1 found)
0x4a0e99: add byte [rcx+rcx*4-0x12], cl ; mov qword [rsp+0x000000D0], rax ; call r12 ; (1 found)
0x41c4b4: add byte [rcx+rcx*4-0x12], cl ; mov rdi, r15 ; call qword [r14+0x38] ; (2 found)
0x4bc307: add byte [rcx+rcx*4-0x12], cl ; mov rdi, rbx ; call r14 ; (1 found)
0x416dea: add byte [rcx+rcx*4-0x1E], cl ; mov rdi, r14 ; call qword [r13+0x38] ; (1 found)
0x4655b4: add byte [rcx+rcx*4-0x20], al ; pop r12 ; ret ; (1 found)
0x4b08a9: add byte [rcx+rcx*4-0x30], cl ; add rsp, 0x28 ; ret ; (1 found)
0x41ead4: add byte [rcx+rcx*4-0x38], al ; syscall ; (4 found)
0x4932cb: add byte [rcx+rcx*4-0x39], cl ; mov eax, 0x000000CA ; syscall ; (1 found)
0x4937c0: add byte [rcx+rcx*4-0x3A], cl ; mov eax, 0x0000000E ; syscall ; (1 found)
0x463d53: add byte [rcx+rcx*4-0x40], cl ; ret ; (2 found)
0x40421a: add byte [rcx+rcx+0x3D], al ; retn 0x0F5B ; (1 found)
0x4a246c: add byte [rcx+rdi-0x37], dh ; xor eax, eax ; ret ; (1 found)
0x434b46: add byte [rcx-0x09], cl ; retn 0x0001 ; (1 found)
0x434b6c: add byte [rcx-0x09], cl ; retn 0x0002 ; (1 found)
0x46a963: add byte [rcx-0x0A], al ; retn 0x0F04 ; (1 found)
0x46decd: add byte [rcx-0x0A], al ; retn 0x7501 ; (1 found)
0x40c370: add byte [rcx-0x1076B312], cl ; call r15 ; (1 found)
0x40e071: add byte [rcx-0x39], cl ; retn 0xFFA0 ; (6 found)
0x4163f1: add byte [rcx-0x39], cl ; ror byte [rax+0x48004F44], 0x89 ; retn 0x2949 ; (2 found)
0x403eff: add byte [rcx-0x73FCE71E], al ; and  [rcx+0x09], eax ; retn 0x058B ; (1 found)
0x470780: add byte [rcx-0x73], cl ; add r9L, byte [r8+0x39] ; ret ; (1 found)
0x427dd5: add byte [rcx-0x73], cl ; dec  [r9-0x7B] ; ret ; (1 found)
0x480ab5: add byte [rcx-0x73], cl ; or byte [r8+0x39], r9L ; ret ; (1 found)
0x4aa163: add byte [rcx-0x75], al ; adc bh, byte [rcx] ; retn 0x0C74 ; (1 found)
0x4aa0d1: add byte [rcx-0x75], al ; adc bh, byte [rcx] ; retn 0x850F ; (1 found)
0x4a6ebc: add byte [rcx-0x75], al ; add byte [r8-0x77], r9L ; retn 0x314C ; (1 found)
0x48dacb: add byte [rcx-0x75], cl ; adc al, 0xD0 ; jmp rdx ; (1 found)
0x4b1214: add byte [rcx-0x75], cl ; sbb byte [rax+0x39], r9L ; ret ; (1 found)
0x45c361: add byte [rcx-0x77], al ; and byte [r11+rcx*4+0x34], r9L ; retn 0x0F41 ; (1 found)
0x46c77b: add byte [rcx-0x77], al ; ret ; (4 found)
0x46dc45: add byte [rcx-0x77], al ; retn 0x5A58 ; (1 found)
0x492293: add byte [rcx-0x77], bh ; mov eax, 0x0000006E ; ret ; (1 found)
0x4098f7: add byte [rcx-0x77], cl ; fisttp word [rax-0x7D] ; ret ; (1 found)
0x428dba: add byte [rcx-0x77], cl ; or byte [rax+0x39], cl ; ret ; (1 found)
0x42c73f: add byte [rcx-0x77], cl ; ret ; (7 found)
0x41903a: add byte [rcx-0x77], cl ; retn 0x01B8 ; (1 found)
0x41a0ed: add byte [rcx-0x77], cl ; retn 0x48E9 ; (1 found)
0x426bc5: add byte [rcx-0x77], cl ; retn 0x8948 ; (2 found)
0x48796a: add byte [rcx-0x77], cl ; retn 0x8D48 ; (1 found)
0x426f8a: add byte [rcx-0x77], cl ; retn 0xBD41 ; (1 found)
0x4b896f: add byte [rcx-0x77], cl ; ror  [rcx+0x09], cl ; ret ; (1 found)
0x4910bc: add byte [rcx-0x7CB7E8F4], cl ; retn 0x4804 ; (1 found)
0x465007: add byte [rcx-0x7D], al ; retn 0x4901 ; (1 found)
0x416a22: add byte [rcx-0x7D], cl ; ret ; (4 found)
0x42d6af: add byte [rcx-0x7D], cl ; retn 0x0F10 ; (177 found)
0x4b0865: add byte [rcx-0x7D], cl ; retn 0x4801 ; (1 found)
0x414d21: add byte [rcx-0x7D], cl ; retn 0x4901 ; (1 found)
0x47d58f: add byte [rcx-0x7D], cl ; retn 0x4C01 ; (1 found)
0x42edaf: add byte [rcx-0x7D], cl ; retn 0x7F10 ; (15 found)
0x404214: add byte [rcx-0x7FFEF31E], al ; add byte [rcx+rcx+0x3D], al ; retn 0x0F5B ; (1 found)
0x449869: add byte [rcx], al ; enter 0xF8C5, 0x77 ; ret ; (1 found)
0x401b3f: add byte [rcx], al ; pop rbp ; ret ; (1 found)
0x4240a4: add byte [rcx], al ; pop rbx ; ret ; (1 found)
0x4a9d30: add byte [rcx], bh ; retn 0x0373 ; (1 found)
0x427cc0: add byte [rcx], bh ; retn 0x0A7E ; (1 found)
0x42550a: add byte [rcx], bh ; retn 0x6974 ; (1 found)
0x425146: add byte [rcx], bh ; retn 0x840F ; (2 found)
0x493171: add byte [rcx], bh ; retn 0x850F ; (1 found)
0x477cb5: add byte [rcx], bh ; ror byte [rdi], 1 ; retn 0xC801 ; (4 found)
0x43019f: add byte [rcx], ch ; enter 0x1D75, 0x83 ; retn 0x8101 ; (2 found)
0x43462f: add byte [rcx], ch ; enter 0x2275, 0x83 ; retn 0x8101 ; (3 found)
0x459a76: add byte [rcx], ch ; ret ; (1 found)
0x45daaf: add byte [rcx], ch ; retn 0xD729 ; (1 found)
0x47f6ac: add byte [rcx], cl ; retn 0x9274 ; (1 found)
0x4096ac: add byte [rcx], dh ; call qword [rax+0x480AB60F] ; (1 found)
0x468eb2: add byte [rcx], dh ; div byte [rcx] ; jmp qword [rsi+0x0F] ; (1 found)
0x462c88: add byte [rcx], dh ; jmp qword [rax+rcx*2-0x75] ; (2 found)
0x49e53c: add byte [rcx], dh ; rol bl, 0x83 ; retn 0x6608 ; (1 found)
0x494bfc: add byte [rcx], dh ; rol bl, 0x83 ; retn 0x6620 ; (1 found)
0x41d78b: add byte [rcx], dh ; ror byte [rcx+rcx*4-0x01], cl ; call qword [rbx+0x00000080] ; (1 found)
0x493f99: add byte [rcx], dh ; ror byte [rcx-0x77], 0x30 ; ret ; (1 found)
0x41bc59: add byte [rcx], dh ; test byte [rax-0x77], 0xEF ; call qword [rbx+0x10] ; (1 found)
0x4bf753: add byte [rcx], r14L ; jmp qword [rax+rcx*2-0x75] ; (2 found)
0x4bb671: add byte [rdi+0x00000001], bh ; call rax ; (4 found)
0x4240df: add byte [rdi+0x0D12AA05], al ; add byte [rbx+0x057F01F8], al ; ret ; (1 found)
0x4b95e2: add byte [rdi+rcx*2+0x48], dh ; add esp, 0x18 ; ret ; (1 found)
0x42a4d2: add byte [rdi+rcx+0x46], cl ; retn 0x02A8 ; (1 found)
0x4212da: add byte [rdi+rcx-0x42], cl ; retn 0x4A8D ; (1 found)
0x4ae93f: add byte [rdi+rcx-0x43], cl ; retn 0x8949 ; (1 found)
0x4ac3ae: add byte [rdi], cl ; adc  [rax+0x00000300], eax ; ret ; (1 found)
0x451baa: add byte [rdi], cl ; adc  [rax+rdx-0x10], eax ; ret ; (1 found)
0x40326f: add byte [rdi], cl ; lahf ; retn 0x3145 ; (1 found)
0x49e16a: add byte [rdi], cl ; mov dh, 0xF3 ; call rbp ; (1 found)
0x43497f: add byte [rdi], cl ; mov esp, 0xF80148C0 ; ret ; (3 found)
0x4937d8: add byte [rdi], cl ; retn 0x8B48 ; (1 found)
0x4188f1: add byte [rdi], cl ; retn 0xC085 ; (2 found)
0x45cc19: add byte [rdi], cl ; retn 0xC801 ; (1 found)
0x41882e: add byte [rdi], cl ; test byte [rdi-0x09FFFFDF], ah ; ret ; (1 found)
0x418d04: add byte [rdi], cl ; xchg  [0xFFFFFFFF89418D21], eax ; retn 0xC083 ; (1 found)
0x4817b5: add byte [rdi], cl ; xchg eax, ebp ; retn 0x0941 ; (1 found)
0x465b11: add byte [rdi], cl ; xchg eax, ebp ; retn 0x8348 ; (1 found)
0x46624d: add byte [rdi], cl ; xchg eax, ebp ; retn 0x8D48 ; (1 found)
0x45bdb3: add byte [rdi], cl ; xchg eax, ebp ; retn 0xF748 ; (1 found)
0x459b35: add byte [rdi], cl ; xchg eax, esi ; retn 0xB60F ; (1 found)
0x4b78ea: add byte [rdi], cl ; xchg eax, esp ; retn 0x2044 ; (1 found)
0x4b8154: add byte [rdi], cl ; xchg eax, esp ; retn 0x8441 ; (1 found)
0x46622c: add byte [rdi], cl ; xchg eax, esp ; retn 0x8D48 ; (2 found)
0x4af999: add byte [rdi], cl ; xchg eax, esp ; retn 0xDE89 ; (1 found)
0x420c69: add byte [rdx+0x00000001], bh ; mov rdi, rbx ; call qword [r12+0x48] ; (1 found)
0x41e016: add byte [rdx+0x00000001], bh ; mov rdi, rbx ; call qword [rbp+0x00000080] ; (1 found)
0x44b6df: add byte [rdx+0x48028801], cl ; mov eax, edi ; ret ; (1 found)
0x401910: add byte [rdx+rbx+0x48], dh ; mov edi,  [rsp+0x08] ; call qword [rsp+0x00] ; (1 found)
0x45f395: add byte [rdx+rcx+0x48], dh ; lea edi,  [rsp+0x20] ; call 0x00000000 ; (1 found)
0x4ad80b: add byte [rdx+rdx-0x7D], dh ; retn 0x4901 ; (1 found)
0x424bde: add byte [rsi+0x00000080], bh ; mov eax, 0x000000CA ; syscall ; (1 found)
0x4ac4d1: add byte [rsi+0x00000080], bh ; mov eax, r9d ; syscall ; (2 found)
0x424c9b: add byte [rsi+0x00000081], bh ; mov eax, 0x000000CA ; syscall ; (1 found)
0x42591c: add byte [rsi+0x01], dh ; ret ; (3 found)
0x4500cb: add byte [rsi+0x0F], ah ; cmp byte [rax], al ; retn 0x0F66 ; (1 found)
0x4a3edc: add byte [rsi+0x0F], ah ; insb ; ret ; (1 found)
0x4248f1: add byte [rsi+0x0F], ah ; insb ; retn 0x0F41 ; (2 found)
0x403f40: add byte [rsi+0x0F], ah ; outsb ; ret ; (2 found)
0x485bb1: add byte [rsi+0x0F], ah ; outsb ; retn 0x0F66 ; (1 found)
0x46948b: add byte [rsi+0x0F], ah ; outsb ; retn 0x4166 ; (1 found)
0x4849a2: add byte [rsi+0x0F], ah ; outsd ; retn 0x0F66 ; (1 found)
0x494b64: add byte [rsi+0x0F], ah ; xlatb ; retn 0xC085 ; (2 found)
0x45d0cf: add byte [rsi+0x0F], bl ; retn 0x2949 ; (1 found)
0x463a8f: add byte [rsi+rbx+0x48], dh ; lea eax,  [0x00000000004F9BE8] ; ret ; (1 found)
0x4928d7: add byte [rsi+rdi-0x77], dh ; retn 0x48E9 ; (1 found)
0x49122f: add byte [rsi-0x00000001], bh ; call qword [rax+0x18] ; (1 found)
0x42039a: add byte [rsi-0x00000001], bh ; mov rdi, rbp ; call qword [r14+0x18] ; (1 found)
0x422451: add byte [rsi-0x00000001], bh ; mov rdi, rbp ; call qword [rbx+0x18] ; (2 found)
0x422c31: add byte [rsi-0x00000001], bh ; mov rdi, rbx ; call qword [rbp+0x18] ; (1 found)
0x423538: add byte [rsi-0x00000001], bh ; mov rdi, rbx ; call qword [rdx+0x18] ; (1 found)
0x47d1e6: add byte [rsi-0x08], al ; jmp qword [rsi+0x0F] ; (1 found)
0x47487d: add byte [rsi-0x70], ah ; ret ; (1 found)
0x49e62d: add byte [rsi-0x70], ah ; xor eax, eax ; ret ; (1 found)
0x49eaad: add byte [rsi-0x70], ah ; xor rax, rax ; ret ; (1 found)
0x41b31e: add ch, bl ; retn 0x05B8 ; (1 found)
0x4843a8: add cl, byte [r8-0x73] ; add ecx,  [rcx+0x39] ; ret ; (1 found)
0x44b707: add cl, byte [r8-0x76B7FDBE] ; clc ; ret ; (1 found)
0x427f65: add cl, byte [rax+0x0F] ; retn 0x8B48 ; (1 found)
0x4a0b7f: add cl, byte [rax+0x0F] ; scasd ; ret ; (1 found)
0x41d375: add cl, byte [rax+0x0F] ; scasd ; retn 0x2948 ; (1 found)
0x41d52c: add cl, byte [rax+0x0F] ; scasd ; retn 0xF748 ; (1 found)
0x48b501: add cl, byte [rax+0x29] ; retn 0x0F48 ; (2 found)
0x46cadb: add cl, byte [rax+0x39] ; ret ; (5 found)
0x4a71ed: add cl, byte [rax+0x39] ; retn 0x860F ; (1 found)
0x460016: add cl, byte [rax+0x39] ; ror byte [rax+0x0F], 1 ; retn 0x0DEB ; (1 found)
0x484387: add cl, byte [rax+0x428D4801] ; add  [rcx+0x39], ecx ; ret ; (1 found)
0x4843a5: add cl, byte [rax-0x72B7FDBF] ; add ecx,  [rcx+0x39] ; ret ; (2 found)
0x4843a9: add cl, byte [rax-0x73] ; add ecx,  [rcx+0x39] ; ret ; (1 found)
0x44b708: add cl, byte [rax-0x76B7FDBE] ; clc ; ret ; (1 found)
0x44b675: add cl, byte [rax-0x77] ; clc ; ret ; (6 found)
0x4598cb: add cl, byte [rax-0x77] ; ret ; (1 found)
0x46dd23: add cl, byte [rax-0x77] ; retn 0x840F ; (1 found)
0x415185: add cl, byte [rax-0x7D] ; ret ; (2 found)
0x407045: add cl, byte [rax-0x7D] ; retn 0x0F01 ; (1 found)
0x42cc4c: add cl, byte [rax-0x7D] ; retn 0x4802 ; (3 found)
0x449ec0: add cl, byte [rax-0x7D] ; retn 0x4808 ; (8 found)
0x40136f: add cl, byte [rax-0x7D] ; retn 0x4810 ; (6 found)
0x46a2b9: add cl, byte [rax-0x7D] ; retn 0x4902 ; (1 found)
0x41a4c2: add cl, byte [rax-0x7D] ; retn 0x8301 ; (3 found)
0x419a5b: add cl, byte [rax-0x7D] ; retn 0x8302 ; (2 found)
0x48ed01: add cl, byte [rax-0x7D] ; retn 0x8304 ; (1 found)
0x449f23: add cl, byte [rax-0x7D] ; retn 0xE908 ; (2 found)
0x43da62: add cl, byte [rbx+0x0257890E] ; mov  [rdi], ecx ; ret ; (2 found)
0x44cf25: add cl, byte [rbx+0x42890541] ; add eax, 0x08428D48 ; ret ; (1 found)
0x461344: add cl, byte [rbx+0x750C2444] ; retn 0xD8F7 ; (1 found)
0x48439c: add cl, byte [rcx+0x39] ; ret ; (2 found)
0x4178af: add cl, byte [rcx-0x0008977B] ; jmp qword [rsi+0x2E] ; (1 found)
0x45ad43: add cl, byte [rdi+rcx-0x51] ; ret ; (1 found)
0x45070a: add cl, byte [rdi] ; adc  [rcx], eax ; ret ; (1 found)
0x4b6144: add cl, ch ; imul esi, ebp, 0xFF ; jmp qword [rsi+0x0F] ; (1 found)
0x413df3: add cl, ch ; jmp qword [rbx-0x76BB0001] ; (1 found)
0x423912: add cl, ch ; ret ; (2 found)
0x47bee9: add cl, ch ; retn 0xFFEE ; (1 found)
0x4ac009: add cl, ch ; retn 0xFFEF ; (1 found)
0x4a4a96: add cl, ch ; retn 0xFFF2 ; (1 found)
0x46e9f3: add cl, ch ; retn 0xFFF8 ; (1 found)
0x417498: add cl, ch ; retn 0xFFFC ; (2 found)
0x4b7e38: add cl, ch ; sal ch, 0xFF ; jmp qword [rsi-0x70] ; (1 found)
0x4a35e8: add cl, ch ; sar ebp, 0xFFFFFFFF ; jmp qword [rsi-0x70] ; (1 found)
0x41197d: add cl, ch ; stosd ; ret ; (1 found)
0x401e04: add cl, cl ; ret ; (7 found)
0x43dc13: add dh, bl ; movq qword [rdi], mm1 ; ret ; (2 found)
0x4910f1: add dh, byte [rbp+0x74] ; mov rax, qword [rax+0x000000E0] ; call qword [rax+0x68] ; (1 found)
0x4560c8: add dh, byte [rbp-0x72] ; add rax, rdx ; ret ; (1 found)
0x42cf86: add dh, byte [rdi+rax*2-0x0A] ; retn 0x7520 ; (3 found)
0x42911e: add dh, byte [rsp-0x77] ; retn 0xB48B ; (1 found)
0x41881f: add dh, dh ; ret ; (3 found)
0x484ba7: add dh, dh ; retn 0x0F01 ; (1 found)
0x46bb47: add dh, dh ; retn 0x0F02 ; (1 found)
0x4288e3: add dh, dh ; retn 0x0F0F ; (2 found)
0x404d9b: add dh, dh ; retn 0x0F20 ; (1 found)
0x484d27: add dh, dh ; retn 0x0F50 ; (2 found)
0x42b2de: add dh, dh ; retn 0x7402 ; (3 found)
0x465de1: add dh, dh ; retn 0x7404 ; (2 found)
0x41eedf: add dh, dh ; retn 0x7420 ; (6 found)
0x44e177: add dh, dh ; retn 0x7501 ; (3 found)
0x425526: add dh, dh ; retn 0x7502 ; (2 found)
0x41b218: add dh, dh ; retn 0x7504 ; (2 found)
0x44e149: add dh, dh ; retn 0x7510 ; (1 found)
0x44e156: add dh, dh ; retn 0x7520 ; (1 found)
0x44e163: add dh, dh ; retn 0x7540 ; (1 found)
0x405bdd: add eax,  [0x00000000] ; ret ; (4 found)
0x45f48c: add eax,  [gs:rax] ; add byte [rax-0x39], cl ; ret ; (1 found)
0x45ad56: add eax,  [r13+0x0F] ; ret ; (1 found)
0x4a3cc8: add eax,  [rax] ; add byte [0xF641E589+rcx*2], al ; ret ; (1 found)
0x492f10: add eax,  [rax] ; add byte [rax+0x00000001], bh ; ret ; (1 found)
0x4b355b: add eax,  [rax] ; add byte [rax+0x01], cl ; ret ; (1 found)
0x4a463b: add eax,  [rax] ; add byte [rax+0x01], cl ; retn 0xBA41 ; (1 found)
0x41673f: add eax,  [rax] ; add byte [rax-0x007F], cl ; ret ; (2 found)
0x45f48d: add eax,  [rax] ; add byte [rax-0x39], cl ; ret ; (1 found)
0x4b40b3: add eax,  [rax] ; add byte [rax-0x39], cl ; retn 0x0990 ; (1 found)
0x4813da: add eax,  [rax] ; add byte [rax-0x39], cl ; retn 0xFFFF ; (1 found)
0x4785ab: add eax,  [rax] ; add byte [rax-0x48], cl ; retn 0xFFFF ; (1 found)
0x4681bd: add eax,  [rax] ; add byte [rax-0x77], cl ; ret ; (1 found)
0x433ed7: add eax,  [rax] ; add byte [rax-0x7D], cl ; retn 0x4910 ; (3 found)
0x48f69c: add eax,  [rax] ; add byte [rax-0x7D], cl ; retn 0x8904 ; (1 found)
0x446a61: add eax,  [rax] ; add byte [rax-0x7D], cl ; retn 0xE910 ; (3 found)
0x433f05: add eax,  [rax] ; add byte [rax-0x7D], cl ; retn 0xEB10 ; (1 found)
0x49ef93: add eax,  [rax] ; add byte [rax], al ; ret ; (1 found)
0x460a61: add eax,  [rax] ; add byte [rax], al ; syscall ; (3 found)
0x403c92: add eax,  [rax] ; add byte [rbx-0x50F0FE3E], al ; retn 0xEBE9 ; (1 found)
0x46f3af: add eax,  [rax] ; add byte [rcx+0x3948FC56], cl ; ret ; (1 found)
0x40e06f: add eax,  [rax] ; add byte [rcx-0x39], cl ; retn 0xFFA0 ; (2 found)
0x4ad809: add eax,  [rax] ; add byte [rdx+rdx-0x7D], dh ; retn 0x4901 ; (1 found)
0x4a4a94: add eax,  [rax] ; add cl, ch ; retn 0xFFF2 ; (1 found)
0x46e9f1: add eax,  [rax] ; add cl, ch ; retn 0xFFF8 ; (1 found)
0x4289b8: add eax,  [rax] ; add dh, dh ; retn 0x0F0F ; (1 found)
0x465dd3: add eax,  [rax] ; add dh, dh ; retn 0x7402 ; (2 found)
0x425cc7: add eax,  [rax] ; nop  [rax+0x00000000] ; ret ; (1 found)
0x45ad57: add eax,  [rbp+0x0F] ; ret ; (1 found)
0x4abf93: add eax,  [rbp-0x00000098] ; mov qword [rbp-0x00000088], r9 ; call rax ; (1 found)
0x41b57d: add eax,  [rbp-0x77] ; retn 0x8341 ; (2 found)
0x4b3c4c: add eax,  [rbx-0x6BF0FE02] ; retn 0xF883 ; (1 found)
0x46b6d8: add eax,  [rcx+0x0F] ; xchg eax, ebp ; retn 0x8D47 ; (1 found)
0x4672f9: add eax,  [rcx+0x5C] ; shl eax, cl ; ret ; (1 found)
0x4636d9: add eax,  [rcx+rdx] ; ret ; (1 found)
0x4aa826: add eax,  [rsp+0x00] ; call rax ; (1 found)
0x4af0c4: add eax, 0x00000067 ; cmovne rax, rdx ; ret ; (1 found)
0x47573a: add eax, 0x00000200 ; mov qword [fs:rdx], rax ; ret ; (1 found)
0x49e006: add eax, 0x00000295 ; cmove rax, rdx ; ret ; (1 found)
0x494116: add eax, 0x00000875 ; cmove rax, rdx ; ret ; (1 found)
0x49df1f: add eax, 0x00000A0C ; cmove rax, rdx ; ret ; (1 found)
0x49e023: add eax, 0x000021D8 ; cmove rax, rdx ; ret ; (1 found)
0x42d476: add eax, 0x00007325 ; cmove rax, rdx ; ret ; (1 found)
0x494133: add eax, 0x00009968 ; cmove rax, rdx ; ret ; (1 found)
0x42d4ef: add eax, 0x0001B25C ; cmove rax, rdx ; ret ; (1 found)
0x42c65f: add eax, 0x0001C78C ; cmove rax, rdx ; ret ; (1 found)
0x42c4df: add eax, 0x0001CDDC ; cmove rax, rdx ; ret ; (1 found)
0x42c54f: add eax, 0x0001CF0C ; cmove rax, rdx ; ret ; (1 found)
0x4b943f: add eax, 0x0001E524 ; divss xmm0,  [0x00000000004DEEC0] ; ret ; (1 found)
0x42ce74: add eax, 0x00022CB7 ; cmove rax, rdx ; ret ; (1 found)
0x42d3cc: add eax, 0x000231AF ; cmove rax, rdx ; ret ; (1 found)
0x42d1ec: add eax, 0x0002334F ; cmove rax, rdx ; ret ; (1 found)
0x42cfdc: add eax, 0x0002359F ; cmove rax, rdx ; ret ; (1 found)
0x42d40c: add eax, 0x0002376F ; cmove rax, rdx ; ret ; (1 found)
0x42d22c: add eax, 0x0002391F ; cmove rax, rdx ; ret ; (1 found)
0x42d01c: add eax, 0x00023B5F ; cmove rax, rdx ; ret ; (1 found)
0x42c3c4: add eax, 0x00023C07 ; cmovne rax, rdx ; ret ; (1 found)
0x42d3b4: add eax, 0x00023F47 ; cmove rax, rdx ; ret ; (1 found)
0x42d1d4: add eax, 0x000240F7 ; cmove rax, rdx ; ret ; (1 found)
0x42cfc4: add eax, 0x00024337 ; cmove rax, rdx ; ret ; (1 found)
0x42d09b: add eax, 0x00024A60 ; cmovne rax, rdx ; ret ; (1 found)
0x42d07d: add eax, 0x00024C7E ; cmove rax, rdx ; ret ; (1 found)
0x42d352: add eax, 0x000251A9 ; cmove rax, rdx ; ret ; (1 found)
0x42d172: add eax, 0x00025359 ; cmove rax, rdx ; ret ; (1 found)
0x42cf62: add eax, 0x00025599 ; cmove rax, rdx ; ret ; (1 found)
0x4b9447: add eax, 0x00025A74 ; ret ; (1 found)
0x42d0eb: add eax, 0x00025B90 ; cmove rax, rdx ; ret ; (1 found)
0x42d3ec: add eax, 0x00027ACF ; cmove rax, rdx ; ret ; (1 found)
0x42d20c: add eax, 0x00027C7F ; cmove rax, rdx ; ret ; (1 found)
0x42cffc: add eax, 0x00027EBF ; cmove rax, rdx ; ret ; (1 found)
0x42d117: add eax, 0x000285E4 ; cmove rax, rdx ; ret ; (1 found)
0x42d493: add eax, 0x0002A328 ; cmove rax, rdx ; ret ; (1 found)
0x4b2e04: add eax, 0x00046E87 ; add rsp, 0x18 ; ret ; (1 found)
0x4af535: add eax, 0x0004A6E6 ; ret ; (1 found)
0x4a84a2: add eax, 0x00051D71 ; add rsp, 0x08 ; ret ; (1 found)
0x49deb2: add eax, 0x0005C019 ; ret ; (1 found)
0x49dea2: add eax, 0x0005C021 ; ret ; (1 found)
0x49de92: add eax, 0x0005C029 ; ret ; (1 found)
0x49de82: add eax, 0x0005C031 ; ret ; (1 found)
0x49de72: add eax, 0x0005C039 ; ret ; (1 found)
0x49de62: add eax, 0x0005C041 ; ret ; (1 found)
0x49de52: add eax, 0x0005C049 ; ret ; (1 found)
0x49de42: add eax, 0x0005C051 ; ret ; (1 found)
0x49de32: add eax, 0x0005C059 ; ret ; (1 found)
0x49de22: add eax, 0x0005C061 ; ret ; (1 found)
0x49de12: add eax, 0x0005C069 ; ret ; (1 found)
0x49de0a: add eax, 0x0005C0C9 ; ret ; (1 found)
0x493893: add eax, 0x00060350 ; add rsp, 0x08 ; ret ; (1 found)
0x492449: add eax, 0x000617A2 ; ret ; (1 found)
0x492438: add eax, 0x000617A3 ; ret ; (1 found)
0x492118: add eax, 0x00061ABF ; ret ; (1 found)
0x492108: add eax, 0x00061ACB ; ret ; (1 found)
0x4920f8: add eax, 0x00061AD7 ; ret ; (1 found)
0x4920e8: add eax, 0x00061AE3 ; ret ; (1 found)
0x49213d: add eax, 0x0006328E ; ret ; (1 found)
0x472536: add eax, 0x00087A6D ; ret ; (1 found)
0x46738b: add eax, 0x0008A6C0 ; pop rbx ; ret ; (1 found)
0x466656: add eax, 0x0008CD25 ; ret ; (1 found)
0x463dc0: add eax, 0x00090773 ; mov qword [rsi], rax ; ret ; (1 found)
0x463d4f: add eax, 0x00090814 ; mov rax, r8 ; ret ; (1 found)
0x4688f6: add eax, 0x0009166D ; ret ; (1 found)
0x4688e6: add eax, 0x00091675 ; ret ; (1 found)
0x46721f: add eax, 0x00092CBC ; ret ; (1 found)
0x4671ee: add eax, 0x00092CED ; pop rbx ; ret ; (1 found)
0x46718f: add eax, 0x00092D4C ; ret ; (1 found)
0x46715e: add eax, 0x00092D7D ; pop rbx ; ret ; (1 found)
0x464784: add eax, 0x000954D7 ; ret ; (1 found)
0x463acc: add eax, 0x00096117 ; ret ; (1 found)
0x463ac5: add eax, 0x00096126 ; lea rax, qword [0x00000000004F9BE8] ; ret ; (1 found)
0x463a94: add eax, 0x0009614F ; ret ; (1 found)
0x42d371: add eax, 0x000CC9B6 ; add dh, byte [rdi+rax*2-0x0A] ; retn 0x7520 ; (1 found)
0x42d191: add eax, 0x000CCB96 ; add dh, byte [rdi+rax*2-0x0A] ; retn 0x7520 ; (1 found)
0x425bc4: add eax, 0x000CCCA7 ; ret ; (1 found)
0x425be3: add eax, 0x000CCCB8 ; ret ; (1 found)
0x425ba4: add eax, 0x000CCCBF ; ret ; (1 found)
0x425b84: add eax, 0x000CCCD7 ; ret ; (1 found)
0x42cf81: add eax, 0x000CCDA6 ; add dh, byte [rdi+rax*2-0x0A] ; retn 0x7520 ; (1 found)
0x42597a: add eax, 0x000CCF61 ; ret ; (1 found)
0x42590a: add eax, 0x000CCF69 ; ret ; (1 found)
0x425963: add eax, 0x000CCF70 ; ret ; (1 found)
0x4258fa: add eax, 0x000CCF81 ; ret ; (1 found)
0x424036: add eax, 0x000CE225 ; ret ; (1 found)
0x425bf9: add eax, 0x000D3816 ; ret ; (1 found)
0x425b08: add eax, 0x000D390B ; ret ; (1 found)
0x41ad53: add eax, 0x000D4168 ; mov rax, qword [rax+rdi*8] ; ret ; (1 found)
0x402325: add eax, 0x000EFED6 ; leave ; ret ; (1 found)
0x403649: add eax, 0x000F6692 ; pop rbx ; ret ; (1 found)
0x4031d6: add eax, 0x01 ; ret ; (2 found)
0x4b343c: add eax, 0x01480000 ; ret ; (1 found)
0x49ef38: add eax, 0x02 ; ret ; (1 found)
0x49ef51: add eax, 0x03 ; ret ; (1 found)
0x44cfa9: add eax, 0x05428948 ; lea rax, qword [rdx+0x0C] ; ret ; (1 found)
0x44b799: add eax, 0x05428948 ; mov rax, rdi ; ret ; (1 found)
0x402dd9: add eax, 0x060B31E8 ; add cl, cl ; ret ; (1 found)
0x40278e: add eax, 0x06117CE8 ; add cl, cl ; ret ; (1 found)
0x402527: add eax, 0x0613E3E8 ; add cl, cl ; ret ; (1 found)
0x402459: add eax, 0x0614B1E8 ; add cl, cl ; ret ; (1 found)
0x4022ad: add eax, 0x06165DE8 ; add cl, cl ; ret ; (1 found)
0x401dff: add eax, 0x061B0BE8 ; add cl, cl ; ret ; (1 found)
0x4bc5c4: add eax, 0x08 ; mov qword [r8], rdx ; ret ; (2 found)
0x44cf2a: add eax, 0x08428D48 ; ret ; (2 found)
0x45f2fa: add eax, 0x08C48348 ; ret ; (1 found)
0x44cfac: add eax, 0x0C428D48 ; ret ; (2 found)
0x44da9d: add eax, 0x0C478D48 ; ret ; (1 found)
0x4a9d28: add eax, 0x0D894C00 ; syscall ; (1 found)
0x43dac3: add eax, 0x0F7F0FF3 ; ret ; (2 found)
0x463a2e: add eax, 0x11148B48 ; mov qword [rax+0x08], rdx ; ret ; (1 found)
0x474ad9: add eax, 0x125EE800 ; stc ; jmp qword [rsi+0x66] ; (3 found)
0x45e8ad: add eax, 0x18C48348 ; ret ; (1 found)
0x484083: add eax, 0x1CB6E800 ; clc ; jmp qword [rsi+0x0F] ; (1 found)
0x46169f: add eax, 0x28C48348 ; ret ; (2 found)
0x468eb1: add eax, 0x31F63100 ; jmp qword [rsi+0x0F] ; (1 found)
0x4b474a: add eax, 0x38C48348 ; ret ; (4 found)
0x46a530: add eax, 0x3D8D4800 ; jmp rdx ; (1 found)
0x468970: add eax, 0x3D8D4800 ; mov edx, 0xE80005F7 ; retn 0xF9D3 ; (1 found)
0x46cea5: add eax, 0x3D8D4800 ; retn 0x05B9 ; (1 found)
0x479d4e: add eax, 0x3D8D4800 ; retn 0x05D7 ; (1 found)
0x468868: add eax, 0x3D8D4800 ; retn 0x05F8 ; (1 found)
0x471e3a: add eax, 0x3EFFE800 ; stc ; jmp qword [rsi+0x2E] ; (1 found)
0x460932: add eax, 0x401F0FC3 ; add byte [rax-0x39], cl ; retn 0xFFA0 ; (4 found)
0x4a7589: add eax, 0x41C50149 ; call qword [rbp+0x68] ; (1 found)
0x44cf28: add eax, 0x48054289 ; lea eax,  [rdx+0x08] ; ret ; (1 found)
0x44b758: add eax, 0x48054289 ; mov eax, edi ; ret ; (1 found)
0x44d426: add eax, 0x480F8948 ; mov  [rdi+0x05], edx ; ret ; (1 found)
0x48135b: add eax, 0x49DEE800 ; clc ; jmp qword [rsi+0x66] ; (1 found)
0x471083: add eax, 0x4CB6E800 ; stc ; jmp qword [rsi+0x0F] ; (1 found)
0x433cf7: add eax, 0x83480000 ; retn 0x4910 ; (5 found)
0x4468c1: add eax, 0x83480000 ; retn 0xE910 ; (3 found)
0x433d25: add eax, 0x83480000 ; retn 0xEB10 ; (1 found)
0x463ff4: add eax, 0x83480009 ; ret ; (1 found)
0x418d07: add eax, 0x89000015 ; retn 0xC083 ; (1 found)
0x4738f3: add eax, 0x89480000 ; retn 0x294C ; (1 found)
0x4a6eba: add eax, 0x8B410000 ; add byte [r8-0x77], r9L ; retn 0x314C ; (1 found)
0x49de0d: add eax, 0x8B48C300 ; add eax, 0x0005C069 ; ret ; (1 found)
0x47077e: add eax, 0x8D490000 ; add r9L, byte [r8+0x39] ; ret ; (1 found)
0x46cf37: add eax, 0x8E02E800 ; stc ; jmp qword [rsi-0x70] ; (1 found)
0x4a0b75: add eax, 0x8F5CBA49 ; retn 0x28F5 ; (1 found)
0x47cccb: add eax, 0x906EE800 ; clc ; jmp qword [rsi+0x66] ; (1 found)
0x46b380: add eax, 0xA9B9E800 ; stc ; jmp qword [rsi+0x0F] ; (1 found)
0x46ac97: add eax, 0xB0A2E800 ; stc ; jmp qword [rsi-0x70] ; (1 found)
0x47a038: add eax, 0xBD01E800 ; clc ; call qword [rax+0x56415741] ; (1 found)
0x40bc78: add eax, 0xC0834800 ; adc byte [rcx+0x39], cl ; retn 0xEC75 ; (2 found)
0x4a8363: add eax, 0xC4834800 ; or byte [rbx+0x5D], bl ; ret ; (1 found)
0x4174eb: add eax, 0xC7480000 ; ret ; (1 found)
0x481476: add eax, 0xC7480000 ; retn 0xFFA0 ; (1 found)
0x4691ac: add eax, 0xCB8DE800 ; stc ; jmp qword [rsi+0x66] ; (1 found)
0x468977: add eax, 0xD3C2E800 ; stc ; jmp qword [rsi-0x70] ; (1 found)
0x46886f: add eax, 0xD4CAE800 ; stc ; jmp qword [rsi+0x2E] ; (1 found)
0x47d1e1: add eax, 0xE9FFF846 ; add byte [rsi-0x08], al ; jmp qword [rsi+0x0F] ; (1 found)
0x4864ee: add eax, 0xEF834100 ; add  [rax+0x39], ecx ; ret ; (1 found)
0x4bee48: add eax, 0xF6B252E8 ; jmp qword [rsi+0x0F] ; (1 found)
0x45fa4a: add eax, 0xFCA650E8 ; jmp qword [rsi+0x0F] ; (1 found)
0x49e0ac: add eax, 0xFFFB3D8F ; cmovne rax, rdx ; ret ; (1 found)
0x487508: add eax, eax ; mov eax, r8d ; ret ; (1 found)
0x4b994d: add eax, ebp ; jmp rax ; (1 found)
0x415057: add eax, ebp ; ret ; (1 found)
0x4666dd: add eax, ebx ; jmp rax ; (1 found)
0x403348: add eax, ecx ; jmp rax ; (18 found)
0x434811: add eax, ecx ; ret ; (6 found)
0x450126: add eax, ecx ; sub rax, rdi ; ret ; (3 found)
0x434a0e: add eax, ecx ; vzeroupper ; ret ; (5 found)
0x43480e: add eax, edi ; add rax, rcx ; ret ; (4 found)
0x4816eb: add eax, edi ; jmp qword [rsi-0x70] ; (1 found)
0x4032a9: add eax, edi ; jmp rax ; (1 found)
0x434984: add eax, edi ; ret ; (20 found)
0x4349e0: add eax, edi ; vzeroupper ; ret ; (75 found)
0x40dff9: add eax, edx ; jmp rax ; (22 found)
0x41ad8b: add eax, edx ; ret ; (3 found)
0x449456: add eax, edx ; sub rax, rdi ; ret ; (3 found)
0x448de0: add eax, edx ; vzeroupper ; ret ; (1 found)
0x403317: add eax, esi ; jmp rax ; (5 found)
0x4a758b: add ebp, eax ; call qword [r13+0x68] ; (1 found)
0x4aee0b: add ebp, edx ; xor eax, eax ; ret ; (1 found)
0x4b6c4e: add ebx,  [rax+0x5A] ; pop rbx ; ret ; (1 found)
0x46496c: add ebx, eax ; nop ; ret ; (1 found)
0x464ec1: add ebx, eax ; nop  [rax+rax+0x00] ; ret ; (1 found)
0x43dc83: add ebx, esi ; movq qword [rdi], mm1 ; ret ; (2 found)
0x44b745: add ecx,  [r9-0x76B7FCBE] ; clc ; ret ; (1 found)
0x46c8c2: add ecx,  [rax+0x39] ; ret ; (4 found)
0x46f73d: add ecx,  [rax+0x39] ; retn 0x0876 ; (1 found)
0x46cc49: add ecx,  [rax+0x39] ; retn 0x1676 ; (1 found)
0x46daf6: add ecx,  [rax+0x39] ; retn 0x1776 ; (3 found)
0x4b9aef: add ecx,  [rax+0x63] ; ret ; (1 found)
0x44b748: add ecx,  [rax-0x77] ; clc ; ret ; (2 found)
0x4b8927: add ecx,  [rax-0x77] ; ret ; (1 found)
0x48eae1: add ecx,  [rax-0x7D] ; ret ; (2 found)
0x43d9f2: add ecx,  [rbx+0x0357890E] ; mov  [rdi], ecx ; ret ; (2 found)
0x4a6be2: add ecx,  [rcx+0x01] ; retn 0x8B48 ; (1 found)
0x44da04: add ecx,  [rcx+0x0357890F] ; lea rax, qword [rdi+0x06] ; ret ; (1 found)
0x44d3c4: add ecx,  [rcx+0x0357890F] ; ret ; (1 found)
0x4843ac: add ecx,  [rcx+0x39] ; ret ; (2 found)
0x4b6382: add ecx,  [rcx+rcx*4-0x1A] ; mov edi, ebp ; call rax ; (1 found)
0x44b746: add ecx,  [rcx-0x76B7FCBE] ; clc ; ret ; (1 found)
0x42543d: add ecx,  [rdi] ; xchg eax, ebp ; retn 0xC231 ; (1 found)
0x4779df: add ecx, ebp ; imul edi, esi, 0xC748FFFF ; retn 0xFFFF ; (4 found)
0x435c4f: add ecx, ebx ; jmp r9 ; (6 found)
0x474971: add ecx, edi ; jmp rcx ; (1 found)
0x4166d4: add ecx, edx ; jmp rcx ; (2 found)
0x4bef00: add edi, ebp ; call r12 ; (1 found)
0x4595c6: add edi, ebp ; ret ; (1 found)
0x457396: add edi, ebx ; ret ; (2 found)
0x435c4c: add edi, edx ; add r9, r11 ; jmp r9 ; (2 found)
0x40bc18: add edi, esi ; call rax ; (1 found)
0x4595d6: add edi, esi ; ret ; (1 found)
0x4595b6: add edi, esp ; ret ; (1 found)
0x457395: add edi, r11d ; ret ; (2 found)
0x4595b5: add edi, r12d ; ret ; (1 found)
0x4595c5: add edi, r13d ; ret ; (1 found)
0x4595d5: add edi, r14d ; ret ; (1 found)
0x42ceb9: add edx,  [0x000000000F8ACEC1] ; retn 0x66C3 ; (1 found)
0x4b07e5: add edx,  [rax+0x10] ; mov qword [rsi+0x18], rdx ; ret ; (1 found)
0x4bae8c: add edx, eax ; jmp rdx ; (1 found)
0x40b27d: add edx, ebx ; jmp r10 ; (1 found)
0x4056b3: add edx, ecx ; jmp rdx ; (4 found)
0x45c9a3: add edx, edi ; jmp rdx ; (1 found)
0x40afa7: add edx, esi ; jmp rdx ; (4 found)
0x416658: add edx, esp ; call qword [r10+rax*8] ; (2 found)
0x429105: add esi,  [rbp+rdi-0x77] ; retn 0xB48B ; (1 found)
0x472d2e: add esi,  [rdi+rax+0x5B] ; ret ; (1 found)
0x43dba3: add esi, ebx ; movq qword [rdi], mm1 ; ret ; (2 found)
0x45051e: add esi, ebx ; movsb ; ret ; (1 found)
0x48f4db: add esi, edi ; jmp rsi ; (1 found)
0x4057af: add esp, 0x00000098 ; ret ; (2 found)
0x40d61d: add esp, 0x000000D8 ; ret ; (10 found)
0x45006d: add esp, 0x00000100 ; sub rax, rdx ; ret ; (2 found)
0x40b8e8: add esp, 0x00000148 ; ret ; (2 found)
0x462ccc: add esp, 0x00001018 ; ret ; (1 found)
0x401017: add esp, 0x08 ; ret ; (27 found)
0x45a47a: add esp, 0x10 ; pop rbp ; ret ; (3 found)
0x4222e6: add esp, 0x10 ; pop rbx ; jmp rax ; (2 found)
0x4648b7: add esp, 0x10 ; pop rbx ; ret ; (3 found)
0x4ad029: add esp, 0x18 ; jmp r11 ; (3 found)
0x45e8af: add esp, 0x18 ; ret ; (7 found)
0x422a82: add esp, 0x20 ; pop rbx ; jmp rax ; (3 found)
0x458256: add esp, 0x20 ; pop rbx ; ret ; (2 found)
0x4604be: add esp, 0x28 ; ret ; (9 found)
0x4ac917: add esp, 0x30 ; jmp r11 ; (3 found)
0x4aca05: add esp, 0x30 ; ret ; (3 found)
0x4843ff: add esp, 0x38 ; ret ; (9 found)
0x461465: add esp, 0x58 ; ret ; (7 found)
0x4609ad: add esp, 0x68 ; ret ; (3 found)
0x460717: add esp, 0x78 ; ret ; (1 found)
0x49e217: add qword [rbp+rcx*4+0x4C], rcx ; and al, 0x38 ; call rbx ; (1 found)
0x40b27c: add r10, r11 ; jmp r10 ; (1 found)
0x43dc82: add r11d, r14d ; movq qword [rdi], mm1 ; ret ; (2 found)
0x4a758a: add r13, rax ; call qword [r13+0x68] ; (1 found)
0x43dc12: add r14L, r11L ; movq qword [rdi], mm1 ; ret ; (2 found)
0x43dba2: add r14d, r11d ; movq qword [rdi], mm1 ; ret ; (2 found)
0x40bc17: add r15, r14 ; call rax ; (1 found)
0x49cf72: add r8, 0x0000000083480000 ; retn 0xE910 ; (1 found)
0x49b7b0: add r8, qword [r8] ; add byte [rax-0x7D], cl ; retn 0x4910 ; (1 found)
0x433f04: add r8, qword [rax] ; add byte [rax-0x7D], cl ; retn 0xEB10 ; (1 found)
0x42d0d6: add r8L, byte [r8] ; cmove rax, rdx ; ret ; (1 found)
0x455d77: add r8L, byte [r8] ; lea rax, qword [rdi+0x02] ; ret ; (1 found)
0x456b47: add r8L, byte [r8] ; ret ; (1 found)
0x449dd7: add r8L, byte [r8] ; vzeroupper ; ret ; (1 found)
0x42d07f: add r8L, byte [rax] ; cmove rax, rdx ; ret ; (1 found)
0x44cfa8: add r8d, 0x05428948 ; lea rax, qword [rdx+0x0C] ; ret ; (1 found)
0x44b798: add r8d, 0x05428948 ; mov rax, rdi ; ret ; (1 found)
0x43dac2: add r8d, 0x0F7F0FF3 ; ret ; (2 found)
0x44cf27: add r8d, 0x48054289 ; lea eax,  [rdx+0x08] ; ret ; (1 found)
0x44b757: add r8d, 0x48054289 ; mov eax, edi ; ret ; (1 found)
0x487507: add r8d, eax ; mov eax, r8d ; ret ; (1 found)
0x449886: add r8d, ecx ; vzeroupper ; ret ; (1 found)
0x4496e8: add r8d, edi ; vzeroupper ; ret ; (1 found)
0x435c4e: add r9, r11 ; jmp r9 ; (6 found)
0x470783: add r9L, byte [r8+0x39] ; ret ; (1 found)
0x4b8926: add r9d,  [r8-0x77] ; ret ; (1 found)
0x475739: add rax, 0x0000000000000200 ; mov qword [fs:rdx], rax ; ret ; (1 found)
0x49ef40: add rax, 0x01 ; ret ; (1 found)
0x49ef37: add rax, 0x02 ; ret ; (1 found)
0x49ef50: add rax, 0x03 ; ret ; (1 found)
0x4bc5c3: add rax, 0x08 ; mov qword [r8], rdx ; ret ; (2 found)
0x405bdc: add rax, qword [0x00000000] ; ret ; (4 found)
0x405bdb: add rax, qword [fs:0x00000000] ; ret ; (4 found)
0x4aa825: add rax, qword [r12+0x00] ; call rax ; (1 found)
0x4abf92: add rax, qword [rbp-0x00000098] ; mov qword [rbp-0x00000088], r9 ; call rax ; (1 found)
0x421059: add rax, r10 ; jmp rax ; (6 found)
0x4b9acf: add rax, r14 ; jmp rax ; (2 found)
0x4b994c: add rax, rbp ; jmp rax ; (1 found)
0x4666dc: add rax, rbx ; jmp rax ; (1 found)
0x403347: add rax, rcx ; jmp rax ; (18 found)
0x434810: add rax, rcx ; ret ; (6 found)
0x450125: add rax, rcx ; sub rax, rdi ; ret ; (3 found)
0x434a0d: add rax, rcx ; vzeroupper ; ret ; (1 found)
0x43480d: add rax, rdi ; add rax, rcx ; ret ; (4 found)
0x4032a8: add rax, rdi ; jmp rax ; (1 found)
0x434983: add rax, rdi ; ret ; (20 found)
0x4349df: add rax, rdi ; vzeroupper ; ret ; (77 found)
0x40dff8: add rax, rdx ; jmp rax ; (16 found)
0x41ad8a: add rax, rdx ; ret ; (3 found)
0x449455: add rax, rdx ; sub rax, rdi ; ret ; (3 found)
0x448ddf: add rax, rdx ; vzeroupper ; ret ; (1 found)
0x403316: add rax, rsi ; jmp rax ; (3 found)
0x474970: add rcx, rdi ; jmp rcx ; (1 found)
0x4166d3: add rcx, rdx ; jmp rcx ; (2 found)
0x4beeff: add rdi, rbp ; call r12 ; (1 found)
0x435c4b: add rdi, rdx ; add r9, r11 ; jmp r9 ; (2 found)
0x4b07e4: add rdx, qword [rax+0x10] ; mov qword [rsi+0x18], rdx ; ret ; (1 found)
0x416657: add rdx, r12 ; call qword [r10+rax*8] ; (2 found)
0x4ba4c4: add rdx, r14 ; jmp rdx ; (1 found)
0x4bae8b: add rdx, r8 ; jmp rdx ; (1 found)
0x4056b2: add rdx, rcx ; jmp rdx ; (4 found)
0x45c9a2: add rdx, rdi ; jmp rdx ; (1 found)
0x40afa6: add rdx, rsi ; jmp rdx ; (3 found)
0x48f4da: add rsi, rdi ; jmp rsi ; (1 found)
0x4057ae: add rsp, 0x0000000000000098 ; ret ; (2 found)
0x40d61c: add rsp, 0x00000000000000D8 ; ret ; (10 found)
0x45006c: add rsp, 0x0000000000000100 ; sub rax, rdx ; ret ; (2 found)
0x40b8e7: add rsp, 0x0000000000000148 ; ret ; (2 found)
0x462ccb: add rsp, 0x0000000000001018 ; ret ; (1 found)
0x401016: add rsp, 0x08 ; ret ; (27 found)
0x45a479: add rsp, 0x10 ; pop rbp ; ret ; (3 found)
0x4222e5: add rsp, 0x10 ; pop rbx ; jmp rax ; (2 found)
0x4648b6: add rsp, 0x10 ; pop rbx ; ret ; (3 found)
0x4ad028: add rsp, 0x18 ; jmp r11 ; (3 found)
0x45e8ae: add rsp, 0x18 ; ret ; (9 found)
0x422a7f: add rsp, 0x20 ; pop rbx ; jmp rax ; (5 found)
0x458255: add rsp, 0x20 ; pop rbx ; ret ; (2 found)
0x4604bd: add rsp, 0x28 ; ret ; (9 found)
0x4ac916: add rsp, 0x30 ; jmp r11 ; (3 found)
0x4aca04: add rsp, 0x30 ; ret ; (3 found)
0x4843fd: add rsp, 0x38 ; ret ; (10 found)
0x461463: add rsp, 0x58 ; ret ; (10 found)
0x4609ac: add rsp, 0x68 ; ret ; (4 found)
0x460716: add rsp, 0x78 ; ret ; (1 found)
0x4af354: add word [rdx+rax*2], 0x0001 ; ret ; (1 found)
0x4a9a0d: and  [rax-0x77], ecx ; retn 0x2548 ; (1 found)
0x49e025: and  [rax], eax ; add byte [rax+0x0F], cl ; retn 0x0FC3 ; (1 found)
0x418832: and  [rax], eax ; add dh, dh ; ret ; (1 found)
0x403f05: and  [rcx+0x09], eax ; retn 0x058B ; (1 found)
0x434bfe: and  [rcx-0x77], ecx ; ret ; (1 found)
0x449896: and  [rcx], eax ; enter 0xF8C5, 0x77 ; ret ; (1 found)
0x4910f6: and al, 0x00 ; add byte [rax], al ; call qword [rax+0x68] ; (1 found)
0x412304: and al, 0x00 ; add byte [rcx-0x39], cl ; retn 0xFFA0 ; (1 found)
0x461342: and al, 0x08 ; add cl, byte [rbx+0x750C2444] ; retn 0xD8F7 ; (1 found)
0x460843: and al, 0x08 ; add rsp, 0x28 ; ret ; (6 found)
0x401916: and al, 0x08 ; call qword [rsp+0x00] ; (1 found)
0x4034b5: and al, 0x08 ; call rax ; (4 found)
0x4608c6: and al, 0x08 ; mov eax, 0x00000001 ; syscall ; (1 found)
0x460a0e: and al, 0x08 ; mov eax, 0x00000048 ; syscall ; (1 found)
0x476d76: and al, 0x08 ; mov eax, 0x0000013E ; syscall ; (1 found)
0x41d228: and al, 0x08 ; mov rdi, r15 ; call rax ; (2 found)
0x41f851: and al, 0x08 ; mov rdi, rbp ; call rax ; (2 found)
0x460826: and al, 0x08 ; xor eax, eax ; syscall ; (1 found)
0x460aa0: and al, 0x0C ; add rsp, 0x18 ; ret ; (2 found)
0x4634f4: and al, 0x0C ; add rsp, 0x28 ; ret ; (2 found)
0x4634d6: and al, 0x0C ; mov eax, 0x0000002B ; syscall ; (1 found)
0x4bb8a9: and al, 0x10 ; add rsp, 0x28 ; ret ; (3 found)
0x4708d8: and al, 0x10 ; call rax ; (2 found)
0x460bcc: and al, 0x10 ; mov eax, 0x0000004F ; syscall ; (1 found)
0x4655cb: and al, 0x10 ; mov rdi, qword [rsp+0x18] ; call rax ; (2 found)
0x46556e: and al, 0x10 ; mov rdi, qword [rsp+0x18] ; call rcx ; (2 found)
0x41fcdf: and al, 0x10 ; mov rdi, rbp ; call qword [r13+0x00000090] ; (1 found)
0x41f694: and al, 0x10 ; mov rdi, rbp ; call qword [rax+0x00000090] ; (1 found)
0x461b05: and al, 0x10 ; mov rdi, rbp ; call rax ; (2 found)
0x4bdd3c: and al, 0x10 ; mov rsi, qword [rbx+rcx*8+0x10] ; call rbp ; (2 found)
0x457ad9: and al, 0x18 ; call r13 ; (2 found)
0x4655d1: and al, 0x18 ; call rax ; (9 found)
0x458075: and al, 0x18 ; call rbx ; (1 found)
0x465574: and al, 0x18 ; call rcx ; (1 found)
0x46077a: and al, 0x18 ; mov eax, 0x00000101 ; syscall ; (1 found)
0x4034b1: and al, 0x18 ; mov rax, qword [rsp+0x08] ; call rax ; (1 found)
0x467a08: and al, 0x18 ; xor r8d, r8d ; call rbx ; (1 found)
0x45f39b: and al, 0x20 ; call 0x00000000 ; (2 found)
0x457cef: and al, 0x20 ; call rbx ; (4 found)
0x46a1e3: and al, 0x28 ; call rax ; (6 found)
0x41e560: and al, 0x28 ; call rbp ; (4 found)
0x457f29: and al, 0x30 ; call rbx ; (2 found)
0x41d0ea: and al, 0x30 ; mov rdi, r15 ; call qword [r14+0x00000090] ; (1 found)
0x4a1139: and al, 0x38 ; call r12 ; (2 found)
0x4720f8: and al, 0x38 ; call r15 ; (1 found)
0x49e21b: and al, 0x38 ; call rbx ; (2 found)
0x472254: and al, 0x38 ; lea r8, qword [rsp+0x000000A0] ; call r15 ; (1 found)
0x4720f3: and al, 0x40 ; mov rdi, qword [rsp+0x38] ; call r15 ; (1 found)
0x4ad027: and al, 0x48 ; add esp, 0x18 ; jmp r11 ; (3 found)
0x4ac915: and al, 0x48 ; add esp, 0x30 ; jmp r11 ; (3 found)
0x4aca03: and al, 0x48 ; add esp, 0x30 ; ret ; (3 found)
0x4b9048: and al, 0x48 ; add esp, 0x38 ; ret ; (1 found)
0x46d12a: and al, 0x48 ; call r14 ; (1 found)
0x46270b: and al, 0x48 ; mov edi,  [rbp+0x00] ; call rbx ; (1 found)
0x4708d4: and al, 0x48 ; mov rax, qword [rsp+0x10] ; call rax ; (1 found)
0x46f12b: and al, 0x48 ; mov rax, qword [rsp+0x18] ; call rax ; (1 found)
0x46e119: and al, 0x48 ; mov rax, qword [rsp+0x28] ; call rax ; (1 found)
0x46c431: and al, 0x50 ; call r13 ; (3 found)
0x46bdbb: and al, 0x50 ; mov rax, qword [rsp+0x18] ; call rax ; (1 found)
0x46a1df: and al, 0x50 ; mov rax, qword [rsp+0x28] ; call rax ; (2 found)
0x46d125: and al, 0x50 ; mov rdi, qword [rsp+0x48] ; call r14 ; (1 found)
0x46a79f: and al, 0x58 ; mov rax, qword [rsp+0x18] ; call rax ; (2 found)
0x46c42c: and al, 0x58 ; mov rdi, qword [rsp+0x50] ; call r13 ; (3 found)
0x4aaecd: and al, 0x85 ; div byte [rbp+0x02] ; call rax ; (1 found)
0x4ab7d3: and al, 0x85 ; sal byte [rbp+0x02], cl ; call rax ; (1 found)
0x4bc436: and al, 0x89 ; and al, 0x08 ; call rax ; (1 found)
0x4abd78: and al, 0x89 ; retn 0x8348 ; (1 found)
0x429120: and al, 0x89 ; retn 0xB48B ; (1 found)
0x4226fb: and al, 0x89 ; retn 0xC883 ; (1 found)
0x481072: and al, 0xE8 ; ret ; (3 found)
0x421f88: and al, 0xE8 ; retn 0x002B ; (1 found)
0x48106e: and al, 0xF0 ; fld tword [rsp-0x18] ; ret ; (1 found)
0x4841cc: and al, 0xF0 ; movdqa xmm0,  [rsp-0x18] ; ret ; (2 found)
0x40374c: and al, 0xF3 ; add  [rbp-0x77], ecx ; ret ; (2 found)
0x412251: and al, byte [rax] ; add byte [rcx-0x39], cl ; retn 0xFFA0 ; (1 found)
0x449f3a: and al, byte [rsp-0x00B7F68C] ; retn 0xC148 ; (2 found)
0x4b45ac: and bh, bh ; call qword [rax+0x50B78B48] ; (1 found)
0x49d9af: and bl, al ; xor eax, eax ; ret ; (4 found)
0x454c8c: and byte [gs:rsi], ah ; ret ; (1 found)
0x45c364: and byte [r11+rcx*4+0x34], r9L ; retn 0x0F41 ; (1 found)
0x4a042d: and byte [r15], r11L ; retn 0xC500 ; (1 found)
0x457900: and byte [r15], r15L ; retn 0xC500 ; (2 found)
0x451c21: and byte [r15], r9L ; adc  [rdi+0x30], eax ; ret ; (1 found)
0x41d665: and byte [r8+0x01], r9L ; ret ; (1 found)
0x41d666: and byte [rax+0x01], cl ; ret ; (1 found)
0x48103e: and byte [rax+0x09], cl ; lock movq xmm0, xmm0 ; ret ; (1 found)
0x429a9e: and byte [rax+0x39], cl ; retn 0x4473 ; (1 found)
0x41cca6: and byte [rax+0x39], cl ; retn 0x894C ; (1 found)
0x42ce92: and byte [rax+rcx-0x09], dh ; retn 0x0000 ; (1 found)
0x41f3d2: and byte [rax-0x00000001], bh ; pop rbx ; ret ; (1 found)
0x45e8f7: and byte [rax-0x39], cl ; retn 0xFFA0 ; (1 found)
0x467ecc: and byte [rax-0x77], cl ; ret ; (1 found)
0x427f5b: and byte [rax-0x77], cl ; retn 0x294C ; (1 found)
0x48d076: and byte [rax], al ; add byte [rax], al ; jmp rdx ; (1 found)
0x460ae5: and byte [rax], al ; add byte [rax], al ; syscall ; (1 found)
0x456078: and byte [rbp-0x22], dh ; lea rax, qword [rdi+rax+0x20] ; ret ; (1 found)
0x49fd27: and byte [rbp-0x25], dh ; lea rax, qword [rdi+rax*4+0x20] ; ret ; (1 found)
0x49fba7: and byte [rbp-0x3A], dh ; lea rax, qword [rdi+rax*4+0x20] ; ret ; (1 found)
0x455ee8: and byte [rbp-0x3A], dh ; lea rax, qword [rdi+rax+0x20] ; ret ; (1 found)
0x428ff2: and byte [rbp-0x77], cl ; retn 0x75E9 ; (2 found)
0x40403c: and byte [rbx+0x050B04E0], al ; retn 0x0F5D ; (1 found)
0x4612f8: and byte [rbx+0x2A7409FE], al ; mov eax, 0x00000048 ; syscall ; (1 found)
0x40daaa: and byte [rbx+0x5D], bl ; pop r12 ; ret ; (8 found)
0x45c365: and byte [rbx+rcx*4+0x34], cl ; retn 0x0F41 ; (1 found)
0x47f6a6: and byte [rcx+0x0FFFFFE2], al ; add byte [rcx], cl ; retn 0x9274 ; (1 found)
0x48808c: and byte [rcx-0x77], cl ; retn 0xF748 ; (1 found)
0x45ea35: and byte [rcx-0x7CB7BFBD], cl ; ret ; (1 found)
0x43502d: and byte [rcx], ch ; enter 0xF8C5, 0x77 ; ret ; (1 found)
0x455a89: and byte [rdi], bh ; ret ; (8 found)
0x455f50: and byte [rdi], bh ; retn 0x6200 ; (6 found)
0x455a63: and byte [rdi], bh ; retn 0xC500 ; (10 found)
0x459723: and byte [rdi], bl ; ret ; (2 found)
0x459685: and byte [rdi], bl ; retn 0x6200 ; (4 found)
0x4a042e: and byte [rdi], bl ; retn 0xC500 ; (1 found)
0x451c22: and byte [rdi], cl ; adc  [rdi+0x30], eax ; ret ; (1 found)
0x41bbff: and byte [rdi], cl ; test  [rdx-0x77000000], edi ; retn 0xE281 ; (1 found)
0x4b5b69: and byte [rdi], cl ; xchg eax, ebp ; retn 0xC931 ; (1 found)
0x4578ab: and byte [rdx-0x5F], 0xC5 ; add bh, ch ; jmp qword [rsi+0x66] ; (1 found)
0x454c8d: and byte [rsi], ah ; ret ; (1 found)
0x454c7f: and byte [rsi], ah ; retn 0xFBC5 ; (1 found)
0x49231a: and cl, bl ; clc ; jmp qword [rsi-0x70] ; (1 found)
0x488dc8: and cl, ch ; sal ch, 0xFF ; jmp qword [rsi-0x70] ; (1 found)
0x491024: and cl, ch ; ud0 edi, edi ; jmp qword [rsi+0x0F] ; (1 found)
0x45aada: and eax,  [rbp+0x490F44DB] ; ret ; (1 found)
0x41a0eb: and eax,  [rcx] ; add byte [rcx-0x77], cl ; retn 0x48E9 ; (1 found)
0x405bdf: and eax, 0x00000000 ; ret ; (5 found)
0x4920cd: and eax, 0x00000010 ; mov byte [rax+0x00000972], 0x00 ; ret ; (1 found)
0x425868: and eax, 0x00000010 ; ret ; (1 found)
0x4b3d9c: and eax, 0x00000048 ; ret ; (1 found)
0x424b7e: and eax, 0x000002F8 ; ret ; (2 found)
0x4258e1: and eax, 0x00000300 ; call 0x00000000 ; (2 found)
0x42b7c6: and eax, 0x01 ; cmovne rax, rdx ; ret ; (1 found)
0x492139: and eax, 0x01 ; mov  [0x00000000004F53D0], eax ; ret ; (1 found)
0x47f868: and eax, 0x02 ; sub eax, 0x01 ; ret ; (1 found)
0x42c2e7: and eax, 0x48000029 ; cmovne eax, edx ; ret ; (1 found)
0x42d477: and eax, 0x48000073 ; cmove eax, edx ; ret ; (1 found)
0x4ab2f8: and eax, 0x8348DE74 ; ret ; (1 found)
0x40f3d5: and ecx,  [rax-0x7D] ; ret ; (1 found)
0x45ae04: and ecx,  [rbp+0x63] ; retn 0x8D45 ; (1 found)
0x4b38a9: and ecx, 0x39447FFF ; ret ; (1 found)
0x41ede3: and edi, esi ; jmp qword [rsi+0x2E] ; (1 found)
0x4bf5e3: and edx, edi ; jmp qword [rsi+0x2E] ; (1 found)
0x492745: and esi, 0x00000080 ; syscall ; (1 found)
0x492f77: and esi, 0x00000080 ; xor sil, 0x81 ; syscall ; (1 found)
0x472d1b: and esp, esp ; clc ; call qword [rax-0x05E1F00D] ; (1 found)
0x4558ab: bsf eax, eax ; add rax, rcx ; ret ; (4 found)
0x434980: bsf eax, eax ; add rax, rdi ; ret ; (27 found)
0x456331: bsf eax, eax ; add rax, rdx ; ret ; (2 found)
0x457360: bsf eax, eax ; lea eax,  [rcx+rax-0x00000081] ; ret ; (2 found)
0x4595d0: bsf eax, eax ; lea eax,  [rcx+rax-0x09] ; ret ; (2 found)
0x4595c0: bsf eax, eax ; lea eax,  [rcx+rax-0x11] ; ret ; (2 found)
0x4595b0: bsf eax, eax ; lea eax,  [rcx+rax-0x19] ; ret ; (2 found)
0x457390: bsf eax, eax ; lea eax,  [rcx+rax-0x21] ; ret ; (4 found)
0x457380: bsf eax, eax ; lea eax,  [rcx+rax-0x41] ; ret ; (2 found)
0x457370: bsf eax, eax ; lea eax,  [rcx+rax-0x61] ; ret ; (2 found)
0x434990: bsf eax, eax ; lea rax, qword [rax+rdi+0x10] ; ret ; (3 found)
0x4349a0: bsf eax, eax ; lea rax, qword [rax+rdi+0x20] ; ret ; (3 found)
0x434970: bsf eax, eax ; lea rax, qword [rax+rdi-0x10] ; ret ; (3 found)
0x49ffe0: bsf eax, eax ; lea rax, qword [rdi+rax*4+0x00000080] ; ret ; (10 found)
0x4a0470: bsf eax, eax ; lea rax, qword [rdi+rax*4+0x000000A0] ; ret ; (2 found)
0x4a0480: bsf eax, eax ; lea rax, qword [rdi+rax*4+0x000000C0] ; ret ; (2 found)
0x4a0446: bsf eax, eax ; lea rax, qword [rdi+rax*4+0x000000E0] ; ret ; (2 found)
0x49ffb0: bsf eax, eax ; lea rax, qword [rdi+rax*4+0x20] ; ret ; (4 found)
0x49ffc0: bsf eax, eax ; lea rax, qword [rdi+rax*4+0x40] ; ret ; (8 found)
0x49ffd0: bsf eax, eax ; lea rax, qword [rdi+rax*4+0x60] ; ret ; (8 found)
0x49ff36: bsf eax, eax ; lea rax, qword [rdi+rax*4] ; ret ; (8 found)
0x4558f0: bsf eax, eax ; lea rax, qword [rdi+rax+0x00000080] ; ret ; (16 found)
0x49dce0: bsf eax, eax ; lea rax, qword [rdi+rax+0x000000A0] ; ret ; (2 found)
0x49dcf0: bsf eax, eax ; lea rax, qword [rdi+rax+0x000000C0] ; ret ; (2 found)
0x49dcc3: bsf eax, eax ; lea rax, qword [rdi+rax+0x000000E0] ; ret ; (2 found)
0x45972f: bsf eax, eax ; lea rax, qword [rdi+rax+0x10] ; ret ; (4 found)
0x4558c0: bsf eax, eax ; lea rax, qword [rdi+rax+0x20] ; ret ; (14 found)
0x434959: bsf eax, eax ; lea rax, qword [rdi+rax+0x30] ; ret ; (3 found)
0x4558d0: bsf eax, eax ; lea rax, qword [rdi+rax+0x40] ; ret ; (19 found)
0x4558e0: bsf eax, eax ; lea rax, qword [rdi+rax+0x60] ; ret ; (16 found)
0x448797: bsf eax, eax ; lea rax, qword [rdi+rax] ; ret ; (4 found)
0x456c2b: bsf eax, eax ; ret ; (18 found)
0x4496a9: bsf eax, eax ; vzeroupper ; ret ; (8 found)
0x4492fa: bsf eax, edx ; ret ; (6 found)
0x458cc8: bsf eax, edx ; shr rax, 0x02 ; ret ; (6 found)
0x456d22: bsf rax, rax ; add rax, rdi ; ret ; (4 found)
0x4562c7: bsf rax, rax ; lea rax, qword [rdi+rax+0x40] ; ret ; (6 found)
0x4488b0: bsf rax, rax ; lea rax, qword [rdi+rax] ; ret ; (1 found)
0x449342: bsf rax, rdx ; ret ; (5 found)
0x458cc7: bsf rax, rdx ; shr rax, 0x02 ; ret ; (5 found)
0x448e4b: bsr eax, eax ; add rax, rdi ; ret ; (1 found)
0x45772d: bsr eax, eax ; lea rax, qword [rdi+rax-0x20] ; ret ; (3 found)
0x4490db: bsr eax, esi ; add rax, rdi ; ret ; (1 found)
0x448fe9: bsr esi, esi ; lea rax, qword [rcx+rsi] ; ret ; (1 found)
0x448ee5: bsr esi, esi ; lea rax, qword [rdi+rsi] ; ret ; (1 found)
0x448e4a: bsr rax, rax ; add rax, rdi ; ret ; (1 found)
0x4490da: bsr rax, rsi ; add rax, rdi ; ret ; (1 found)
0x448fe6: bsr rsi, rsi ; lea rax, qword [rcx+rsi] ; ret ; (3 found)
0x448ee4: bsr rsi, rsi ; lea rax, qword [rdi+rsi] ; ret ; (1 found)
0x463966: bswap eax ; ret ; (1 found)
0x457351: bts eax, esi ; bsf eax, eax ; ret ; (2 found)
0x457350: bts rax, rsi ; bsf eax, eax ; ret ; (2 found)
0x404c67: call 0x00000000 ; (8 found)
0x41665a: call qword [r10+rax*8] ; (2 found)
0x420201: call qword [r12+0x00000080] ; (1 found)
0x420e99: call qword [r12+0x00000088] ; (1 found)
0x420653: call qword [r12+0x00000090] ; (2 found)
0x423c1e: call qword [r12+0x18] ; (1 found)
0x417917: call qword [r12+0x38] ; (2 found)
0x420c72: call qword [r12+0x48] ; (1 found)
0x41f1bb: call qword [r12+0x70] ; (2 found)
0x41d4b4: call qword [r13+0x00000080] ; (1 found)
0x41fce4: call qword [r13+0x00000090] ; (1 found)
0x4159a6: call qword [r13+0x38] ; (8 found)
0x41ff09: call qword [r13+0x40] ; (1 found)
0x422e42: call qword [r13+0x60] ; (1 found)
0x4a758d: call qword [r13+0x68] ; (1 found)
0x41d1d5: call qword [r14+0x00000080] ; (3 found)
0x41d0ef: call qword [r14+0x00000090] ; (2 found)
0x4203a3: call qword [r14+0x18] ; (4 found)
0x4916b1: call qword [r14+0x20] ; (1 found)
0x41ac2f: call qword [r14+0x38] ; (8 found)
0x4aebac: call qword [r14+0x48] ; (1 found)
0x420d5c: call qword [r14+0x78] ; (1 found)
0x404cf9: call qword [r14+r15*8] ; (2 found)
0x41f8df: call qword [r15+0x00000080] ; (1 found)
0x41f2c1: call qword [r15+0x18] ; (1 found)
0x418de9: call qword [r15+0x38] ; (6 found)
0x41832a: call qword [r8+rcx*8-0x40] ; (2 found)
0x41f807: call qword [rax+0x00000080] ; (2 found)
0x41f699: call qword [rax+0x00000090] ; (1 found)
0x4a642e: call qword [rax+0x00002FBE] ; (1 found)
0x41233e: call qword [rax+0x00020025] ; (1 found)
0x493b3e: call qword [rax+0x000BBC41] ; (1 found)
0x428d0e: call qword [rax+0x0020BD41] ; (1 found)
0x474a7e: call qword [rax+0x009E3D48] ; (1 found)
0x49befe: call qword [rax+0x00EA8149] ; (13 found)
0x47454e: call qword [rax+0x01428D41] ; (1 found)
0x4b42de: call qword [rax+0x02C74864] ; (1 found)
0x485fee: call qword [rax+0x04003D66] ; (1 found)
0x46b71e: call qword [rax+0x05FA8341] ; (1 found)
0x46e2fe: call qword [rax+0x082444C7] ; (1 found)
0x48fa2e: call qword [rax+0x084A8B44] ; (1 found)
0x4bce4e: call qword [rax+0x084F8B4C] ; (1 found)
0x4ad81e: call qword [rax+0x08668B45] ; (1 found)
0x48ae3e: call qword [rax+0x087E8B48] ; (2 found)
0x485fde: call qword [rax+0x0C003D66] ; (1 found)
0x48ecce: call qword [rax+0x0F09FF83] ; (1 found)
0x4806ee: call qword [rax+0x0F66C031] ; (1 found)
0x48baae: call qword [rax+0x0FD2854D] ; (1 found)
0x42adbe: call qword [rax+0x10C48348] ; (2 found)
0x42837e: call qword [rax+0x110D8B44] ; (1 found)
0x453f0e: call qword [rax+0x1789168B] ; (1 found)
0x4683fe: call qword [rax+0x18508B48] ; (1 found)
0x41cea0: call qword [rax+0x18] ; (2 found)
0x4873ae: call qword [rax+0x2085C748] ; (1 found)
0x480cee: call qword [rax+0x24048B48] ; (2 found)
0x4b446e: call qword [rax+0x243C8948] ; (1 found)
0x48666e: call qword [rax+0x24448B49] ; (1 found)
0x4a216e: call qword [rax+0x24548B48] ; (1 found)
0x4aaade: call qword [rax+0x24548B49] ; (1 found)
0x41d79e: call qword [rax+0x24748948] ; (1 found)
0x419cae: call qword [rax+0x24848B48] ; (1 found)
0x4a3f6e: call qword [rax+0x28788B48] ; (1 found)
0x48cb5e: call qword [rax+0x309D8944] ; (1 found)
0x4b97ee: call qword [rax+0x31C0894C] ; (1 found)
0x4a30ee: call qword [rax+0x344C8348] ; (1 found)
0x41641b: call qword [rax+0x38] ; (4 found)
0x4913ce: call qword [rax+0x40788B48] ; (1 found)
0x41853e: call qword [rax+0x409D894C] ; (1 found)
0x40d08e: call qword [rax+0x41158B4C] ; (1 found)
0x42750e: call qword [rax+0x41C93145] ; (1 found)
0x4afe01: call qword [rax+0x44B84D8B] ; (1 found)
0x4886ee: call qword [rax+0x45B60F41] ; (1 found)
0x48f6be: call qword [rax+0x45F98949] ; (1 found)
0x402d68: call qword [rax+0x48000001] ; (1 found)
0x47fcae: call qword [rax+0x48068B48] ; (1 found)
0x4096ae: call qword [rax+0x480AB60F] ; (1 found)
0x48b84e: call qword [rax+0x4817048D] ; (1 found)
0x422c6e: call qword [rax+0x487B8B48] ; (1 found)
0x4862de: call qword [rax+0x48858B48] ; (1 found)
0x48cb3e: call qword [rax+0x48BD8B48] ; (1 found)
0x4a8aee: call qword [rax+0x48C28948] ; (1 found)
0x4b875e: call qword [rax+0x48D8894C] ; (1 found)
0x47e83e: call qword [rax+0x48E0894C] ; (2 found)
0x49321b: call qword [rax+0x48] ; (2 found)
0x482c6e: call qword [rax+0x49F0894C] ; (1 found)
0x4682ae: call qword [rax+0x4C378B49] ; (1 found)
0x4079fe: call qword [rax+0x4CC03145] ; (2 found)
0x48c0ee: call qword [rax+0x4CD7894C] ; (1 found)
0x4b45ae: call qword [rax+0x50B78B48] ; (1 found)
0x42bd25: call qword [rax+0x521D8948] ; (1 found)
0x47712e: call qword [rax+0x56415741] ; (4 found)
0x453b3e: call qword [rax+0x660EB70F] ; (1 found)
0x421e8e: call qword [rax+0x68538B48] ; (1 found)
0x4910fb: call qword [rax+0x68] ; (1 found)
0x46652e: call qword [rax+0x6DE9C031] ; (1 found)
0x45444e: call qword [rax+0x6F7EA1C4] ; (1 found)
0x41cb32: call qword [rax+0x70] ; (2 found)
0x4526fe: call qword [rax+0x74C98548] ; (1 found)
0x4255be: call qword [rax+0x74E48545] ; (1 found)
0x462b6e: call qword [rax+0x74F5394C] ; (1 found)
0x4bc56b: call qword [rax+0x74] ; (2 found)
0x407fbe: call qword [rax+0x7880C931] ; (1 found)
0x420499: call qword [rax+0x78] ; (1 found)
0x41832b: call qword [rax+rcx*8-0x40] ; (2 found)
0x490cfe: call qword [rax-0x00000048] ; (2 found)
0x4b0058: call qword [rax-0x00043517] ; (1 found)
0x4a4952: call qword [rax-0x00083817] ; (1 found)
0x41fafe: call qword [rax-0x000CA418] ; (1 found)
0x41ff3e: call qword [rax-0x0010E418] ; (1 found)
0x420f7e: call qword [rax-0x00212418] ; (1 found)
0x4a405e: call qword [rax-0x01077A3A] ; (1 found)
0x4b574e: call qword [rax-0x04AF7A77] ; (1 found)
0x40575e: call qword [rax-0x05E1F00D] ; (28 found)
0x40277e: call qword [rax-0x07BA74B8] ; (2 found)
0x42c02e: call qword [rax-0x0876B370] ; (1 found)
0x41761e: call qword [rax-0x089F6209] ; (1 found)
0x488e7e: call qword [rax-0x0F3F38B8] ; (1 found)
0x461d9e: call qword [rax-0x160B76B3] ; (1 found)
0x45ef0e: call qword [rax-0x1612CEBB] ; (1 found)
0x49278e: call qword [rax-0x162276BF] ; (1 found)
0x4b9e6e: call qword [rax-0x162876B8] ; (1 found)
0x4bdace: call qword [rax-0x163E76B8] ; (1 found)
0x42a88e: call qword [rax-0x170076B4] ; (1 found)
0x48d45e: call qword [rax-0x171876B4] ; (2 found)
0x403cce: call qword [rax-0x173E2777] ; (1 found)
0x40290b: call qword [rax-0x17BA74B8] ; (1 found)
0x47440e: call qword [rax-0x17C474B8] ; (1 found)
0x4019e4: call qword [rax-0x18] ; (5 found)
0x41d66e: call qword [rax-0x275074B7] ; (1 found)
0x40b20e: call qword [rax-0x36CE2DCF] ; (1 found)
0x4b206c: call qword [rax-0x376974BF] ; (1 found)
0x49d6be: call qword [rax-0x3E28023B] ; (1 found)
0x49d72e: call qword [rax-0x3F43F00D] ; (2 found)
0x402b13: call qword [rax-0x3F7A74B8] ; (1 found)
0x41c06e: call qword [rax-0x41FB3380] ; (1 found)
0x4afc3e: call qword [rax-0x57447CB8] ; (1 found)
0x4610be: call qword [rax-0x5F3C38B8] ; (2 found)
0x4a296e: call qword [rax-0x5F3F38B8] ; (2 found)
0x4b056e: call qword [rax-0x6219FA39] ; (1 found)
0x41cf2e: call qword [rax-0x76AAABBF] ; (1 found)
0x4bce7e: call qword [rax-0x76B6A8BF] ; (1 found)
0x4b2cfe: call qword [rax-0x76B6AABF] ; (1 found)
0x45a22e: call qword [rax-0x76D272B4] ; (1 found)
0x48f68e: call qword [rax-0x7CFBBD75] ; (1 found)
0x42bced: call qword [rax-0x7DE276B8] ; (1 found)
0x4529ee: call qword [rax-0x7E2D76B7] ; (1 found)
0x4160ee: call qword [rax-0x7F2376BF] ; (2 found)
0x4065ce: call qword [rax-0x7F8274B8] ; (1 found)
0x402e36: call qword [rax] ; (18 found)
0x41d4b5: call qword [rbp+0x00000080] ; (6 found)
0x41fce5: call qword [rbp+0x00000090] ; (1 found)
0x4221f3: call qword [rbp+0x18] ; (2 found)
0x422844: call qword [rbp+0x20] ; (3 found)
0x423364: call qword [rbp+0x30] ; (4 found)
0x4159a7: call qword [rbp+0x38] ; (10 found)
0x41ff0a: call qword [rbp+0x40] ; (1 found)
0x4a8553: call qword [rbp+0x53] ; (1 found)
0x41c148: call qword [rbp+0x60] ; (2 found)
0x42278e: call qword [rbp+0x68] ; (2 found)
0x42007c: call qword [rbp+0x70] ; (1 found)
0x403438: call qword [rbp+rbx*8+0x00] ; (1 found)
0x41bfb0: call qword [rbx+0x00000080] ; (5 found)
0x4216f5: call qword [rbx+0x00000088] ; (1 found)
0x48fdbe: call qword [rbx+0x00000090] ; (1 found)
0x4049e0: call qword [rbx+0x10] ; (2 found)
0x42245a: call qword [rbx+0x18] ; (3 found)
0x419433: call qword [rbx+0x38] ; (3 found)
0x45d696: call qword [rbx+0x48924924] ; (2 found)
0x463b9d: call qword [rbx+0x48] ; (4 found)
0x40c438: call qword [rbx] ; (5 found)
0x415ea9: call qword [rcx+0x38] ; (6 found)
0x4021c3: call qword [rcx+0x48] ; (1 found)
0x4021cb: call qword [rcx+0x49] ; (1 found)
0x42381d: call qword [rcx+0x58] ; (1 found)
0x402c77: call qword [rcx+rax-0x72B80000] ; (1 found)
0x485e32: call qword [rcx] ; (5 found)
0x41f8e0: call qword [rdi+0x00000080] ; (1 found)
0x41f2c2: call qword [rdi+0x18] ; (1 found)
0x418dea: call qword [rdi+0x38] ; (6 found)
0x485edb: call qword [rdi+rcx] ; (1 found)
0x423541: call qword [rdx+0x18] ; (1 found)
0x41665b: call qword [rdx+rax*8] ; (2 found)
0x4a83ad: call qword [rdx-0x76B70005] ; (1 found)
0x41d1d6: call qword [rsi+0x00000080] ; (3 found)
0x41d0f0: call qword [rsi+0x00000090] ; (2 found)
0x4203a4: call qword [rsi+0x18] ; (4 found)
0x4916b2: call qword [rsi+0x20] ; (1 found)
0x41ac30: call qword [rsi+0x38] ; (8 found)
0x4aebad: call qword [rsi+0x48] ; (1 found)
0x420d5d: call qword [rsi+0x78] ; (1 found)
0x404cfa: call qword [rsi+rdi*8] ; (2 found)
0x495e82: call qword [rsi] ; (1 found)
0x420202: call qword [rsp+0x00000080] ; (1 found)
0x420e9a: call qword [rsp+0x00000088] ; (1 found)
0x420654: call qword [rsp+0x00000090] ; (2 found)
0x401918: call qword [rsp+0x00] ; (1 found)
0x423c1f: call qword [rsp+0x18] ; (1 found)
0x417918: call qword [rsp+0x38] ; (2 found)
0x420c73: call qword [rsp+0x48] ; (1 found)
0x41f1bd: call qword [rsp+0x70] ; (1 found)
0x4b09a5: call qword [rsp+rax+0x00] ; (1 found)
0x4ac945: call r11 ; (3 found)
0x4617c9: call r12 ; (15 found)
0x457adc: call r13 ; (5 found)
0x468829: call r14 ; (5 found)
0x40c31a: call r15 ; (6 found)
0x48f905: call r8 ; (1 found)
0x4ab17c: call r9 ; (4 found)
0x401014: call rax ; (54 found)
0x41e563: call rbp ; (16 found)
0x41e7cf: call rbx ; (35 found)
0x465576: call rcx ; (5 found)
0x40c31b: call rdi ; (7 found)
0x424d6f: call rdx ; (2 found)
0x46882a: call rsi ; (4 found)
0x42860d: call rsp ; (16 found)
0x4ac424: cdq ; cmc ; jmp qword [rsi+0x0F] ; (1 found)
0x468303: cdq ; mov seg?, cx ; jmp qword [rsi+0x0F] ; (1 found)
0x428da3: cdq ; retn 0x0009 ; (1 found)
0x42c43f: cdq ; std ; jmp qword [rsi+0x0F] ; (1 found)
0x401d3e: cdqe ; leave ; ret ; (1 found)
0x4240e7: clc ; add  [rdi+0x05], edi ; ret ; (1 found)
0x489ac1: clc ; add  [rdi+0x0B], edi ; ret ; (1 found)
0x48b500: clc ; add cl, byte [rax+0x29] ; retn 0x0F48 ; (2 found)
0x468eaf: clc ; add eax, 0x31F63100 ; jmp qword [rsi+0x0F] ; (2 found)
0x468867: clc ; add eax, 0x3D8D4800 ; retn 0x05F8 ; (1 found)
0x43480f: clc ; add rax, rcx ; ret ; (4 found)
0x463965: clc ; bswap eax ; ret ; (1 found)
0x47712d: clc ; call qword [rax+0x56415741] ; (2 found)
0x472d1d: clc ; call qword [rax-0x05E1F00D] ; (1 found)
0x4a1d8c: clc ; dec  [rax-0x77] ; ret ; (1 found)
0x4a52fe: clc ; dec  [rax-0x77] ; retn 0x8548 ; (2 found)
0x48a39c: clc ; idiv bh ; jmp qword [rax+rcx*2-0x75] ; (1 found)
0x477488: clc ; jmp qword [rsi+0x0F] ; (9 found)
0x492414: clc ; jmp qword [rsi+0x2E] ; (4 found)
0x4a1f27: clc ; jmp qword [rsi+0x48] ; (1 found)
0x47ccd0: clc ; jmp qword [rsi+0x66] ; (4 found)
0x4816ec: clc ; jmp qword [rsi-0x70] ; (2 found)
0x4032aa: clc ; jmp rax ; (1 found)
0x402924: clc ; leave ; ret ; (4 found)
0x4376c3: clc ; mov qword [rdi-0x08], rdx ; ret ; (4 found)
0x403434: clc ; nop  [rax] ; call qword [rbp+rbx*8+0x00] ; (1 found)
0x41ad5b: clc ; ret ; (152 found)
0x463975: clc ; rol ax, 0x0008 ; ret ; (1 found)
0x458ddf: clc ; shr rax, 0x02 ; ret ; (3 found)
0x4349e1: clc ; vzeroupper ; ret ; (76 found)
0x4ad340: cld ; cmp eax, 0xC748FFF5 ; retn 0xFFFF ; (1 found)
0x45a3a6: cld ; dec  [rax-0x77] ; ret ; (4 found)
0x46459d: cld ; dec  [rax-0x77] ; retn 0x8548 ; (1 found)
0x458727: cld ; jmp qword [rsi+0x0F] ; (7 found)
0x4a1b30: cld ; jmp qword [rsi+0x2E] ; (1 found)
0x4a0abe: cld ; jmp qword [rsi+0x66] ; (3 found)
0x49e27c: cld ; jmp qword [rsi-0x70] ; (1 found)
0x437e32: cld ; mov  [rdi-0x04], edx ; ret ; (4 found)
0x4505d9: cld ; mov  [rdi], esi ; ret ; (3 found)
0x4946c6: cld ; or byte [rax+0x0F], cl ; ret ; (1 found)
0x437711: cld ; ret ; (120 found)
0x451e25: cld ; vzeroupper ; ret ; (1 found)
0x46cbf8: cli ; add al, 0x77 ; retn 0x3948 ; (2 found)
0x45fd85: cli ; dec  [rax-0x77] ; ret ; (1 found)
0x4becf1: cli ; dec  [rax-0x7D] ; ret ; (1 found)
0x458138: cli ; jmp qword [rsi+0x0F] ; (6 found)
0x458b44: cli ; jmp qword [rsi+0x2E] ; (11 found)
0x4b4753: cli ; jmp qword [rsi+0x66] ; (2 found)
0x4b632c: cli ; jmp qword [rsi-0x70] ; (1 found)
0x45c9a4: cli ; jmp rdx ; (1 found)
0x466653: cli ; lea rax, qword [0x00000000004F3380] ; ret ; (1 found)
0x438238: cli ; mov  [rdi-0x04], ecx ; ret ; (4 found)
0x4af533: cli ; mov eax,  [0x00000000004F9C20] ; ret ; (1 found)
0x4614e3: cli ; mov eax, 0x00000001 ; syscall ; (1 found)
0x461293: cli ; mov eax, 0x00000003 ; syscall ; (1 found)
0x460923: cli ; mov eax, 0x00000008 ; syscall ; (1 found)
0x461743: cli ; mov eax, 0x0000000A ; syscall ; (1 found)
0x461713: cli ; mov eax, 0x0000000B ; syscall ; (1 found)
0x461553: cli ; mov eax, 0x0000000C ; syscall ; (1 found)
0x460453: cli ; mov eax, 0x00000018 ; syscall ; (1 found)
0x461773: cli ; mov eax, 0x0000001C ; syscall ; (1 found)
0x460ae3: cli ; mov eax, 0x00000020 ; syscall ; (1 found)
0x4b4c33: cli ; mov eax, 0x00000026 ; syscall ; (1 found)
0x45fd23: cli ; mov eax, 0x00000027 ; syscall ; (1 found)
0x4635d3: cli ; mov eax, 0x00000029 ; syscall ; (1 found)
0x463533: cli ; mov eax, 0x00000031 ; syscall ; (1 found)
0x463563: cli ; mov eax, 0x00000032 ; syscall ; (1 found)
0x4a1923: cli ; mov eax, 0x0000003F ; syscall ; (1 found)
0x460b13: cli ; mov eax, 0x00000050 ; syscall ; (1 found)
0x463073: cli ; mov eax, 0x00000063 ; syscall ; (1 found)
0x4a1953: cli ; mov eax, 0x00000066 ; syscall ; (1 found)
0x4a1973: cli ; mov eax, 0x00000068 ; syscall ; (1 found)
0x4a1963: cli ; mov eax, 0x0000006B ; syscall ; (1 found)
0x4a1983: cli ; mov eax, 0x0000006C ; syscall ; (1 found)
0x4a1993: cli ; mov eax, 0x0000008F ; syscall ; (1 found)
0x4a19c3: cli ; mov eax, 0x00000090 ; syscall ; (1 found)
0x4a19f3: cli ; mov eax, 0x00000091 ; syscall ; (1 found)
0x4a1a23: cli ; mov eax, 0x00000092 ; syscall ; (1 found)
0x4a1a53: cli ; mov eax, 0x00000093 ; syscall ; (1 found)
0x422803: cli ; mov eax, 0xFFFFFFFF ; ret ; (3 found)
0x4bb863: cli ; mov qword [rdi+0x00000098], rsi ; ret ; (1 found)
0x423313: cli ; mov rax, 0xFFFFFFFFFFFFFFFF ; ret ; (3 found)
0x424033: cli ; mov rax, qword [0x00000000004F2260] ; ret ; (1 found)
0x4688e3: cli ; mov rax, qword [0x00000000004F9F60] ; ret ; (1 found)
0x4688f3: cli ; mov rax, qword [0x00000000004F9F68] ; ret ; (1 found)
0x472533: cli ; mov rax, qword [0x00000000004F9FA8] ; ret ; (1 found)
0x425863: cli ; mov rax, qword [fs:0x00000010] ; ret ; (1 found)
0x4ad9d3: cli ; mov rax, qword [rax+0x08] ; ret ; (1 found)
0x4bb7d3: cli ; mov rax, qword [rdi+0x00000090] ; ret ; (1 found)
0x4bb833: cli ; mov rax, qword [rdi+0x00000098] ; ret ; (1 found)
0x4bb873: cli ; mov rax, qword [rdi+0x000000A0] ; ret ; (1 found)
0x4bb8d3: cli ; mov rax, qword [rdi+0x000000A8] ; ret ; (1 found)
0x4bb8c3: cli ; mov rax, qword [rdi+0x000000B0] ; ret ; (1 found)
0x4bb883: cli ; mov rax, qword [rdi+0x000000B8] ; ret ; (1 found)
0x424053: cli ; mov rax, qword [rdi+0x68] ; ret ; (1 found)
0x424063: cli ; mov rax, rdi ; ret ; (1 found)
0x419b62: cli ; mov rdi, rbp ; call qword [r13+0x38] ; (1 found)
0x41942f: cli ; mov rdi, rbp ; call qword [rbx+0x38] ; (1 found)
0x41a20a: cli ; out 0xFF, eax ; jmp qword [rsi-0x70] ; (1 found)
0x401a93: cli ; ret ; (5 found)
0x458b42: cli ; sar edx, 1 ; jmp qword [rsi+0x2E] ; (1 found)
0x424b43: cli ; setnb al ; ret ; (1 found)
0x423293: cli ; xor eax, eax ; ret ; (3 found)
0x4614b3: cli ; xor eax, eax ; syscall ; (1 found)
0x4a8aed: cmc ; call qword [rax+0x48C28948] ; (1 found)
0x4b047d: cmc ; call qword [rax-0x05E1F00D] ; (3 found)
0x4b2cfd: cmc ; call qword [rax-0x76B6AABF] ; (1 found)
0x4b4324: cmc ; cli ; jmp qword [rsi+0x0F] ; (1 found)
0x4ad342: cmc ; dec  [rax-0x39] ; retn 0xFFFF ; (1 found)
0x4a1e59: cmc ; dec  [rax-0x77] ; ret ; (3 found)
0x4a2148: cmc ; dec  [rax-0x77] ; retn 0x8948 ; (1 found)
0x4a8538: cmc ; jmp qword [rsi+0x0F] ; (7 found)
0x4a8d33: cmc ; jmp qword [rsi+0x2E] ; (6 found)
0x4a6682: cmc ; jmp qword [rsi+0x66] ; (5 found)
0x43d0aa: cmc ; mov  [rdi-0x04], ecx ; ret ; (2 found)
0x437abd: cmc ; mov  [rdi-0x04], edx ; ret ; (36 found)
0x4a4c67: cmc ; ret ; (1 found)
0x404d07: cmc ; retn 0xFFFF ; (1 found)
0x44f637: cmc ; sub eax, edx ; ret ; (1 found)
0x424af0: cmovb eax, edx ; sub rax, qword [rdi+0x18] ; ret ; (1 found)
0x4575ba: cmovb eax, esi ; ret ; (2 found)
0x449ac7: cmovb eax, esi ; vzeroupper ; ret ; (1 found)
0x424aef: cmovb rax, rdx ; sub rax, qword [rdi+0x18] ; ret ; (1 found)
0x4a87ff: cmove eax, eax ; mov rax, r8 ; ret ; (1 found)
0x462d25: cmove eax, edx ; add rsp, 0x08 ; ret ; (1 found)
0x42c4e5: cmove eax, edx ; ret ; (33 found)
0x4b3e15: cmove esi, eax ; mov eax, 0x0000009E ; syscall ; (1 found)
0x4a87fe: cmove r8, rax ; mov rax, r8 ; ret ; (1 found)
0x42c4e4: cmove rax, rdx ; ret ; (32 found)
0x455dba: cmovl ecx,  [rcx+0x48F9174C] ; lea eax,  [rdi+rdx] ; ret ; (1 found)
0x49d82d: cmovle eax, ecx ; ret ; (4 found)
0x494d2d: cmovle eax, ecx ; vzeroupper ; ret ; (2 found)
0x49d82c: cmovle rax, rcx ; ret ; (4 found)
0x494d2c: cmovle rax, rcx ; vzeroupper ; ret ; (2 found)
0x425b03: cmovnbe eax, edx ; mov qword [0x00000000004F9418], rax ; ret ; (1 found)
0x4a18ed: cmovnbe edx, eax ; mov eax, 0x000000D9 ; syscall ; (1 found)
0x425b02: cmovnbe rax, rdx ; mov qword [0x00000000004F9418], rax ; ret ; (1 found)
0x4a18ec: cmovnbe rdx, rax ; mov eax, 0x000000D9 ; syscall ; (1 found)
0x4bb8a8: cmovne eax,  [rsp+0x10] ; add rsp, 0x28 ; ret ; (1 found)
0x41e6e4: cmovne eax, ecx ; ret ; (1 found)
0x448bca: cmovne eax, ecx ; vzeroupper ; ret ; (2 found)
0x42b7ca: cmovne eax, edx ; ret ; (20 found)
0x4bb8a7: cmovne rax, qword [rsp+0x10] ; add rsp, 0x28 ; ret ; (1 found)
0x41e6e2: cmovne rax, rcx ; ret ; (2 found)
0x448bc9: cmovne rax, rcx ; vzeroupper ; ret ; (2 found)
0x42b7c9: cmovne rax, rdx ; ret ; (20 found)
0x46a020: cmovs eax, edx ; ret ; (1 found)
0x426866: cmovs ecx,  [rbx-0x173EF7BE] ; add al, 0x39 ; ret ; (1 found)
0x44dad9: cmovs ecx,  [rcx-0x72B7F8A9] ; push cs ; ret ; (1 found)
0x46005a: cmp  [rax+0x00000001], 0xFB82BA48 ; jmp qword [rbx+0x0001FFDE] ; (1 found)
0x4bc9ce: cmp  [rax-0x0C], edx ; jmp qword [rsi+0x66] ; (1 found)
0x47615d: cmp  [rax-0x7D], ecx ; retn 0x4801 ; (1 found)
0x43cbd8: cmp  [rbx-0x01], 0xFFFFFFFF ; dec  [rax-0x007F] ; retn 0x0080 ; (2 found)
0x41e6e1: cmp  [rdx+0x48], eax ; cmovne eax, ecx ; ret ; (1 found)
0x42d22e: cmp  [rdx], eax ; add byte [rax+0x0F], cl ; retn 0x66C3 ; (1 found)
0x464303: cmp  [rdx], ebx ; cli ; jmp qword [rsi+0x0F] ; (1 found)
0x4bba6d: cmp ah, 0xFF ; jmp qword [rsi+0x0F] ; (2 found)
0x450dea: cmp ah, al ; vzeroupper ; ret ; (1 found)
0x456521: cmp ah, byte [rax] ; sub eax, edx ; ret ; (1 found)
0x411b30: cmp al, 0x00 ; add byte [rax-0x77], cl ; ret ; (1 found)
0x42c3c6: cmp al, 0x02 ; add byte [rax+0x0F], cl ; retn 0x66C3 ; (1 found)
0x4b8ba6: cmp al, 0x0F ; mov ds, word [0x8D41FFFF+rdi*8] ; ret ; (1 found)
0x4b8b75: cmp al, 0x0F ; mov gs, word [rax-0x72000003] ; ret ; (1 found)
0x461917: cmp al, 0x24 ; call rbx ; (4 found)
0x41f42b: cmp al, 0x4F ; add byte [rax+0x39], cl ; ret ; (5 found)
0x41d0cb: cmp al, 0x4F ; add byte [rax-0x39], cl ; ret ; (6 found)
0x4136d2: cmp al, 0x89 ; retn 0xC083 ; (1 found)
0x484082: cmp al, byte [0x000000001CFF2888] ; clc ; jmp qword [rsi+0x0F] ; (1 found)
0x411dbb: cmp al, byte [rax] ; add byte [rax-0x7D], cl ; ret ; (1 found)
0x434976: cmp al, dh ; ret ; (3 found)
0x434975: cmp al, r14L ; ret ; (3 found)
0x4bf74b: cmp bh, 0xFF ; dec  [rax-0x39] ; retn 0xF3A0 ; (1 found)
0x4065a1: cmp bh, 0xFF ; jmp qword [rax+rcx*2-0x75] ; (8 found)
0x457a6f: cmp bh, 0xFF ; jmp qword [rsi+0x0F] ; (1 found)
0x457c76: cmp bh, 0xFF ; jmp qword [rsi+0x48] ; (1 found)
0x45160e: cmp bh, bh ; ret ; (2 found)
0x49e05e: cmp bh, bl ; push rsi ; retn 0x7420 ; (1 found)
0x48fecc: cmp bh, ch ; call qword [rax-0x05E1F00D] ; (1 found)
0x420bc1: cmp byte [0xFFFFFFFF8986E83B], bl ; out 0xE8, eax ; ret ; (1 found)
0x4227c8: cmp byte [r11+0x5D], bl ; pop r12 ; ret ; (1 found)
0x41fec4: cmp byte [r8+0x0F], r9L ; retn 0x110F ; (2 found)
0x494c77: cmp byte [rax+0x01], cl ; clc ; ret ; (1 found)
0x41fec5: cmp byte [rax+0x0F], cl ; retn 0x110F ; (2 found)
0x4abd03: cmp byte [rax+0x29], cl ; enter 0x8D48, 0x04 ; retn 0x3948 ; (1 found)
0x4188d3: cmp byte [rax+0x39], cl ; ret ; (4 found)
0x4b07d3: cmp byte [rax+0x39], cl ; retn 0x1776 ; (1 found)
0x4bd236: cmp byte [rax+0x39], cl ; retn 0x3C74 ; (1 found)
0x4a3b23: cmp byte [rax+0x39], cl ; retn 0x4776 ; (1 found)
0x4bd26b: cmp byte [rax+0x39], cl ; retn 0xCB75 ; (1 found)
0x4b4343: cmp byte [rax-0x39], cl ; ret ; (1 found)
0x464eb8: cmp byte [rax-0x77], cl ; mov byte [rdx+0x50], 0x01 ; ret ; (2 found)
0x48f8b3: cmp byte [rax-0x77], cl ; retn 0x4F8D ; (1 found)
0x4885b7: cmp byte [rax-0x7D], cl ; ret ; (1 found)
0x4349a6: cmp byte [rax], ah ; ret ; (3 found)
0x45f831: cmp byte [rax], al ; add byte [rax], al ; syscall ; (1 found)
0x4500ce: cmp byte [rax], al ; retn 0x0F66 ; (1 found)
0x448574: cmp byte [rax], dh ; cmovne rax, rdx ; ret ; (2 found)
0x434996: cmp byte [rax], dl ; ret ; (3 found)
0x434995: cmp byte [rax], r10L ; ret ; (3 found)
0x4349a5: cmp byte [rax], r12L ; ret ; (3 found)
0x448573: cmp byte [rax], sil ; cmovne rax, rdx ; ret ; (2 found)
0x464e0e: cmp byte [rbp-0x6AF0BE37], al ; ret ; (1 found)
0x4258c0: cmp byte [rbx+0x017408F8], al ; ret ; (1 found)
0x492086: cmp byte [rbx+0x017408FA], al ; ret ; (1 found)
0x4227c9: cmp byte [rbx+0x5D], bl ; pop r12 ; ret ; (1 found)
0x41e394: cmp byte [rbx+0x5D], bl ; ret ; (2 found)
0x419b5f: cmp byte [rcx+rcx*4-0x06], cl ; mov rdi, rbp ; call qword [r13+0x38] ; (1 found)
0x41942c: cmp byte [rcx+rcx*4-0x06], cl ; mov rdi, rbp ; call qword [rbx+0x38] ; (1 found)
0x4ac920: cmp byte [rcx-0x7D], cl ; retn 0x4908 ; (3 found)
0x418db4: cmp byte [rcx], ch ; ret ; (1 found)
0x43608a: cmp ch, 0xFF ; jmp qword [rsi+0x0F] ; (5 found)
0x4baf32: cmp cl, byte [rax-0x7D] ; retn 0x4801 ; (1 found)
0x4bc048: cmp dh, 0xFF ; jmp qword [rsi+0x0F] ; (1 found)
0x45077e: cmp dh, al ; ret ; (1 found)
0x457dc2: cmp dh, byte [rbp+0x09] ; add byte [rax+0x39], cl ; ret ; (1 found)
0x48fecb: cmp dil, r13L ; call qword [rax-0x05E1F00D] ; (1 found)
0x4bb98c: cmp dl, 0xFF ; dec  [rax-0x7D] ; retn 0x4C01 ; (1 found)
0x42d01e: cmp eax,  [rdx] ; add byte [rax+0x0F], cl ; retn 0x66C3 ; (1 found)
0x4651d9: cmp eax, 0x0006276D ; mov eax, 0x00000015 ; syscall ; (1 found)
0x429bb5: cmp eax, 0x000CF845 ; add byte [rbp+0x03], dh ; ret ; (1 found)
0x416d02: cmp eax, 0x000D7AB9 ; jmp qword [rdi+rax*8] ; (1 found)
0x421c62: cmp eax, 0x08C48348 ; ret ; (1 found)
0x4a8d2d: cmp eax, 0x0BE80003 ; sal ch, 1 ; jmp qword [rsi+0x2E] ; (1 found)
0x49e0ae: cmp eax, 0x0F48FFFB ; retn 0x66C3 ; (1 found)
0x449144: cmp eax, 0x89000001 ; retn 0x8948 ; (1 found)
0x4ad341: cmp eax, 0xC748FFF5 ; retn 0xFFFF ; (1 found)
0x4b40ed: cmp eax, 0xE80002AA ; sbb al, 0xF5 ; jmp qword [rsi+0x2E] ; (1 found)
0x4a1d32: cmp eax, 0xFFFFFFFF ; nop  [rax] ; ret ; (1 found)
0x410220: cmp ebp, 0xFFFFFFFF ; dec  [rcx-0x39] ; retn 0xFFA0 ; (1 found)
0x48c1d1: cmp ebx, 0x15E9FFFF ; in al, 0xFF ; jmp qword [rsi+0x0F] ; (1 found)
0x4b0056: cmp ebx, edi ; call qword [rax-0x00043517] ; (1 found)
0x467b48: cmp ecx,  [rax-0x7D] ; ret ; (2 found)
0x4ae816: cmp ecx, 0xE0757FFF ; mov eax, 0x00000001 ; ret ; (1 found)
0x4a246e: cmp ecx, ecx ; xor eax, eax ; ret ; (1 found)
0x4afdff: cmp edi, ebx ; call qword [rax+0x44B84D8B] ; (1 found)
0x49e08f: cmp edi, ebx ; dec  [rax+0x0F] ; retn 0x66C3 ; (1 found)
0x48d4fa: cmp edx, 0xFFFFFFFF ; jmp qword [rsi-0x70] ; (1 found)
0x424b42: cmp edx, edi ; setnb al ; ret ; (1 found)
0x46bece: cmp esi, 0xFFFFFFFF ; jmp qword [rsi+0x0F] ; (1 found)
0x4bafea: cmp esi, 0xFFFFFFFF ; jmp qword [rsi-0x70] ; (1 found)
0x4575b8: cmp esi, eax ; cmovb eax, esi ; ret ; (2 found)
0x47ff31: cmp esi, edi ; jmp qword [rsi+0x2E] ; (1 found)
0x460059: cmp qword [r8+0x00000001], 0xFFFFFFFFFB82BA48 ; jmp qword [rbx+0x0001FFDE] ; (1 found)
0x41e6df: cmp qword [rdx+0x48], r8 ; cmovne eax, ecx ; ret ; (2 found)
0x450de9: cmp r12L, al ; vzeroupper ; ret ; (1 found)
0x45077d: cmp r14L, al ; ret ; (1 found)
0x45160d: cmp r15L, dil ; ret ; (2 found)
0x424b41: cmp rdx, rdi ; setnb al ; ret ; (1 found)
0x4575b7: cmp rsi, rax ; cmovb eax, esi ; ret ; (2 found)
0x4af537: cmpsb ; add al, 0x00 ; ret ; (1 found)
0x49cf17: cmpsb ; add eax, 0x83480000 ; retn 0x4910 ; (1 found)
0x45fa4d: cmpsb ; cld ; jmp qword [rsi+0x0F] ; (1 found)
0x42c43e: cqo ; std ; jmp qword [rsi+0x0F] ; (1 found)
0x401d3f: cwde ; leave ; ret ; (1 found)
0x46827a: cwde ; mov rdi, r12 ; call rax ; (2 found)
0x4aecd2: cwde ; sub al, 0xF5 ; jmp qword [rsi+0x2E] ; (1 found)
0x48fb94: dec  [r9-0x74B6CFBD] ; add byte [rcx+0x39], cl ; ret ; (1 found)
0x427dd8: dec  [r9-0x7B] ; ret ; (1 found)
0x40f939: dec  [rax+0x01] ; ret ; (12 found)
0x40ff11: dec  [rax+0x01] ; retn 0x0348 ; (1 found)
0x4a3a9e: dec  [rax+0x01] ; retn 0x3948 ; (1 found)
0x4490d9: dec  [rax+0x0F] ; mov ebp, 0xF80148C6 ; ret ; (1 found)
0x49e091: dec  [rax+0x0F] ; retn 0x66C3 ; (2 found)
0x46f9b1: dec  [rax+0x0F] ; retn 0x8948 ; (5 found)
0x4091af: dec  [rax+0x29] ; ret ; (3 found)
0x44b592: dec  [rax+0x29] ; retn 0x280F ; (2 found)
0x4a93a5: dec  [rax+0x29] ; retn 0x394C ; (1 found)
0x40b10f: dec  [rax+0x39] ; ret ; (4 found)
0x41f631: dec  [rax+0x39] ; retn 0x860F ; (1 found)
0x424678: dec  [rax+0x39] ; ror byte [rax+0x0F], 1 ; retn 0x8949 ; (1 found)
0x47567a: dec  [rax+0x63] ; jmp qword [rax+rcx*2-0x75] ; (1 found)
0x4b98c8: dec  [rax+0x63] ; ret ; (1 found)
0x43cbdc: dec  [rax-0x007F] ; retn 0x0080 ; (2 found)
0x4049bf: dec  [rax-0x39] ; ret ; (8 found)
0x4bf7c6: dec  [rax-0x39] ; retn 0x0060 ; (1 found)
0x4bf818: dec  [rax-0x39] ; retn 0x05A0 ; (1 found)
0x4bf841: dec  [rax-0x39] ; retn 0x0600 ; (1 found)
0x4bf86a: dec  [rax-0x39] ; retn 0x0680 ; (1 found)
0x4bf893: dec  [rax-0x39] ; retn 0x0740 ; (1 found)
0x4bf8bc: dec  [rax-0x39] ; retn 0x07C0 ; (1 found)
0x4bf8e5: dec  [rax-0x39] ; retn 0x0820 ; (1 found)
0x4bf725: dec  [rax-0x39] ; retn 0x08E0 ; (1 found)
0x4bf74e: dec  [rax-0x39] ; retn 0xF3A0 ; (1 found)
0x4bf7ef: dec  [rax-0x39] ; retn 0xFDA0 ; (1 found)
0x4bf774: dec  [rax-0x39] ; retn 0xFE20 ; (1 found)
0x46079f: dec  [rax-0x39] ; retn 0xFFA0 ; (1 found)
0x4852be: dec  [rax-0x39] ; retn 0xFFE0 ; (2 found)
0x40dda3: dec  [rax-0x39] ; retn 0xFFFE ; (2 found)
0x4779e4: dec  [rax-0x39] ; retn 0xFFFF ; (9 found)
0x4bb140: dec  [rax-0x47] ; mov eax, 0x0000000F ; syscall ; (1 found)
0x455df1: dec  [rax-0x73] ; add al, 0x17 ; ret ; (2 found)
0x42039f: dec  [rax-0x77] ; out dx, eax ; call qword [r14+0x18] ; (1 found)
0x422456: dec  [rax-0x77] ; out dx, eax ; call qword [rbx+0x18] ; (2 found)
0x402871: dec  [rax-0x77] ; ret ; (40 found)
0x462c0a: dec  [rax-0x77] ; retn 0x0ABE ; (1 found)
0x426a45: dec  [rax-0x77] ; retn 0x3948 ; (1 found)
0x4a9392: dec  [rax-0x77] ; retn 0x81E9 ; (1 found)
0x4a900e: dec  [rax-0x77] ; retn 0x8341 ; (1 found)
0x4152da: dec  [rax-0x77] ; retn 0x8348 ; (2 found)
0x410359: dec  [rax-0x77] ; retn 0x83E9 ; (1 found)
0x45b31f: dec  [rax-0x77] ; retn 0x8548 ; (4 found)
0x4a2149: dec  [rax-0x77] ; retn 0x8948 ; (2 found)
0x4aaa65: dec  [rax-0x77] ; retn 0x894C ; (1 found)
0x40f1e1: dec  [rax-0x77] ; retn 0x8B48 ; (1 found)
0x40200b: dec  [rax-0x77] ; retn 0x8D48 ; (8 found)
0x4a93b1: dec  [rax-0x77] ; retn 0xB8EB ; (1 found)
0x406ef2: dec  [rax-0x77] ; retn 0xC031 ; (3 found)
0x4bfd1c: dec  [rax-0x77] ; retn 0xC148 ; (3 found)
0x4bc217: dec  [rax-0x77] ; retn 0xE0E8 ; (1 found)
0x478a61: dec  [rax-0x77] ; retn 0xF748 ; (4 found)
0x45db7e: dec  [rax-0x77] ; ror  [rdi], 0xFFFFFF88 ; retn 0x0005 ; (1 found)
0x42acde: dec  [rax-0x7B] ; retn 0x840F ; (1 found)
0x4ab1bd: dec  [rax-0x7B] ; ror byte [rax+0x0F], 0x44 ; ret ; (2 found)
0x480b25: dec  [rax-0x7B] ; ror byte [rdi], 0x84 ; retn 0xFFFD ; (1 found)
0x428a0b: dec  [rax-0x7B] ; sal byte [rsp+rdi+0x48], 0x89 ; retn 0x8D4C ; (1 found)
0x407cea: dec  [rax-0x7D] ; ret ; (22 found)
0x419a74: dec  [rax-0x7D] ; retn 0x0F01 ; (1 found)
0x41a668: dec  [rax-0x7D] ; retn 0x0F03 ; (2 found)
0x48ecf6: dec  [rax-0x7D] ; retn 0x0F0C ; (1 found)
0x435728: dec  [rax-0x7D] ; retn 0x4880 ; (2 found)
0x40970a: dec  [rax-0x7D] ; retn 0x4901 ; (1 found)
0x4bb98f: dec  [rax-0x7D] ; retn 0x4C01 ; (1 found)
0x48de52: dec  [rax-0x7D] ; retn 0x6604 ; (1 found)
0x40f606: dec  [rax-0x7D] ; retn 0x8401 ; (1 found)
0x41b31a: dec  [rax-0x7D] ; rol byte [rdx], 0xEB ; retn 0x05B8 ; (1 found)
0x4a87da: dec  [rbp+0x0F] ; scasd ; retn 0x8348 ; (1 found)
0x4803bc: dec  [rbp+rcx*4+0x1C] ; ret ; (1 found)
0x45ea31: dec  [rbp+rcx*4+0x75] ; and byte [rcx-0x7CB7BFBD], cl ; ret ; (1 found)
0x467879: dec  [rbp+rcx*4+0x7B] ; jmp qword [rbp+rax*2-0x75] ; (1 found)
0x4b810a: dec  [rbp-0x76B63FB6] ; retn 0xD349 ; (1 found)
0x40ee56: dec  [rbp-0x77] ; dec byte [rbx-0x0005FF7B] ; jmp qword [rcx+rax*2-0x77] ; (2 found)
0x46f81a: dec  [rbp-0x77] ; ret ; (1 found)
0x470fec: dec  [rbp-0x77] ; retn 0xC1E9 ; (1 found)
0x45d7c7: dec  [rbp-0x7B] ; test byte [rdi], 0x84 ; ret ; (2 found)
0x404d56: dec  [rbx+0x0F4FEB15] ; add bh, dh ; retn 0x0000 ; (1 found)
0x4b0c16: dec  [rbx+rcx*4+0x25] ; retn 0x0426 ; (1 found)
0x4abbab: dec  [rbx+rcx*4-0x73] ; push 0x41FFFFFF ; call rcx ; (1 found)
0x4683f8: dec  [rbx-0x0000834B] ; call qword [rax+0x18508B48] ; (1 found)
0x406d78: dec  [rbx-0x0000C373] ; jmp qword [rcx+rcx*4+0x08] ; (3 found)
0x4a487c: dec  [rbx-0x0000DF7B] ; jmp qword [rsi+0x0F] ; (1 found)
0x41355b: dec  [rbx-0x0005FF7B] ; jmp qword [rcx+rax*2-0x77] ; (4 found)
0x423398: dec  [rbx-0x14F3DB8C] ; retn 0xF390 ; (1 found)
0x48eed0: dec  [rbx-0x7CB7FBB1] ; ret ; (1 found)
0x4b858b: dec  [rcx+0x09] ; retn 0xC031 ; (1 found)
0x46f3f9: dec  [rcx+0x3948FC51] ; ret ; (1 found)
0x45e032: dec  [rcx+0x63] ; ror  [rax+0x39], 1 ; retn 0x830F ; (1 found)
0x48614c: dec  [rcx+rcx*4+0x04] ; retn 0x85C7 ; (2 found)
0x487173: dec  [rcx+rcx*4+0x44] ; retn 0xE9F8 ; (1 found)
0x46943f: dec  [rcx+rcx*4+0x55] ; mov byte [rax-0x7D], cl ; ret ; (1 found)
0x48af7b: dec  [rcx+rcx*4-0x0E] ; call qword [r13+0x38] ; (1 found)
0x48c59e: dec  [rcx+rcx*4-0x16] ; mov rsi, r10 ; call qword [r14+0x38] ; (1 found)
0x48a54a: dec  [rcx+rcx*4-0x16] ; mov rsi, r10 ; call qword [r15+0x38] ; (1 found)
0x48b6c5: dec  [rcx+rcx*4-0x16] ; mov rsi, r15 ; call qword [r14+0x38] ; (1 found)
0x48b9fc: dec  [rcx+rcx*4-0x16] ; mov rsi, r15 ; call qword [rax+0x38] ; (1 found)
0x4a8e19: dec  [rcx+rcx*4-0x1E] ; mov eax, 0x00000014 ; syscall ; (1 found)
0x41f2bd: dec  [rcx+rcx*4-0x39] ; call qword [r15+0x18] ; (1 found)
0x41ce9c: dec  [rcx+rcx*4-0x39] ; call qword [rax+0x18] ; (1 found)
0x449ab5: dec  [rcx+rcx*4-0x40] ; vzeroupper ; ret ; (2 found)
0x4a3b96: dec  [rcx-0x00011743] ; jmp qword [rsi-0x7D] ; (1 found)
0x4b97dc: dec  [rcx-0x39] ; ret ; (1 found)
0x40f978: dec  [rcx-0x39] ; retn 0xFFA0 ; (19 found)
0x4bc68f: dec  [rcx-0x39] ; retn 0xFFFF ; (2 found)
0x48fb95: dec  [rcx-0x74B6CFBD] ; add byte [rcx+0x39], cl ; ret ; (1 found)
0x4bc45c: dec  [rcx-0x75] ; call rax ; (1 found)
0x470fe9: dec  [rcx-0x77] ; dec  [rbp-0x77] ; retn 0xC1E9 ; (1 found)
0x4176e0: dec  [rcx-0x77] ; ret ; (4 found)
0x48b218: dec  [rcx-0x77] ; retn 0x0F44 ; (1 found)
0x4943f3: dec  [rcx-0x77] ; retn 0x3948 ; (1 found)
0x4a4b33: dec  [rcx-0x77] ; retn 0x8348 ; (1 found)
0x468b7b: dec  [rcx-0x77] ; retn 0x8548 ; (1 found)
0x48c022: dec  [rcx-0x77] ; retn 0xF1E9 ; (1 found)
0x427dd9: dec  [rcx-0x7B] ; ret ; (1 found)
0x4b8f32: dec  [rcx-0x7D] ; ret ; (1 found)
0x4092e2: dec  [rcx-0x7D] ; vpsubsb xmm14, xmm15,  [rsi+rdi*2+0x2948FFFF] ; ret ; (1 found)
0x423068: dec  [rdi] ; adc  [rdi+0x000000A0], eax ; ret ; (2 found)
0x4ae758: dec  [rdi] ; add byte [rax+0x21], cl ; retn 0xC148 ; (1 found)
0x47f6aa: dec  [rdi] ; add byte [rcx], cl ; retn 0x9274 ; (1 found)
0x4114cc: dec  [rdi] ; lahf ; retn 0xD729 ; (3 found)
0x4afbc1: dec  [rdi] ; mov dh, 0x75 ; ret ; (1 found)
0x46a01f: dec  [rdi] ; retn 0x66C3 ; (1 found)
0x412f24: dec  [rdi] ; test  [rdx+rbp*8-0x38B60001], ebp ; retn 0xFFA0 ; (1 found)
0x4104a3: dec  [rdi] ; test  [rsi-0x76000020], ecx ; ret ; (1 found)
0x46d1ff: dec  [rdi] ; test byte [0xFFFFFFFFF746D20B], dh ; retn 0x0000 ; (1 found)
0x46d20b: dec  [rdi] ; test byte [0xFFFFFFFFF746D218], dl ; retn 0x0000 ; (1 found)
0x4bd86c: dec  [rdi] ; test byte [rax-0x76FFFFFE], dl ; retn 0xE283 ; (1 found)
0x417948: dec  [rdi] ; xchg eax, edx ; retn 0x3948 ; (1 found)
0x4a134a: dec  [rdi] ; xchg eax, esp ; ret ; (1 found)
0x44b451: dec byte [r8+0x29] ; retn 0x280F ; (2 found)
0x44b452: dec byte [rax+0x29] ; retn 0x280F ; (2 found)
0x440ee6: dec byte [rax+0x6F] ; pop rcx ; jmp qword [rdx-0x2F] ; (1 found)
0x451ee4: dec byte [rax+0x7F] ; adc dil, r15L ; ret ; (1 found)
0x45160a: dec byte [rax+0x7F] ; cmp r15L, dil ; ret ; (1 found)
0x490eea: dec byte [rax-0x77] ; out dx, eax ; call qword [r14+0x18] ; (2 found)
0x4ae3d4: dec byte [rbp+rcx*4+0x04] ; ret ; (1 found)
0x40ee59: dec byte [rbx-0x0005FF7B] ; jmp qword [rcx+rax*2-0x77] ; (2 found)
0x48d315: dec byte [rcx+rcx*4-0x19] ; call qword [rbx+0x38] ; (1 found)
0x475d42: dec byte [rcx+rcx*4-0x19] ; mov rdx, r14 ; call rbp ; (1 found)
0x46252b: dec byte [rcx-0x77] ; ret ; (1 found)
0x403719: dec byte [rcx-0x77] ; retn 0x014D ; (1 found)
0x402327: dec byte [rsi] ; add cl, cl ; ret ; (1 found)
0x44b591: dec qword [r8+0x29] ; retn 0x280F ; (2 found)
0x409709: dec qword [rax-0x7D] ; retn 0x4901 ; (1 found)
0x4aa45e: div  [rbp+0x07] ; pop rbx ; ret ; (1 found)
0x4a1abd: div  [rbp-0x28] ; mov eax, r8d ; ret ; (1 found)
0x4aaecf: div byte [rbp+0x02] ; call rax ; (1 found)
0x449466: div byte [rbp+0x04] ; xor rax, rax ; ret ; (2 found)
0x468eb4: div byte [rcx] ; jmp qword [rsi+0x0F] ; (1 found)
0x4a6681: div ch ; jmp qword [rsi+0x66] ; (1 found)
0x4b9445: divps xmm0,  [0x00000000004DEEC0] ; ret ; (1 found)
0x4b9444: divss xmm0,  [0x00000000004DEEC0] ; ret ; (1 found)
0x466650: endbr64 ; lea rax, qword [0x00000000004F3380] ; ret ; (1 found)
0x4af530: endbr64 ; mov eax,  [0x00000000004F9C20] ; ret ; (1 found)
0x4614e0: endbr64 ; mov eax, 0x00000001 ; syscall ; (1 found)
0x461290: endbr64 ; mov eax, 0x00000003 ; syscall ; (1 found)
0x460920: endbr64 ; mov eax, 0x00000008 ; syscall ; (1 found)
0x461740: endbr64 ; mov eax, 0x0000000A ; syscall ; (1 found)
0x461710: endbr64 ; mov eax, 0x0000000B ; syscall ; (1 found)
0x461550: endbr64 ; mov eax, 0x0000000C ; syscall ; (1 found)
0x460450: endbr64 ; mov eax, 0x00000018 ; syscall ; (1 found)
0x461770: endbr64 ; mov eax, 0x0000001C ; syscall ; (1 found)
0x460ae0: endbr64 ; mov eax, 0x00000020 ; syscall ; (1 found)
0x4b4c30: endbr64 ; mov eax, 0x00000026 ; syscall ; (1 found)
0x45fd20: endbr64 ; mov eax, 0x00000027 ; syscall ; (1 found)
0x4635d0: endbr64 ; mov eax, 0x00000029 ; syscall ; (1 found)
0x463530: endbr64 ; mov eax, 0x00000031 ; syscall ; (1 found)
0x463560: endbr64 ; mov eax, 0x00000032 ; syscall ; (1 found)
0x4a1920: endbr64 ; mov eax, 0x0000003F ; syscall ; (1 found)
0x460b10: endbr64 ; mov eax, 0x00000050 ; syscall ; (1 found)
0x463070: endbr64 ; mov eax, 0x00000063 ; syscall ; (1 found)
0x4a1950: endbr64 ; mov eax, 0x00000066 ; syscall ; (1 found)
0x4a1970: endbr64 ; mov eax, 0x00000068 ; syscall ; (1 found)
0x4a1960: endbr64 ; mov eax, 0x0000006B ; syscall ; (1 found)
0x4a1980: endbr64 ; mov eax, 0x0000006C ; syscall ; (1 found)
0x4a1990: endbr64 ; mov eax, 0x0000008F ; syscall ; (1 found)
0x4a19c0: endbr64 ; mov eax, 0x00000090 ; syscall ; (1 found)
0x4a19f0: endbr64 ; mov eax, 0x00000091 ; syscall ; (1 found)
0x4a1a20: endbr64 ; mov eax, 0x00000092 ; syscall ; (1 found)
0x4a1a50: endbr64 ; mov eax, 0x00000093 ; syscall ; (1 found)
0x422800: endbr64 ; mov eax, 0xFFFFFFFF ; ret ; (3 found)
0x4bb860: endbr64 ; mov qword [rdi+0x00000098], rsi ; ret ; (1 found)
0x423310: endbr64 ; mov rax, 0xFFFFFFFFFFFFFFFF ; ret ; (3 found)
0x424030: endbr64 ; mov rax, qword [0x00000000004F2260] ; ret ; (1 found)
0x4688e0: endbr64 ; mov rax, qword [0x00000000004F9F60] ; ret ; (1 found)
0x4688f0: endbr64 ; mov rax, qword [0x00000000004F9F68] ; ret ; (1 found)
0x472530: endbr64 ; mov rax, qword [0x00000000004F9FA8] ; ret ; (1 found)
0x425860: endbr64 ; mov rax, qword [fs:0x00000010] ; ret ; (1 found)
0x4ad9d0: endbr64 ; mov rax, qword [rax+0x08] ; ret ; (1 found)
0x4bb7d0: endbr64 ; mov rax, qword [rdi+0x00000090] ; ret ; (1 found)
0x4bb830: endbr64 ; mov rax, qword [rdi+0x00000098] ; ret ; (1 found)
0x4bb870: endbr64 ; mov rax, qword [rdi+0x000000A0] ; ret ; (1 found)
0x4bb8d0: endbr64 ; mov rax, qword [rdi+0x000000A8] ; ret ; (1 found)
0x4bb8c0: endbr64 ; mov rax, qword [rdi+0x000000B0] ; ret ; (1 found)
0x4bb880: endbr64 ; mov rax, qword [rdi+0x000000B8] ; ret ; (1 found)
0x424050: endbr64 ; mov rax, qword [rdi+0x68] ; ret ; (1 found)
0x424060: endbr64 ; mov rax, rdi ; ret ; (1 found)
0x401a90: endbr64 ; ret ; (5 found)
0x423290: endbr64 ; xor eax, eax ; ret ; (3 found)
0x4614b0: endbr64 ; xor eax, eax ; syscall ; (1 found)
0x428686: enter 0x0009, 0xE8 ; sar bh, cl ; jmp qword [rsi-0x70] ; (1 found)
0x487f5f: enter 0x0F41, 0x94 ; retn 0x894C ; (2 found)
0x4485c9: enter 0x0F66, 0xEB ; ret ; (2 found)
0x4301a1: enter 0x1D75, 0x83 ; retn 0x8101 ; (3 found)
0x41ef4e: enter 0x1F76, 0x48 ; mov edi, ebx ; call qword [rbp+0x00000080] ; (1 found)
0x434631: enter 0x2275, 0x83 ; retn 0x8101 ; (3 found)
0x450127: enter 0x2948, 0xF8 ; ret ; (3 found)
0x42e93d: enter 0x31C3, 0xC0 ; ret ; (13 found)
0x409f51: enter 0x4866, 0x0F ; outsb ; retn 0x0F66 ; (1 found)
0x4ae91d: enter 0x4866, 0x0F ; outsb ; retn 0xD1B8 ; (1 found)
0x4907bf: enter 0x4BE8, 0x31 ; std ; jmp qword [rsi+0x2E] ; (1 found)
0x45abd7: enter 0x5C29, 0x8F ; retn 0x8141 ; (2 found)
0x43540c: enter 0x66C3, 0x90 ; xor eax, eax ; ret ; (1 found)
0x4bd231: enter 0x8348, 0xC0 ; cmp byte [rax+0x39], cl ; retn 0x3C74 ; (2 found)
0x4aa938: enter 0x8D48, 0x04 ; retn 0x3948 ; (3 found)
0x44b58e: enter 0x8D48, 0x49 ; dec  [rax+0x29] ; retn 0x280F ; (2 found)
0x44b44e: enter 0x8D48, 0x49 ; dec byte [rax+0x29] ; retn 0x280F ; (2 found)
0x4ae126: enter 0x8D4C, 0x34 ; retn 0x8D4A ; (1 found)
0x44fb14: enter 0xC019, 0x83 ; fdivr st0, st7 ; ret ; (1 found)
0x473240: enter 0xC084, 0x75 ; mov ebx, 0x752FFA80 ; retn 0x8341 ; (1 found)
0x47331f: enter 0xC084, 0x75 ; mov esp, 0x752FFA80 ; retn 0x8341 ; (1 found)
0x4564d3: enter 0xC1FF, 0x0F ; test byte [rdi+rdi*8-0x01], dh ; jmp qword [rdx-0x4E] ; (1 found)
0x457a6b: enter 0xC748, 0xC0 ; cmp bh, 0xFF ; jmp qword [rsi+0x0F] ; (1 found)
0x42344a: enter 0xE883, 0x01 ; ret ; (1 found)
0x4301c0: enter 0xF8C5, 0x77 ; ret ; (17 found)
0x424c74: enter 0xFFA1, 0xFF ; nop  [rax+rax+0x00000000] ; ret ; (1 found)
0x4a4ef6: enter 0xFFFB, 0xE9 ; ret ; (1 found)
0x4174ea: fadd  [0xFFFFFFFFC78974F0] ; ret ; (1 found)
0x40d61f: fadd  [rax] ; add byte [rax], al ; ret ; (10 found)
0x45ad6f: fadd  [rbp+0x01] ; retn 0x2945 ; (1 found)
0x4a1abf: fadd  [rcx+rcx*4-0x40] ; ret ; (1 found)
0x459a51: fadd  [rcx-0x77] ; ret ; (1 found)
0x464834: fadd  [rdx] ; add byte [rax], al ; syscall ; (1 found)
0x42c368: fadd qword [rcx] ; add byte [rax+0x0F], cl ; retn 0x85C3 ; (1 found)
0x420bab: fcomp  [rbx+0x5D] ; pop r12 ; ret ; (1 found)
0x42c01b: fcos ; dec  [rax-0x77] ; ret ; (3 found)
0x48409b: fcos ; jmp qword [rsi-0x70] ; (1 found)
0x4bad54: fdiv  [0xFFFFFFFF8993AD5A] ; ret ; (1 found)
0x4a8537: fdiv st0, st5 ; jmp qword [rsi+0x0F] ; (1 found)
0x458137: fdiv st2, st0 ; jmp qword [rsi+0x0F] ; (1 found)
0x48c90c: fdiv st7, st0 ; call qword [rax+0x087E8B48] ; (1 found)
0x4144d2: fdiv st7, st0 ; jmp qword [rsi+0x0F] ; (2 found)
0x47f53b: fdiv st7, st0 ; jmp qword [rsi-0x70] ; (1 found)
0x42bf35: fdivp st7, st0 ; dec  [rax-0x77] ; ret ; (1 found)
0x4666de: fdivr  [rsi] ; jmp rax ; (1 found)
0x48cd0c: fdivr st0, st7 ; call qword [rax-0x05E1F00D] ; (1 found)
0x413466: fdivr st0, st7 ; dec  [rcx-0x39] ; retn 0xFFA0 ; (1 found)
0x479d9b: fdivr st0, st7 ; jmp qword [rsi-0x70] ; (1 found)
0x44fb18: fdivr st0, st7 ; ret ; (1 found)
0x4647d8: fiadd  [rax] ; add byte [rax], al ; syscall ; (1 found)
0x47e4a0: fiadd  [rbp+0x450F48DB] ; retn 0x8948 ; (1 found)
0x478a67: fiadd  [rbp-0x7B] ; dec  [rax+0x0F] ; retn 0x8948 ; (3 found)
0x46f483: fiadd  [rbx-0x09BEF81E] ; ret ; (1 found)
0x403c8e: fiadd  [rcx+0x0003FFE2] ; add byte [rbx-0x50F0FE3E], al ; retn 0xEBE9 ; (1 found)
0x42d38c: fiadd word [rax] ; add byte [rax+0x0F], cl ; retn 0x0FC3 ; (1 found)
0x4b1b5e: fiadd word [rcx-0x0B] ; jmp qword [rsi+0x66] ; (1 found)
0x429c15: ficomp word [rbx+0x5D] ; pop r12 ; ret ; (1 found)
0x4b0d75: fidiv  [rbp-0x78] ; ret ; (1 found)
0x4b1cb2: fidiv  [rdi] ; sti ; jmp qword [rsi+0x2E] ; (1 found)
0x40b27e: fidivr  [rsi] ; jmp r10 ; (1 found)
0x4afdfe: fidivr word [rbx] ; sti ; call qword [rax+0x44B84D8B] ; (1 found)
0x41eacf: fidivr word [rdi+0x00000002] ; mov eax, r9d ; syscall ; (2 found)
0x46ac96: fild  [0xFFFFFFFFB0E9949C] ; stc ; jmp qword [rsi-0x70] ; (1 found)
0x45aadc: fild  [rdi+rcx+0x49] ; ret ; (1 found)
0x42575e: fild word [rax-0x0080] ; test byte [rcx+0x0000CAB8], 0x00 ; syscall ; (1 found)
0x42d1ac: fild word [rax] ; add byte [rax+0x0F], cl ; retn 0x0FC3 ; (1 found)
0x46e9ab: fild word [rbx-0x7FBF0F19] ; jmp rax ; (1 found)
0x46cbf2: fimul  [rax+0x01] ; retn 0x8348 ; (6 found)
0x42a670: fimul  [rax+0x21] ; retn 0x8D48 ; (1 found)
0x459b4a: fimul  [rax+0x63] ; retn 0x6948 ; (1 found)
0x433576: fimul  [rax+rax] ; add byte [rax-0x7D], cl ; retn 0x4910 ; (1 found)
0x4188cb: fimul  [rax-0x77] ; out dx, eax ; call qword [r12+0x38] ; (1 found)
0x4263e4: fimul  [rax-0x77] ; ror  [rax+0x21], cl ; ret ; (1 found)
0x418e7d: fimul  [rcx+rcx*4-0x0A] ; mov rdi, rbp ; call qword [r15+0x38] ; (1 found)
0x404cf2: fimul  [rcx+rcx*4-0x12] ; mov edi, r12d ; call qword [r14+r15*8] ; (2 found)
0x48ce3b: fimul  [rcx+rcx*4-0x19] ; call qword [rbp+0x38] ; (1 found)
0x41c625: fimul  [rcx+rcx*4-0x1A] ; call qword [r13+0x38] ; (1 found)
0x4ab2fa: fimul word [rax-0x7D] ; ret ; (1 found)
0x417913: fimul word [rcx+rcx*4-0x09] ; call qword [r12+0x38] ; (1 found)
0x4172f6: fimul word [rcx+rcx*4-0x09] ; call qword [rcx+0x38] ; (1 found)
0x48135e: fimul word [rcx-0x08] ; jmp qword [rsi+0x66] ; (1 found)
0x46c32e: fimul word [rcx-0x77] ; ret ; (2 found)
0x464869: fistp qword [rax+0x0000014E] ; syscall ; (1 found)
0x4b8795: fisttp  [rax+0x01] ; ror  [rdi], 0xFFFFFF92 ; ret ; (1 found)
0x47e4a2: fisttp  [rax+0x0F] ; retn 0x8948 ; (1 found)
0x426baf: fisttp  [rax+0x21] ; ret ; (1 found)
0x49fd29: fisttp  [rax-0x73] ; xchg  [rax], r12d ; ret ; (1 found)
0x47ffb5: fisttp  [rax-0x77] ; ret ; (1 found)
0x4b8da0: fisttp  [rax-0x7B] ; test byte [rcx+0x0F], 0x95 ; ret ; (1 found)
0x47ffcf: fisttp  [rcx-0x77] ; retn 0x8B4A ; (1 found)
0x461cb0: fisttp  [rdi] ; lahf ; ret ; (1 found)
0x4a0e71: fisttp  [rdi] ; sahf ; retn 0x2148 ; (1 found)
0x407229: fisttp  [rsi] ; add byte [rax-0x77], cl ; ret ; (2 found)
0x49fb92: fisttp qword [rax-0x73] ; test byte [rdi+0x00000080], al ; ret ; (1 found)
0x461ee4: fisttp qword [rax-0x77] ; out dx, eax ; call r12 ; (1 found)
0x48e0ff: fisttp qword [rax-0x77] ; retn 0x8348 ; (1 found)
0x483899: fisttp qword [rdi] ; test  [rdx-0x7CFFFFFC], eax ; ret ; (1 found)
0x4476bd: fisttp word [0xFFFFFFFF838C76C3] ; retn 0x4910 ; (1 found)
0x41f1b8: fisttp word [rax+0x29] ; call qword [r12+0x70] ; (1 found)
0x41cb2f: fisttp word [rax+0x29] ; call qword [rax+0x70] ; (1 found)
0x4098fa: fisttp word [rax-0x7D] ; ret ; (1 found)
0x45b66d: fisttp word [rcx] ; add byte [rax-0x77], cl ; retn 0x850F ; (1 found)
0x4aaea5: fisub  [rsi+0x0F] ; insb ; ret ; (1 found)
0x4a18f1: fld  [rax] ; add byte [rax], al ; syscall ; (1 found)
0x479d4d: fld qword [0x000000003DD4E553] ; retn 0x05D7 ; (1 found)
0x40b81e: fld st0, st3 ; ret ; (1 found)
0x481070: fld tword [rsp-0x18] ; ret ; (1 found)
0x434861: fldenv  [rsi+0x0F] ; xlatb ; ret ; (16 found)
0x41270b: fmul  [rax+0x01] ; ret ; (2 found)
0x458bfc: fmul  [rax+0x0F] ; retn 0x8348 ; (1 found)
0x480fd4: fmul  [rax+0x11] ; rcr byte [rbp+0x5B], 1 ; ret ; (2 found)
0x47d12a: fmul  [rax-0x39] ; ret ; (1 found)
0x41ebfe: fmul  [rax-0x77] ; ret ; (1 found)
0x426247: fmul  [rax-0x7B] ; ror byte [rax-0x39], cl ; retn 0x0000 ; (7 found)
0x46a11a: fmul  [rcx+0x0F] ; ret ; (1 found)
0x4a0982: fmul  [rdi] ; sub  [rsp+0x00], ebx ; call rbx ; (1 found)
0x473bdf: fmul qword [rax-0x77] ; ret ; (1 found)
0x40972e: fmul qword [rax-0x7D] ; retn 0x8801 ; (1 found)
0x4af9c1: fmul qword [rcx-0x00009F7B] ; inc esi ; ret ; (1 found)
0x44131f: fmul qword [rcx-0x7D] ; retn 0x0F10 ; (60 found)
0x42d6f9: fmul qword [rcx-0x7D] ; retn 0x7F10 ; (60 found)
0x435c50: fstcw word [rsi] ; jmp r9 ; (6 found)
0x4acff3: fstp  [rax+0x00] ; add byte [rcx-0x77], cl ; ret ; (1 found)
0x426f87: fstsw word [rax-0x76B6FFF4] ; retn 0xBD41 ; (1 found)
0x405ccf: fstsw word [rcx-0x76B7FFFB] ; ret ; (1 found)
0x46046c: fsub  [rcx+rcx*4+0x01] ; or rax, 0xFFFFFFFFFFFFFFFF ; ret ; (17 found)
0x45e900: fsub  [rcx+rcx*4+0x02] ; mov eax, 0xFFFFFFFF ; ret ; (8 found)
0x460858: fsub  [rcx+rcx*4+0x02] ; mov rax, 0xFFFFFFFFFFFFFFFF ; ret ; (9 found)
0x428eb2: fsub  [rsi+0x0F] ; insb ; ret ; (1 found)
0x44a2c4: fsub  [rsi+0x0F] ; xlatb ; ret ; (2 found)
0x4486ec: fsub qword [rsi+0x0F] ; xlatb ; ret ; (2 found)
0x42d73f: fsub st1, st0 ; imul edi, edi, 0xFF ; jmp qword [rsi+0x66] ; (15 found)
0x459a4f: fsubr  [rcx] ; fadd  [rcx-0x77] ; ret ; (1 found)
0x434653: fsubr qword [rcx] ; enter 0xF8C5, 0x77 ; ret ; (1 found)
0x466651: hint_nop edx ; lea rax, qword [0x00000000004F3380] ; ret ; (1 found)
0x4af531: hint_nop edx ; mov eax,  [0x00000000004F9C20] ; ret ; (1 found)
0x4614e1: hint_nop edx ; mov eax, 0x00000001 ; syscall ; (1 found)
0x461291: hint_nop edx ; mov eax, 0x00000003 ; syscall ; (1 found)
0x460921: hint_nop edx ; mov eax, 0x00000008 ; syscall ; (1 found)
0x461741: hint_nop edx ; mov eax, 0x0000000A ; syscall ; (1 found)
0x461711: hint_nop edx ; mov eax, 0x0000000B ; syscall ; (1 found)
0x461551: hint_nop edx ; mov eax, 0x0000000C ; syscall ; (1 found)
0x460451: hint_nop edx ; mov eax, 0x00000018 ; syscall ; (1 found)
0x461771: hint_nop edx ; mov eax, 0x0000001C ; syscall ; (1 found)
0x460ae1: hint_nop edx ; mov eax, 0x00000020 ; syscall ; (1 found)
0x4b4c31: hint_nop edx ; mov eax, 0x00000026 ; syscall ; (1 found)
0x45fd21: hint_nop edx ; mov eax, 0x00000027 ; syscall ; (1 found)
0x4635d1: hint_nop edx ; mov eax, 0x00000029 ; syscall ; (1 found)
0x463531: hint_nop edx ; mov eax, 0x00000031 ; syscall ; (1 found)
0x463561: hint_nop edx ; mov eax, 0x00000032 ; syscall ; (1 found)
0x4a1921: hint_nop edx ; mov eax, 0x0000003F ; syscall ; (1 found)
0x460b11: hint_nop edx ; mov eax, 0x00000050 ; syscall ; (1 found)
0x463071: hint_nop edx ; mov eax, 0x00000063 ; syscall ; (1 found)
0x4a1951: hint_nop edx ; mov eax, 0x00000066 ; syscall ; (1 found)
0x4a1971: hint_nop edx ; mov eax, 0x00000068 ; syscall ; (1 found)
0x4a1961: hint_nop edx ; mov eax, 0x0000006B ; syscall ; (1 found)
0x4a1981: hint_nop edx ; mov eax, 0x0000006C ; syscall ; (1 found)
0x4a1991: hint_nop edx ; mov eax, 0x0000008F ; syscall ; (1 found)
0x4a19c1: hint_nop edx ; mov eax, 0x00000090 ; syscall ; (1 found)
0x4a19f1: hint_nop edx ; mov eax, 0x00000091 ; syscall ; (1 found)
0x4a1a21: hint_nop edx ; mov eax, 0x00000092 ; syscall ; (1 found)
0x4a1a51: hint_nop edx ; mov eax, 0x00000093 ; syscall ; (1 found)
0x422801: hint_nop edx ; mov eax, 0xFFFFFFFF ; ret ; (3 found)
0x4bb861: hint_nop edx ; mov qword [rdi+0x00000098], rsi ; ret ; (1 found)
0x423311: hint_nop edx ; mov rax, 0xFFFFFFFFFFFFFFFF ; ret ; (3 found)
0x424031: hint_nop edx ; mov rax, qword [0x00000000004F2260] ; ret ; (1 found)
0x4688e1: hint_nop edx ; mov rax, qword [0x00000000004F9F60] ; ret ; (1 found)
0x4688f1: hint_nop edx ; mov rax, qword [0x00000000004F9F68] ; ret ; (1 found)
0x472531: hint_nop edx ; mov rax, qword [0x00000000004F9FA8] ; ret ; (1 found)
0x425861: hint_nop edx ; mov rax, qword [fs:0x00000010] ; ret ; (1 found)
0x4ad9d1: hint_nop edx ; mov rax, qword [rax+0x08] ; ret ; (1 found)
0x4bb7d1: hint_nop edx ; mov rax, qword [rdi+0x00000090] ; ret ; (1 found)
0x4bb831: hint_nop edx ; mov rax, qword [rdi+0x00000098] ; ret ; (1 found)
0x4bb871: hint_nop edx ; mov rax, qword [rdi+0x000000A0] ; ret ; (1 found)
0x4bb8d1: hint_nop edx ; mov rax, qword [rdi+0x000000A8] ; ret ; (1 found)
0x4bb8c1: hint_nop edx ; mov rax, qword [rdi+0x000000B0] ; ret ; (1 found)
0x4bb881: hint_nop edx ; mov rax, qword [rdi+0x000000B8] ; ret ; (1 found)
0x424051: hint_nop edx ; mov rax, qword [rdi+0x68] ; ret ; (1 found)
0x424061: hint_nop edx ; mov rax, rdi ; ret ; (1 found)
0x401a91: hint_nop edx ; ret ; (5 found)
0x423291: hint_nop edx ; xor eax, eax ; ret ; (3 found)
0x4614b1: hint_nop edx ; xor eax, eax ; syscall ; (1 found)
0x41ff08: hlt ; call qword [r13+0x40] ; (1 found)
0x4bb61d: hlt ; call qword [rax+0x56415741] ; (1 found)
0x4bce7c: hlt ; call qword [rax-0x76B6A8BF] ; (2 found)
0x4b98c7: hlt ; dec  [rax+0x63] ; ret ; (1 found)
0x4b9a9d: hlt ; inc  [rbx+0x634801EB] ; ret ; (1 found)
0x4bcd4f: hlt ; jmp qword [rsi+0x0F] ; (4 found)
0x4be2c4: hlt ; jmp qword [rsi+0x2E] ; (2 found)
0x4bc9d0: hlt ; jmp qword [rsi+0x66] ; (5 found)
0x43d02a: hlt ; mov  [rdi-0x04], ecx ; ret ; (2 found)
0x437cad: hlt ; mov  [rdi-0x04], edx ; ret ; (36 found)
0x45f8cc: hlt ; mov eax, esi ; syscall ; (1 found)
0x484447: hlt ; std ; jmp qword [rsi+0x0F] ; (1 found)
0x44f627: hlt ; sub eax, edx ; ret ; (1 found)
0x419cac: idiv bh ; call qword [rax+0x24848B48] ; (1 found)
0x48a88e: idiv bh ; dec  [rax-0x77] ; ret ; (1 found)
0x47b8af: idiv bh ; dec  [rax-0x77] ; retn 0xF748 ; (1 found)
0x45bceb: idiv bh ; dec  [rax-0x7D] ; ret ; (1 found)
0x4176de: idiv bh ; dec  [rcx-0x77] ; ret ; (2 found)
0x416258: idiv bh ; jmp qword [rax+rcx*2-0x75] ; (2 found)
0x48bd77: idiv bh ; jmp qword [rsi+0x0F] ; (1 found)
0x46657b: idiv bh ; jmp qword [rsi-0x70] ; (3 found)
0x4bf5af: idiv bh ; nop  [rax+0x00000000] ; ret ; (1 found)
0x4bfb4d: idiv bh ; ret ; (1 found)
0x424f03: idiv byte [rax+0x000000EA] ; syscall ; (1 found)
0x425025: idiv byte [rdi+0x00000002] ; mov eax, 0x0000000E ; syscall ; (1 found)
0x404f8b: idiv byte [rdi+0x00003003] ; mov eax, 0x0000009E ; syscall ; (1 found)
0x41d699: idiv byte [rdx+0x00000001] ; mov rdi, r15 ; call qword [rbp+0x00000080] ; (1 found)
0x41fa59: idiv byte [rdx+0x00000001] ; mov rdi, rbp ; call qword [rbx+0x00000080] ; (1 found)
0x41d4ab: idiv byte [rdx+0x00000002] ; mov rdi, r15 ; call qword [r13+0x00000080] ; (1 found)
0x41bfa7: idiv byte [rdx+0x00000002] ; mov rdi, rbp ; call qword [rbx+0x00000080] ; (2 found)
0x420b8c: idiv byte [rdx+0x00000002] ; mov rdi, rbx ; call qword [rbp+0x00000080] ; (1 found)
0x46a01a: idiv byte [rdx-0x00000001] ; cmovs eax, edx ; ret ; (1 found)
0x472fa7: idiv dh ; jmp qword [rsi+0x0F] ; (1 found)
0x48414b: idiv ebp ; jmp qword [rsi-0x70] ; (1 found)
0x48b84b: idiv edi ; call qword [rax+0x4817048D] ; (2 found)
0x407fbc: idiv edi ; call qword [rax+0x7880C931] ; (1 found)
0x4019e2: idiv edi ; call qword [rax-0x18] ; (5 found)
0x4173cf: idiv edi ; call qword [rax] ; (8 found)
0x45d0e2: idiv edi ; dec  [rax+0x01] ; ret ; (1 found)
0x416db6: idiv edi ; dec  [rax-0x39] ; ret ; (1 found)
0x48ef44: idiv edi ; dec  [rax-0x7D] ; ret ; (1 found)
0x48af79: idiv edi ; dec  [rcx+rcx*4-0x0E] ; call qword [r13+0x38] ; (1 found)
0x40f976: idiv edi ; dec  [rcx-0x39] ; retn 0xFFA0 ; (1 found)
0x417722: idiv edi ; dec  [rcx-0x77] ; ret ; (2 found)
0x48b216: idiv edi ; dec  [rcx-0x77] ; retn 0x0F44 ; (1 found)
0x48c020: idiv edi ; dec  [rcx-0x77] ; retn 0xF1E9 ; (1 found)
0x4bbd1d: idiv edi ; inc  [rbx-0x7AF0F808] ; retn 0xFFFE ; (1 found)
0x48b39c: idiv edi ; jmp qword [rax] ; (7 found)
0x417577: idiv edi ; jmp qword [rsi+0x0F] ; (8 found)
0x4178b3: idiv edi ; jmp qword [rsi+0x2E] ; (3 found)
0x4664bb: idiv edi ; jmp qword [rsi-0x70] ; (2 found)
0x41848a: idiv edi ; jmp qword [rsi-0x77] ; (2 found)
0x404a56: idiv esi ; jmp qword [rsi+0x0F] ; (1 found)
0x48af78: idiv rdi ; dec  [rcx+rcx*4-0x0E] ; call qword [r13+0x38] ; (1 found)
0x417721: idiv rdi ; dec  [rcx-0x77] ; ret ; (2 found)
0x47d115: imul  [rcx-0x38B7FFFB] ; retn 0xFFA0 ; (1 found)
0x405ccd: imul al ; fstsw word [rcx-0x76B7FFFB] ; ret ; (1 found)
0x45c378: imul al ; retn 0xFA4D ; (1 found)
0x41e998: imul al ; retn 0xFE26 ; (1 found)
0x423ed7: imul eax ; ret ; (1 found)
0x4a1d31: imul eax,  [rbx+0x1F0FFFF8], 0x00 ; ret ; (1 found)
0x44e181: imul eax,  [rcx], 0x00 ; add dh, dh ; retn 0x7502 ; (1 found)
0x4031b1: imul eax, ecx ; imul eax, edx ; ret ; (1 found)
0x4af096: imul eax, ecx ; lea rax, qword [rax+rdx+0x00004000] ; ret ; (1 found)
0x4031b4: imul eax, edx ; ret ; (1 found)
0x45b80e: imul ecx,  [rdi], 0xFFFF3E85 ; jmp qword [rsi-0x007F] ; (1 found)
0x4062a3: imul edi, edi, 0xFF ; jmp qword [rsi+0x0F] ; (1 found)
0x42d741: imul edi, edi, 0xFF ; jmp qword [rsi+0x66] ; (15 found)
0x4779e1: imul edi, esi, 0xC748FFFF ; retn 0xFFFF ; (4 found)
0x44d2d1: imul edx,  [rdi+rax+0x0C634900], 0x93 ; lea rcx, qword [r11+rcx] ; jmp rcx ; (1 found)
0x4b6146: imul esi, ebp, 0xFF ; jmp qword [rsi+0x0F] ; (1 found)
0x48e15e: imul esi, esp, 0xFF ; jmp qword [rsi+0x0F] ; (1 found)
0x423bd9: imul esp,  [rax+0x5B], 0x5D ; pop r12 ; ret ; (1 found)
0x4af095: imul rax, rcx ; lea rax, qword [rax+rdx+0x00004000] ; ret ; (1 found)
0x45e8e9: in al, 0x00 ; add byte [rax], al ; syscall ; (1 found)
0x4159a2: in al, 0x4C ; mov edx, esp ; call qword [r13+0x38] ; (1 found)
0x449f3c: in al, 0x74 ; or  [rax-0x01], ecx ; retn 0xC148 ; (2 found)
0x4821b4: in al, 0x74 ; ror  [rax-0x73], 0x3D ; retn 0x055C ; (1 found)
0x4618e0: in al, 0x75 ; mov rdi, qword [rbp+0x00] ; call rbx ; (1 found)
0x43d009: in al, 0xF3 ; movq qword [rdi-0x10], mm1 ; ret ; (4 found)
0x472d1c: in al, 0xF8 ; call qword [rax-0x05E1F00D] ; (1 found)
0x48c1d7: in al, 0xFF ; jmp qword [rsi+0x0F] ; (1 found)
0x48f06b: in al, 0xFF ; jmp qword [rsi-0x70] ; (1 found)
0x47712c: in al, dx ; clc ; call qword [rax+0x56415741] ; (1 found)
0x4b4342: in al, dx ; cmp byte [rax-0x39], cl ; ret ; (1 found)
0x49fd18: in al, dx ; lea rax, qword [rdi+rax*4] ; ret ; (1 found)
0x43d409: in al, dx ; movdqu  [rdi-0x10], xmm1 ; ret ; (4 found)
0x42a0b5: in al, dx ; sbb byte [rax-0x39], cl ; ret ; (1 found)
0x4b4168: in al, dx ; sbb byte [rax-0x39], cl ; retn 0xFFF8 ; (1 found)
0x45f278: in al, dx ; sub byte [rax-0x39], cl ; ret ; (1 found)
0x42d278: in eax, 0x01 ; add byte [rax+0x0F], cl ; retn 0x85C3 ; (1 found)
0x4a7588: in eax, 0x05 ; add r13, rax ; call qword [r13+0x68] ; (1 found)
0x4a8c0d: in eax, 0x48 ; mov esi, ebp ; syscall ; (1 found)
0x43d089: in eax, 0xF3 ; movq qword [rdi-0x10], mm1 ; ret ; (4 found)
0x48c0ec: in eax, 0xFF ; call qword [rax+0x4CD7894C] ; (1 found)
0x417f94: in eax, 0xFF ; jmp qword [rsi+0x0F] ; (2 found)
0x4b4b13: in eax, dx ; cli ; jmp qword [rsi+0x2E] ; (2 found)
0x44fe42: in eax, dx ; lea rax, qword [rcx-0x01] ; ret ; (1 found)
0x48db37: in eax, dx ; mov rdx, qword [r8+rdx*8] ; jmp rdx ; (1 found)
0x43d489: in eax, dx ; movdqu  [rdi-0x10], xmm1 ; ret ; (4 found)
0x42213a: in eax, dx ; ret ; (4 found)
0x44ff92: in eax, dx ; sub rax, 0x01 ; ret ; (1 found)
0x447e9d: inc  [0xFFFFFFFF838C7EA3] ; retn 0x4910 ; (1 found)
0x486fb6: inc  [rax-0x00013B43] ; jmp qword [rdi+0x75] ; (1 found)
0x486c4e: inc  [rax-0x00013B43] ; jmp qword [rdi-0x75] ; (1 found)
0x41a8b7: inc  [rax-0x0080] ; jmp qword [rdi+rcx] ; (2 found)
0x487940: inc  [rax] ; add byte [rcx+0x21], cl ; ret ; (1 found)
0x42595a: inc  [rax] ; add byte [rsi+0x01], dh ; ret ; (1 found)
0x478bb2: inc  [rbp+0x01] ; dec  [rax-0x7D] ; ret ; (3 found)
0x418388: inc  [rbp+0x31] ; ror byte [rcx-0x77], cl ; ret ; (1 found)
0x46ee23: inc  [rbp+0x31] ; ror byte [rcx-0x7D], cl ; retn 0x4B01 ; (1 found)
0x462cfc: inc  [rbp+0x480F74C0] ; add esp, 0x08 ; ret ; (1 found)
0x4b9a9e: inc  [rbx+0x634801EB] ; ret ; (1 found)
0x4ab2f4: inc  [rbx+0x7425087B] ; fimul word [rax-0x7D] ; ret ; (1 found)
0x4868b4: inc  [rbx-0x00009B43] ; jmp qword [rsi+0x0F] ; (2 found)
0x49320f: inc  [rbx-0x1F7CE940] ; test  [rdi], 0xFFFD7384 ; call qword [rax+0x48] ; (1 found)
0x411605: inc  [rbx-0x78F0D006] ; ret ; (1 found)
0x4bbd1f: inc  [rbx-0x7AF0F808] ; retn 0xFFFE ; (1 found)
0x491074: inc  [rcx+rcx*4-0x02] ; mov rdi, rbp ; call qword [r14+0x18] ; (1 found)
0x45183a: inc  [rcx-0x0000FF3E] ; jmp qword [rdx-0x1F] ; (2 found)
0x4b8bac: inc  [rcx-0x73] ; ret ; (1 found)
0x46f8a1: inc  [rcx-0x77] ; ret ; (1 found)
0x46bbf8: inc  [rcx-0x77] ; retn 0x29E9 ; (1 found)
0x4b3048: inc  [rcx-0x77] ; retn 0xE883 ; (1 found)
0x4b8eb4: inc  [rcx-0x77] ; ror  [rcx-0x77], 1 ; ret ; (1 found)
0x416f58: inc  [rcx] ; ret ; (4 found)
0x4092a9: inc  [rcx] ; retn 0xD089 ; (1 found)
0x403358: inc  [rdi+rcx-0x4A] ; retn 0x58E9 ; (1 found)
0x4b7312: inc  [rdi] ; add byte [rax+0x21], cl ; retn 0x8548 ; (1 found)
0x49fdb7: inc  [rdx] ; lea eax,  [rdi+rax+0x08] ; ret ; (1 found)
0x49fdc7: inc  [rdx] ; lea eax,  [rdi+rax+0x10] ; ret ; (1 found)
0x49fdd7: inc  [rdx] ; lea eax,  [rdi+rax+0x18] ; ret ; (1 found)
0x49fde7: inc  [rdx] ; lea eax,  [rdi+rax+0x20] ; ret ; (1 found)
0x459746: inc  [rdx] ; lea rax, qword [rdi+rax+0x08] ; ret ; (2 found)
0x459705: inc  [rdx] ; lea rax, qword [rdi+rax+0x10] ; ret ; (2 found)
0x4597f0: inc  [rdx] ; lea rax, qword [rdi+rax+0x18] ; ret ; (1 found)
0x459795: inc  [rdx] ; lea rax, qword [rdi+rax+0x20] ; ret ; (1 found)
0x4aa224: inc  [rsi+0x10] ; pop rbx ; ret ; (1 found)
0x478198: inc byte [rbx-0x7BF0FE06] ; ret ; (1 found)
0x492f97: inc ecx ; call qword [rbx] ; (1 found)
0x485358: inc edi ; test  [rdi+rdi*8-0x01], esp ; jmp qword [rsi+0x00] ; (2 found)
0x4af9c7: inc esi ; ret ; (1 found)
0x481071: insb ; and al, 0xE8 ; ret ; (1 found)
0x40bf26: insb ; ret ; (8 found)
0x4248f4: insb ; retn 0x0F41 ; (4 found)
0x41cdf2: insb ; retn 0x110F ; (3 found)
0x4b4ac3: insb ; retn 0x290F ; (1 found)
0x4a7c9b: insb ; retn 0x3948 ; (1 found)
0x426500: insb ; retn 0x3B48 ; (1 found)
0x428c87: insb ; retn 0x8348 ; (1 found)
0x45f906: insb ; retn 0x8948 ; (1 found)
0x473417: insb ; sti ; jmp qword [rsi+0x0F] ; (1 found)
0x454c7e: insd ; and byte [rsi], ah ; retn 0xFBC5 ; (1 found)
0x42c4e1: int 0x01 ; add byte [rax+0x0F], cl ; retn 0x0FC3 ; (1 found)
0x45b15f: int 0x0F ; pushfq ; retn 0xD089 ; (1 found)
0x4935ff: int 0x39 ; retn 0x3C75 ; (1 found)
0x4a3246: int 0x66 ; nop  [rax+rax+0x00000000] ; ret ; (1 found)
0x4b43f0: int 0x80 ; (1 found)
0x475880: int 0x90 ; jmp rdx ; (1 found)
0x4b47c1: int1 ; cli ; jmp qword [rsi+0x2E] ; (2 found)
0x4b4752: int1 ; cli ; jmp qword [rsi+0x66] ; (1 found)
0x4b632b: int1 ; cli ; jmp qword [rsi-0x70] ; (1 found)
0x48c90b: int1 ; fdiv st7, st0 ; call qword [rax+0x087E8B48] ; (1 found)
0x43ce7b: int1 ; mov qword [rdi-0x08], rcx ; ret ; (2 found)
0x43827e: int1 ; mov qword [rdi-0x08], rdx ; ret ; (36 found)
0x49e29e: int1 ; ret ; (1 found)
0x435274: int1 ; sub eax, ecx ; ret ; (3 found)
0x44f5f7: int1 ; sub eax, edx ; ret ; (1 found)
0x449e33: int1 ; vzeroupper ; ret ; (1 found)
0x4a1300: int3 ; idiv edi ; jmp qword [rsi+0x2E] ; (1 found)
0x4295d8: int3 ; mov ebx, 0x9FE80009 ; ret ; (1 found)
0x425b86: int3 ; or al, 0x00 ; ret ; (4 found)
0x4bbdab: int3 ; pop rcx ; jmp rcx ; (4 found)
0x42c50d: iretq ; (10 found)
0x436256: iretw ; (4 found)
0x440d6d: jmp qword [r10+0x71] ; (1 found)
0x440cb4: jmp qword [r10-0x0F] ; (1 found)
0x440d25: jmp qword [r10-0x2F] ; (1 found)
0x44a3f8: jmp qword [r14+0x0F] ; (2 found)
0x41b1bf: jmp qword [r14+0x48] ; (1 found)
0x4350eb: jmp qword [rax+0x73] ; (3 found)
0x40e5ef: jmp qword [rax+rax+0x00] ; (3 found)
0x405bda: jmp qword [rax+rcx*2+0x03] ; (4 found)
0x464883: jmp qword [rax+rcx*2+0x2B] ; (1 found)
0x492a61: jmp qword [rax+rcx*2-0x39] ; (3 found)
0x401fa3: jmp qword [rax+rcx*2-0x75] ; (65 found)
0x47564e: jmp qword [rax+rcx*2-0x77] ; (3 found)
0x48b39e: jmp qword [rax] ; (9 found)
0x4122d3: jmp qword [rbp+0x31] ; (1 found)
0x4119fd: jmp qword [rbp+0x48] ; (1 found)
0x42ae95: jmp qword [rbp+0x72E80009] ; (1 found)
0x45f0d4: jmp qword [rbp+rax*2-0x75] ; (2 found)
0x42a26f: jmp qword [rbp+rax*2-0x77] ; (1 found)
0x460064: jmp qword [rbx+0x0001FFDE] ; (1 found)
0x4057c6: jmp qword [rbx+rax*4+0x38] ; (15 found)
0x45fefe: jmp qword [rbx+rax*4+0x3A] ; (1 found)
0x427aab: jmp qword [rbx+rax*4+0x3C] ; (1 found)
0x40fc47: jmp qword [rbx+rcx*4+0x00] ; (15 found)
0x460edc: jmp qword [rbx+rcx*4+0x03] ; (1 found)
0x491fa2: jmp qword [rbx+rcx*4+0x0A] ; (1 found)
0x460fb9: jmp qword [rbx+rcx*4+0x13] ; (4 found)
0x492e30: jmp qword [rbx+rcx*4+0x14] ; (1 found)
0x410321: jmp qword [rbx+rcx*4+0x18] ; (1 found)
0x413df5: jmp qword [rbx-0x76BB0001] ; (1 found)
0x40be72: jmp qword [rcx+rax*2-0x75] ; (16 found)
0x40be89: jmp qword [rcx+rax*2-0x77] ; (10 found)
0x40b866: jmp qword [rcx+rcx*4+0x02] ; (6 found)
0x4b57a0: jmp qword [rcx+rcx*4+0x06] ; (1 found)
0x406d7e: jmp qword [rcx+rcx*4+0x08] ; (3 found)
0x40ddaa: jmp qword [rcx+rcx*4+0x18] ; (1 found)
0x42a110: jmp qword [rcx+rcx*4+0x2B] ; (2 found)
0x41982d: jmp qword [rcx+rdx*8] ; (2 found)
0x403519: jmp qword [rdi+0x0F] ; (1 found)
0x4a997e: jmp qword [rdi+0x6D] ; (1 found)
0x486fbc: jmp qword [rdi+0x75] ; (1 found)
0x40b918: jmp qword [rdi+rax*8+0x00] ; (103 found)
0x47d11f: jmp qword [rdi+rax*8+0x02] ; (1 found)
0x46123d: jmp qword [rdi+rax*8+0x03] ; (2 found)
0x4a7db0: jmp qword [rdi+rax*8+0x04] ; (3 found)
0x416d07: jmp qword [rdi+rax*8] ; (1 found)
0x40c868: jmp qword [rdi+rcx] ; (4 found)
0x413790: jmp qword [rdi+rdi*2] ; (1 found)
0x40178d: jmp qword [rdi-0x08BEFFF5] ; (1 found)
0x486c54: jmp qword [rdi-0x75] ; (1 found)
0x440c06: jmp qword [rdx+0x51] ; (1 found)
0x440d67: jmp qword [rdx+0x71] ; (2 found)
0x454e07: jmp qword [rdx-0x0D] ; (1 found)
0x440865: jmp qword [rdx-0x0F] ; (7 found)
0x4512bb: jmp qword [rdx-0x1F] ; (42 found)
0x440d1f: jmp qword [rdx-0x2F] ; (3 found)
0x454c7b: jmp qword [rdx-0x4E] ; (3 found)
0x48535e: jmp qword [rsi+0x00] ; (2 found)
0x401b76: jmp qword [rsi+0x0F] ; (662 found)
0x4859a7: jmp qword [rsi+0x25] ; (1 found)
0x405d85: jmp qword [rsi+0x2E] ; (248 found)
0x488ef8: jmp qword [rsi+0x3D] ; (1 found)
0x450164: jmp qword [rsi+0x41] ; (17 found)
0x41a7fa: jmp qword [rsi+0x44] ; (5 found)
0x43b51f: jmp qword [rsi+0x45] ; (30 found)
0x40de08: jmp qword [rsi+0x48] ; (14 found)
0x468621: jmp qword [rsi+0x49] ; (3 found)
0x403400: jmp qword [rsi+0x66] ; (163 found)
0x42a1ba: jmp qword [rsi+rax*8+0x04] ; (1 found)
0x48ae8a: jmp qword [rsi+rax*8] ; (1 found)
0x48dbb9: jmp qword [rsi+rdx*8] ; (2 found)
0x41adc1: jmp qword [rsi-0x007F] ; (6 found)
0x4023e8: jmp qword [rsi-0x39] ; (1 found)
0x403d8d: jmp qword [rsi-0x70] ; (156 found)
0x41848c: jmp qword [rsi-0x77] ; (4 found)
0x4ab0cb: jmp qword [rsi-0x7B] ; (5 found)
0x404b84: jmp qword [rsi-0x7D] ; (6 found)
0x45f746: jmp qword [rsp+rax*2-0x75] ; (7 found)
0x421365: jmp qword [rsp+rax*2-0x77] ; (1 found)
0x40c7ba: jmp qword [rsp+rcx*2-0x75] ; (11 found)
0x40b27f: jmp r10 ; (28 found)
0x4ac91a: jmp r11 ; (6 found)
0x435c51: jmp r9 ; (260 found)
0x401abc: jmp rax ; (137 found)
0x4ac91b: jmp rbx ; (6 found)
0x4166d6: jmp rcx ; (172 found)
0x4056b5: jmp rdx ; (371 found)
0x4066ed: jmp rsi ; (3 found)
0x45575c: kmovd k1, ecx ; vmovdqu8  [rax], ymm16 ; ret ; (1 found)
0x451f1e: kmovq k1, rcx ; vmovdqu8  [rax], zmm16 ; ret ; (1 found)
0x4b2a5b: lahf ; nop  [rax+0x00] ; call rax ; (1 found)
0x4295dd: lahf ; ret ; (4 found)
0x403271: lahf ; retn 0x3145 ; (1 found)
0x4246ca: lahf ; retn 0x3949 ; (1 found)
0x424762: lahf ; retn 0x63E9 ; (1 found)
0x40386a: lahf ; retn 0xC031 ; (1 found)
0x40ec89: lahf ; retn 0xD629 ; (2 found)
0x4114ce: lahf ; retn 0xD729 ; (3 found)
0x4899d4: lahf ; std ; jmp qword [rsi+0x0F] ; (1 found)
0x42cfdd: lahf ; xor eax, 0x0F480002 ; retn 0x66C3 ; (1 found)
0x44828d: lar eax, word [rax] ; add byte [rax-0x7D], cl ; retn 0x4910 ; (1 found)
0x43cde6: lddqu xmm0,  [rsi-0x10] ; movdqu  [rdi-0x10], xmm0 ; ret ; (2 found)
0x43d606: lddqu xmm0,  [rsi] ; movdqu  [rdi], xmm0 ; ret ; (2 found)
0x42d475: lea eax,  [0x00000000004347A0] ; cmove rax, rdx ; ret ; (1 found)
0x42d4ee: lea eax,  [0x0000000000448750] ; cmove rax, rdx ; ret ; (1 found)
0x42c65e: lea eax,  [0x0000000000448DF0] ; cmove rax, rdx ; ret ; (1 found)
0x42c4de: lea eax,  [0x00000000004492C0] ; cmove rax, rdx ; ret ; (1 found)
0x42c54e: lea eax,  [0x0000000000449460] ; cmove rax, rdx ; ret ; (1 found)
0x42ce73: lea eax,  [0x000000000044FB30] ; cmove rax, rdx ; ret ; (1 found)
0x42c3c3: lea eax,  [0x000000000044FFD0] ; cmovne rax, rdx ; ret ; (1 found)
0x42d1eb: lea eax,  [0x0000000000450540] ; cmove rax, rdx ; ret ; (1 found)
0x42cfdb: lea eax,  [0x0000000000450580] ; cmove rax, rdx ; ret ; (2 found)
0x42d22b: lea eax,  [0x0000000000450B50] ; cmove rax, rdx ; ret ; (1 found)
0x42d01b: lea eax,  [0x0000000000450B80] ; cmove rax, rdx ; ret ; (2 found)
0x42d1d3: lea eax,  [0x00000000004512D0] ; cmove rax, rdx ; ret ; (1 found)
0x42cfc3: lea eax,  [0x0000000000451300] ; cmove rax, rdx ; ret ; (2 found)
0x42d09a: lea eax,  [0x0000000000451B00] ; cmovne rax, rdx ; ret ; (1 found)
0x42d07c: lea eax,  [0x0000000000451D00] ; cmove rax, rdx ; ret ; (1 found)
0x49e0ab: lea eax,  [0x0000000000451E40] ; cmovne rax, rdx ; ret ; (1 found)
0x42d171: lea eax,  [0x00000000004524D0] ; cmove rax, rdx ; ret ; (1 found)
0x42cf61: lea eax,  [0x0000000000452500] ; cmove rax, rdx ; ret ; (2 found)
0x42d0ea: lea eax,  [0x0000000000452C80] ; cmove rax, rdx ; ret ; (1 found)
0x42d20b: lea eax,  [0x0000000000454E90] ; cmove rax, rdx ; ret ; (1 found)
0x42cffb: lea eax,  [0x0000000000454EC0] ; cmove rax, rdx ; ret ; (2 found)
0x42d116: lea eax,  [0x0000000000455700] ; cmove rax, rdx ; ret ; (1 found)
0x42d492: lea eax,  [0x00000000004577C0] ; cmove rax, rdx ; ret ; (1 found)
0x494115: lea eax,  [0x0000000000494990] ; cmove rax, rdx ; ret ; (1 found)
0x494132: lea eax,  [0x000000000049DAA0] ; cmove rax, rdx ; ret ; (1 found)
0x49e005: lea eax,  [0x000000000049E2A0] ; cmove rax, rdx ; ret ; (1 found)
0x49df1e: lea eax,  [0x000000000049E930] ; cmove rax, rdx ; ret ; (1 found)
0x49e022: lea eax,  [0x00000000004A0200] ; cmove rax, rdx ; ret ; (1 found)
0x4af0c3: lea eax,  [0x00000000004AF130] ; cmovne rax, rdx ; ret ; (1 found)
0x41ad52: lea eax,  [0x00000000004EEEC0] ; mov rax, qword [rax+rdi*8] ; ret ; (1 found)
0x466655: lea eax,  [0x00000000004F3380] ; ret ; (1 found)
0x463a93: lea eax,  [0x00000000004F9BE8] ; ret ; (2 found)
0x42135b: lea eax,  [r8] ; add byte [rax-0x39], cl ; ret ; (1 found)
0x434994: lea eax,  [rax+rdi+0x10] ; ret ; (3 found)
0x4349a4: lea eax,  [rax+rdi+0x20] ; ret ; (3 found)
0x434974: lea eax,  [rax+rdi-0x10] ; ret ; (3 found)
0x45ec90: lea eax,  [rax+rdx*8] ; ret ; (1 found)
0x4af09a: lea eax,  [rax+rdx+0x00004000] ; ret ; (1 found)
0x42135c: lea eax,  [rax] ; add byte [rax-0x39], cl ; ret ; (1 found)
0x40315d: lea eax,  [rbx+0x01] ; pop rbx ; ret ; (1 found)
0x457364: lea eax,  [rcx+rax-0x00000081] ; ret ; (1 found)
0x4595d4: lea eax,  [rcx+rax-0x09] ; ret ; (1 found)
0x4595c4: lea eax,  [rcx+rax-0x11] ; ret ; (1 found)
0x4595b4: lea eax,  [rcx+rax-0x19] ; ret ; (1 found)
0x457394: lea eax,  [rcx+rax-0x21] ; ret ; (2 found)
0x457384: lea eax,  [rcx+rax-0x41] ; ret ; (1 found)
0x457374: lea eax,  [rcx+rax-0x61] ; ret ; (1 found)
0x448fed: lea eax,  [rcx+rsi] ; ret ; (1 found)
0x44fe44: lea eax,  [rcx-0x01] ; ret ; (1 found)
0x44d9a7: lea eax,  [rdi+0x01] ; ret ; (3 found)
0x44dfe7: lea eax,  [rdi+0x01] ; vzeroupper ; ret ; (1 found)
0x44d9ba: lea eax,  [rdi+0x02] ; ret ; (3 found)
0x44dffb: lea eax,  [rdi+0x02] ; vzeroupper ; ret ; (1 found)
0x44d9c5: lea eax,  [rdi+0x03] ; ret ; (4 found)
0x44e015: lea eax,  [rdi+0x03] ; vzeroupper ; ret ; (1 found)
0x44d9d8: lea eax,  [rdi+0x04] ; ret ; (2 found)
0x44d9ed: lea eax,  [rdi+0x05] ; ret ; (2 found)
0x44da0b: lea eax,  [rdi+0x06] ; ret ; (2 found)
0x44da17: lea eax,  [rdi+0x07] ; ret ; (3 found)
0x44da2a: lea eax,  [rdi+0x08] ; ret ; (2 found)
0x44da3f: lea eax,  [rdi+0x09] ; ret ; (2 found)
0x44da5d: lea eax,  [rdi+0x0A] ; ret ; (2 found)
0x44da7d: lea eax,  [rdi+0x0B] ; ret ; (3 found)
0x44da9f: lea eax,  [rdi+0x0C] ; ret ; (2 found)
0x44dabf: lea eax,  [rdi+0x0D] ; ret ; (2 found)
0x44dadf: lea eax,  [rdi+0x0E] ; ret ; (2 found)
0x44daf9: lea eax,  [rdi+0x0F] ; ret ; (3 found)
0x44db0c: lea eax,  [rdi+0x10] ; ret ; (1 found)
0x44db21: lea eax,  [rdi+0x11] ; ret ; (1 found)
0x44db3f: lea eax,  [rdi+0x12] ; ret ; (1 found)
0x44db5f: lea eax,  [rdi+0x13] ; ret ; (1 found)
0x44db82: lea eax,  [rdi+0x14] ; ret ; (1 found)
0x44dba1: lea eax,  [rdi+0x15] ; ret ; (1 found)
0x44dbc1: lea eax,  [rdi+0x16] ; ret ; (1 found)
0x44dbe1: lea eax,  [rdi+0x17] ; ret ; (1 found)
0x44dc04: lea eax,  [rdi+0x18] ; ret ; (1 found)
0x44dc29: lea eax,  [rdi+0x19] ; ret ; (1 found)
0x44dc47: lea eax,  [rdi+0x1A] ; ret ; (1 found)
0x44dc67: lea eax,  [rdi+0x1B] ; ret ; (1 found)
0x44dc83: lea eax,  [rdi+0x1C] ; ret ; (1 found)
0x44dca3: lea eax,  [rdi+0x1D] ; ret ; (1 found)
0x44dcc3: lea eax,  [rdi+0x1E] ; ret ; (1 found)
0x44dce3: lea eax,  [rdi+0x1F] ; ret ; (1 found)
0x49fb94: lea eax,  [rdi+rax*4+0x00000080] ; ret ; (6 found)
0x4a0475: lea eax,  [rdi+rax*4+0x000000A0] ; ret ; (1 found)
0x4a0485: lea eax,  [rdi+rax*4+0x000000C0] ; ret ; (1 found)
0x4a044b: lea eax,  [rdi+rax*4+0x000000E0] ; ret ; (1 found)
0x49fbab: lea eax,  [rdi+rax*4+0x20] ; ret ; (6 found)
0x49fbc4: lea eax,  [rdi+rax*4+0x40] ; ret ; (8 found)
0x49fb6b: lea eax,  [rdi+rax*4+0x60] ; ret ; (5 found)
0x49ff69: lea eax,  [rdi+rax*4] ; cmovle rax, rcx ; ret ; (2 found)
0x49fd1a: lea eax,  [rdi+rax*4] ; ret ; (5 found)
0x4a0145: lea eax,  [rdi+rax*4] ; vzeroupper ; ret ; (1 found)
0x4558f5: lea eax,  [rdi+rax+0x00000080] ; ret ; (11 found)
0x49dce5: lea eax,  [rdi+rax+0x000000A0] ; ret ; (1 found)
0x49dcf5: lea eax,  [rdi+rax+0x000000C0] ; ret ; (1 found)
0x49dcc8: lea eax,  [rdi+rax+0x000000E0] ; ret ; (1 found)
0x459749: lea eax,  [rdi+rax+0x08] ; ret ; (3 found)
0x459708: lea eax,  [rdi+rax+0x10] ; ret ; (7 found)
0x4597f3: lea eax,  [rdi+rax+0x18] ; ret ; (2 found)
0x4558c5: lea eax,  [rdi+rax+0x20] ; ret ; (18 found)
0x49da05: lea eax,  [rdi+rax+0x20] ; vzeroupper ; ret ; (2 found)
0x43495d: lea eax,  [rdi+rax+0x30] ; ret ; (5 found)
0x4558d5: lea eax,  [rdi+rax+0x40] ; ret ; (18 found)
0x49d9dd: lea eax,  [rdi+rax+0x40] ; vzeroupper ; ret ; (2 found)
0x4558e5: lea eax,  [rdi+rax+0x60] ; ret ; (11 found)
0x4559c5: lea eax,  [rdi+rax-0x0080] ; vzeroupper ; ret ; (1 found)
0x457731: lea eax,  [rdi+rax-0x20] ; ret ; (3 found)
0x449235: lea eax,  [rdi+rax-0x20] ; vzeroupper ; ret ; (3 found)
0x4559ab: lea eax,  [rdi+rax-0x40] ; vzeroupper ; ret ; (1 found)
0x4559d5: lea eax,  [rdi+rax-0x60] ; vzeroupper ; ret ; (1 found)
0x49d829: lea eax,  [rdi+rax] ; cmovle rax, rcx ; ret ; (2 found)
0x44879b: lea eax,  [rdi+rax] ; ret ; (4 found)
0x455d9d: lea eax,  [rdi+rdx] ; ret ; (4 found)
0x44e02d: lea eax,  [rdi+rdx] ; vzeroupper ; ret ; (4 found)
0x448ee9: lea eax,  [rdi+rsi] ; ret ; (1 found)
0x44d993: lea eax,  [rdi] ; ret ; (3 found)
0x44df65: lea eax,  [rdi] ; vzeroupper ; ret ; (1 found)
0x44cea7: lea eax,  [rdx+0x01] ; ret ; (1 found)
0x44cebd: lea eax,  [rdx+0x02] ; ret ; (1 found)
0x44ced5: lea eax,  [rdx+0x03] ; ret ; (1 found)
0x44ceeb: lea eax,  [rdx+0x04] ; ret ; (1 found)
0x44cefd: lea eax,  [rdx+0x05] ; ret ; (1 found)
0x44cf1b: lea eax,  [rdx+0x06] ; ret ; (1 found)
0x44ce27: lea eax,  [rdx+0x07] ; ret ; (1 found)
0x44cf2d: lea eax,  [rdx+0x08] ; ret ; (1 found)
0x44cf4d: lea eax,  [rdx+0x09] ; ret ; (1 found)
0x44cf6d: lea eax,  [rdx+0x0A] ; ret ; (1 found)
0x44cf8d: lea eax,  [rdx+0x0B] ; ret ; (1 found)
0x44cfaf: lea eax,  [rdx+0x0C] ; ret ; (1 found)
0x44cfcf: lea eax,  [rdx+0x0D] ; ret ; (1 found)
0x44cfef: lea eax,  [rdx+0x0E] ; ret ; (1 found)
0x44ce7f: lea eax,  [rdx+0x0F] ; ret ; (1 found)
0x49fd73: lea eax,  [rdx+rax*4] ; ret ; (1 found)
0x42343d: lea eax,  [rdx+rdi] ; ret ; (4 found)
0x44ce95: lea eax,  [rdx] ; ret ; (1 found)
0x472257: lea eax,  [rsp+0x000000A0] ; call r15 ; (1 found)
0x464f0a: lea eax, ebx ; nop  [rax+0x00] ; ret ; (1 found)
0x403432: lea ebp,  [rax-0x08] ; nop  [rax] ; call qword [rbp+rbx*8+0x00] ; (1 found)
0x4af575: lea ebx,  [rbp+rdx*8+0x00] ; nop  [rax+0x00000000] ; call qword [rbx] ; (1 found)
0x48571e: lea ebx,  [rdi+rdi*8-0x01] ; jmp qword [rsi+0x0F] ; (1 found)
0x491e7f: lea ebx,  [rdx] ; std ; jmp qword [rsi+0x66] ; (1 found)
0x49e216: lea ecx,  [rax+0x01] ; lea r9, qword [rsp+0x38] ; call rbx ; (1 found)
0x457d66: lea ecx,  [rax+0x04] ; lea r9, qword [rsp+0x20] ; call rbx ; (1 found)
0x435cb0: lea ecx,  [rbx+rcx] ; jmp r9 ; (4 found)
0x44d21e: lea ecx,  [rbx+rcx] ; jmp rcx ; (16 found)
0x416654: lea ecx,  [rbx+rdx] ; add rdx, r12 ; call qword [r10+rax*8] ; (2 found)
0x436181: lea ecx,  [rcx-0x00000007] ; lea rdx, qword [rdx-0x40] ; jmp r9 ; (60 found)
0x4636d6: lea ecx,  [rsi+rcx*4] ; add eax,  [rcx+rdx] ; ret ; (1 found)
0x457ad8: lea ecx,  [rsp+0x18] ; call r13 ; (1 found)
0x457cee: lea ecx,  [rsp+0x20] ; call rbx ; (2 found)
0x41e55f: lea ecx,  [rsp+0x28] ; call rbp ; (2 found)
0x457f28: lea ecx,  [rsp+0x30] ; call rbx ; (1 found)
0x49e21a: lea ecx,  [rsp+0x38] ; call rbx ; (1 found)
0x4691af: lea ecx, ebx ; stc ; jmp qword [rsi+0x66] ; (1 found)
0x4651d8: lea edi,  [0x00000000004C794B] ; mov eax, 0x00000015 ; syscall ; (1 found)
0x416d01: lea edi,  [0x00000000004EE7C0] ; jmp qword [rdi+rax*8] ; (1 found)
0x4a7e33: lea edi,  [rax+0x1C] ; mov eax, 0x000000CA ; syscall ; (5 found)
0x4647d1: lea edi,  [rbx+0x000002D0] ; mov eax, 0x000000DA ; syscall ; (1 found)
0x465370: lea edi,  [rcx+rax+0x48] ; jmp rdx ; (1 found)
0x4228db: lea edi,  [rsi+0x01] ; mov rdi, r12 ; call qword [rbx+0x18] ; (1 found)
0x45f399: lea edi,  [rsp+0x20] ; call 0x00000000 ; (2 found)
0x42c2e5: lea edx,  [0x000000000042EC10] ; cmovne rax, rdx ; ret ; (1 found)
0x42c5d9: lea edx,  [0x0000000000431B20] ; cmovne rax, rdx ; ret ; (1 found)
0x42d1a9: lea edx,  [0x000000000043B1A0] ; cmovne rax, rdx ; ret ; (1 found)
0x42d389: lea edx,  [0x000000000043B1C0] ; cmovne rax, rdx ; ret ; (1 found)
0x42cf99: lea edx,  [0x000000000043DCB0] ; cmovne rax, rdx ; ret ; (1 found)
0x42d2fc: lea edx,  [0x00000000004431B0] ; cmovne rax, rdx ; ret ; (1 found)
0x42c365: lea edx,  [0x000000000044A040] ; cmovne rax, rdx ; ret ; (1 found)
0x42d275: lea edx,  [0x000000000044B7F0] ; cmovne rax, rdx ; ret ; (1 found)
0x42c269: lea edx,  [0x000000000044E0A0] ; cmovne rax, rdx ; ret ; (1 found)
0x42ceb7: lea edx,  [0x000000000044E3C0] ; cmovne rax, rdx ; ret ; (1 found)
0x49e08c: lea edx,  [0x0000000000451C80] ; cmove rax, rdx ; ret ; (1 found)
0x42d0d3: lea edx,  [0x0000000000451E60] ; cmove rax, rdx ; ret ; (1 found)
0x458167: lea edx,  [0x0000000000458C10] ; cmovne rax, rdx ; ret ; (1 found)
0x49417c: lea edx,  [0x0000000000497610] ; cmovne rax, rdx ; ret ; (1 found)
0x49df67: lea edx,  [0x000000000049EFE0] ; cmovne rax, rdx ; ret ; (1 found)
0x41ad84: lea edx,  [0x00000000004C3700] ; add rax, rdx ; ret ; (1 found)
0x45f82a: lea edx,  [rax+0x000002D0] ; mov eax, 0x00000038 ; syscall ; (1 found)
0x425944: lea edx,  [rax+0x01] ; mov qword [0x00000000004F28C8], rdx ; ret ; (1 found)
0x41517f: lea edx,  [rax-0x77000005] ; add cl, byte [rax-0x7D] ; ret ; (1 found)
0x435d84: lea edx,  [rbx+rdx] ; jmp rdx ; (150 found)
0x42d5a6: lea edx,  [rdx+rcx] ; jmp r10 ; (13 found)
0x436188: lea edx,  [rdx-0x40] ; jmp r9 ; (60 found)
0x424e6a: lea esi,  [0x00000000004C42A0] ; mov eax, 0x0000000E ; syscall ; (1 found)
0x424fdd: lea esi,  [0x00000000004C42A0] ; syscall ; (1 found)
0x48ae80: lea esi,  [0x00000000004EF6A0] ; movzx eax, byte [rdi+rax] ; jmp qword [rsi+rax*8] ; (1 found)
0x48dbb3: lea esi,  [0x00000000004EFAA0] ; jmp qword [rsi+rdx*8] ; (1 found)
0x48dc4c: lea esi,  [0x00000000004EFBA0] ; jmp qword [rsi+rdx*8] ; (1 found)
0x4be9b3: lea esi,  [rax] ; hlt ; jmp qword [rsi+0x0F] ; (1 found)
0x41fcdd: lea esi,  [rsp+0x10] ; mov rdi, rbp ; call qword [r13+0x00000090] ; (1 found)
0x41f692: lea esi,  [rsp+0x10] ; mov rdi, rbp ; call qword [rax+0x00000090] ; (1 found)
0x41d0e8: lea esi,  [rsp+0x30] ; mov rdi, r15 ; call qword [r14+0x00000090] ; (1 found)
0x4a494f: lea esi, eax ; sti ; call qword [rax-0x00083817] ; (1 found)
0x42d5a5: lea r10, qword [r10+r9] ; jmp r10 ; (13 found)
0x45f829: lea r10, qword [rax+0x000002D0] ; mov eax, 0x00000038 ; syscall ; (1 found)
0x4228d9: lea r15, qword [r14+0x01] ; mov rdi, r12 ; call qword [rbx+0x18] ; (2 found)
0x472256: lea r8, qword [rsp+0x000000A0] ; call r15 ; (1 found)
0x435caf: lea r9, qword [r11+r9] ; jmp r9 ; (4 found)
0x436180: lea r9, qword [r9-0x00000007] ; lea rdx, qword [rdx-0x40] ; jmp r9 ; (60 found)
0x457ad7: lea r9, qword [rsp+0x18] ; call r13 ; (1 found)
0x457ced: lea r9, qword [rsp+0x20] ; call rbx ; (2 found)
0x41e55e: lea r9, qword [rsp+0x28] ; call rbp ; (2 found)
0x457f27: lea r9, qword [rsp+0x30] ; call rbx ; (1 found)
0x49e219: lea r9, qword [rsp+0x38] ; call rbx ; (1 found)
0x42d474: lea rax, qword [0x00000000004347A0] ; cmove rax, rdx ; ret ; (1 found)
0x42d4ed: lea rax, qword [0x0000000000448750] ; cmove rax, rdx ; ret ; (1 found)
0x42c65d: lea rax, qword [0x0000000000448DF0] ; cmove rax, rdx ; ret ; (1 found)
0x42c4dd: lea rax, qword [0x00000000004492C0] ; cmove rax, rdx ; ret ; (1 found)
0x42c54d: lea rax, qword [0x0000000000449460] ; cmove rax, rdx ; ret ; (1 found)
0x42ce72: lea rax, qword [0x000000000044FB30] ; cmove rax, rdx ; ret ; (1 found)
0x42c3c2: lea rax, qword [0x000000000044FFD0] ; cmovne rax, rdx ; ret ; (1 found)
0x42d1ea: lea rax, qword [0x0000000000450540] ; cmove rax, rdx ; ret ; (1 found)
0x42cfda: lea rax, qword [0x0000000000450580] ; cmove rax, rdx ; ret ; (2 found)
0x42d22a: lea rax, qword [0x0000000000450B50] ; cmove rax, rdx ; ret ; (1 found)
0x42d01a: lea rax, qword [0x0000000000450B80] ; cmove rax, rdx ; ret ; (2 found)
0x42d1d2: lea rax, qword [0x00000000004512D0] ; cmove rax, rdx ; ret ; (1 found)
0x42cfc2: lea rax, qword [0x0000000000451300] ; cmove rax, rdx ; ret ; (2 found)
0x42d099: lea rax, qword [0x0000000000451B00] ; cmovne rax, rdx ; ret ; (1 found)
0x42d07b: lea rax, qword [0x0000000000451D00] ; cmove rax, rdx ; ret ; (1 found)
0x49e0aa: lea rax, qword [0x0000000000451E40] ; cmovne rax, rdx ; ret ; (1 found)
0x42d170: lea rax, qword [0x00000000004524D0] ; cmove rax, rdx ; ret ; (1 found)
0x42cf60: lea rax, qword [0x0000000000452500] ; cmove rax, rdx ; ret ; (2 found)
0x42d0e9: lea rax, qword [0x0000000000452C80] ; cmove rax, rdx ; ret ; (1 found)
0x42d20a: lea rax, qword [0x0000000000454E90] ; cmove rax, rdx ; ret ; (1 found)
0x42cffa: lea rax, qword [0x0000000000454EC0] ; cmove rax, rdx ; ret ; (2 found)
0x42d115: lea rax, qword [0x0000000000455700] ; cmove rax, rdx ; ret ; (1 found)
0x42d491: lea rax, qword [0x00000000004577C0] ; cmove rax, rdx ; ret ; (1 found)
0x494114: lea rax, qword [0x0000000000494990] ; cmove rax, rdx ; ret ; (1 found)
0x494131: lea rax, qword [0x000000000049DAA0] ; cmove rax, rdx ; ret ; (1 found)
0x49e004: lea rax, qword [0x000000000049E2A0] ; cmove rax, rdx ; ret ; (1 found)
0x49df1d: lea rax, qword [0x000000000049E930] ; cmove rax, rdx ; ret ; (1 found)
0x49e021: lea rax, qword [0x00000000004A0200] ; cmove rax, rdx ; ret ; (1 found)
0x4af0c2: lea rax, qword [0x00000000004AF130] ; cmovne rax, rdx ; ret ; (1 found)
0x41ad51: lea rax, qword [0x00000000004EEEC0] ; mov rax, qword [rax+rdi*8] ; ret ; (1 found)
0x466654: lea rax, qword [0x00000000004F3380] ; ret ; (1 found)
0x463a92: lea rax, qword [0x00000000004F9BE8] ; ret ; (2 found)
0x434993: lea rax, qword [rax+rdi+0x10] ; ret ; (3 found)
0x4349a3: lea rax, qword [rax+rdi+0x20] ; ret ; (3 found)
0x434973: lea rax, qword [rax+rdi-0x10] ; ret ; (3 found)
0x45ec8f: lea rax, qword [rax+rdx*8] ; ret ; (1 found)
0x4af099: lea rax, qword [rax+rdx+0x00004000] ; ret ; (1 found)
0x40315c: lea rax, qword [rbx+0x01] ; pop rbx ; ret ; (1 found)
0x448fec: lea rax, qword [rcx+rsi] ; ret ; (1 found)
0x44fe43: lea rax, qword [rcx-0x01] ; ret ; (1 found)
0x44d9a6: lea rax, qword [rdi+0x01] ; ret ; (3 found)
0x44dfe6: lea rax, qword [rdi+0x01] ; vzeroupper ; ret ; (1 found)
0x44d9b9: lea rax, qword [rdi+0x02] ; ret ; (3 found)
0x44dffa: lea rax, qword [rdi+0x02] ; vzeroupper ; ret ; (1 found)
0x44d9c4: lea rax, qword [rdi+0x03] ; ret ; (4 found)
0x44e014: lea rax, qword [rdi+0x03] ; vzeroupper ; ret ; (1 found)
0x44d9d7: lea rax, qword [rdi+0x04] ; ret ; (2 found)
0x44d9ec: lea rax, qword [rdi+0x05] ; ret ; (2 found)
0x44da0a: lea rax, qword [rdi+0x06] ; ret ; (2 found)
0x44da16: lea rax, qword [rdi+0x07] ; ret ; (3 found)
0x44da29: lea rax, qword [rdi+0x08] ; ret ; (2 found)
0x44da3e: lea rax, qword [rdi+0x09] ; ret ; (2 found)
0x44da5c: lea rax, qword [rdi+0x0A] ; ret ; (2 found)
0x44da7c: lea rax, qword [rdi+0x0B] ; ret ; (3 found)
0x44da9e: lea rax, qword [rdi+0x0C] ; ret ; (2 found)
0x44dabe: lea rax, qword [rdi+0x0D] ; ret ; (2 found)
0x44dade: lea rax, qword [rdi+0x0E] ; ret ; (2 found)
0x44daf8: lea rax, qword [rdi+0x0F] ; ret ; (3 found)
0x44db0b: lea rax, qword [rdi+0x10] ; ret ; (1 found)
0x44db20: lea rax, qword [rdi+0x11] ; ret ; (1 found)
0x44db3e: lea rax, qword [rdi+0x12] ; ret ; (1 found)
0x44db5e: lea rax, qword [rdi+0x13] ; ret ; (1 found)
0x44db81: lea rax, qword [rdi+0x14] ; ret ; (1 found)
0x44dba0: lea rax, qword [rdi+0x15] ; ret ; (1 found)
0x44dbc0: lea rax, qword [rdi+0x16] ; ret ; (1 found)
0x44dbe0: lea rax, qword [rdi+0x17] ; ret ; (1 found)
0x44dc03: lea rax, qword [rdi+0x18] ; ret ; (1 found)
0x44dc28: lea rax, qword [rdi+0x19] ; ret ; (1 found)
0x44dc46: lea rax, qword [rdi+0x1A] ; ret ; (1 found)
0x44dc66: lea rax, qword [rdi+0x1B] ; ret ; (1 found)
0x44dc82: lea rax, qword [rdi+0x1C] ; ret ; (1 found)
0x44dca2: lea rax, qword [rdi+0x1D] ; ret ; (1 found)
0x44dcc2: lea rax, qword [rdi+0x1E] ; ret ; (1 found)
0x44dce2: lea rax, qword [rdi+0x1F] ; ret ; (1 found)
0x49fb93: lea rax, qword [rdi+rax*4+0x00000080] ; ret ; (6 found)
0x4a0474: lea rax, qword [rdi+rax*4+0x000000A0] ; ret ; (1 found)
0x4a0484: lea rax, qword [rdi+rax*4+0x000000C0] ; ret ; (1 found)
0x4a044a: lea rax, qword [rdi+rax*4+0x000000E0] ; ret ; (1 found)
0x49fbaa: lea rax, qword [rdi+rax*4+0x20] ; ret ; (6 found)
0x49fbc3: lea rax, qword [rdi+rax*4+0x40] ; ret ; (8 found)
0x49fb6a: lea rax, qword [rdi+rax*4+0x60] ; ret ; (5 found)
0x49ff68: lea rax, qword [rdi+rax*4] ; cmovle rax, rcx ; ret ; (2 found)
0x49fd19: lea rax, qword [rdi+rax*4] ; ret ; (5 found)
0x4a0144: lea rax, qword [rdi+rax*4] ; vzeroupper ; ret ; (1 found)
0x4558f4: lea rax, qword [rdi+rax+0x00000080] ; ret ; (10 found)
0x49dce4: lea rax, qword [rdi+rax+0x000000A0] ; ret ; (1 found)
0x49dcf4: lea rax, qword [rdi+rax+0x000000C0] ; ret ; (1 found)
0x49dcc7: lea rax, qword [rdi+rax+0x000000E0] ; ret ; (1 found)
0x459748: lea rax, qword [rdi+rax+0x08] ; ret ; (2 found)
0x459707: lea rax, qword [rdi+rax+0x10] ; ret ; (6 found)
0x4597f2: lea rax, qword [rdi+rax+0x18] ; ret ; (1 found)
0x4558c4: lea rax, qword [rdi+rax+0x20] ; ret ; (16 found)
0x49da04: lea rax, qword [rdi+rax+0x20] ; vzeroupper ; ret ; (2 found)
0x43495c: lea rax, qword [rdi+rax+0x30] ; ret ; (5 found)
0x4558d4: lea rax, qword [rdi+rax+0x40] ; ret ; (17 found)
0x49d9dc: lea rax, qword [rdi+rax+0x40] ; vzeroupper ; ret ; (2 found)
0x4558e4: lea rax, qword [rdi+rax+0x60] ; ret ; (10 found)
0x4559c4: lea rax, qword [rdi+rax-0x0080] ; vzeroupper ; ret ; (1 found)
0x457730: lea rax, qword [rdi+rax-0x20] ; ret ; (3 found)
0x449234: lea rax, qword [rdi+rax-0x20] ; vzeroupper ; ret ; (3 found)
0x4559aa: lea rax, qword [rdi+rax-0x40] ; vzeroupper ; ret ; (1 found)
0x4559d4: lea rax, qword [rdi+rax-0x60] ; vzeroupper ; ret ; (1 found)
0x49d828: lea rax, qword [rdi+rax] ; cmovle rax, rcx ; ret ; (2 found)
0x44879a: lea rax, qword [rdi+rax] ; ret ; (4 found)
0x455d9c: lea rax, qword [rdi+rdx] ; ret ; (4 found)
0x44e02c: lea rax, qword [rdi+rdx] ; vzeroupper ; ret ; (4 found)
0x448ee8: lea rax, qword [rdi+rsi] ; ret ; (1 found)
0x44d992: lea rax, qword [rdi] ; ret ; (3 found)
0x44df64: lea rax, qword [rdi] ; vzeroupper ; ret ; (1 found)
0x44cea6: lea rax, qword [rdx+0x01] ; ret ; (1 found)
0x44cebc: lea rax, qword [rdx+0x02] ; ret ; (1 found)
0x44ced4: lea rax, qword [rdx+0x03] ; ret ; (1 found)
0x44ceea: lea rax, qword [rdx+0x04] ; ret ; (1 found)
0x44cefc: lea rax, qword [rdx+0x05] ; ret ; (1 found)
0x44cf1a: lea rax, qword [rdx+0x06] ; ret ; (1 found)
0x44ce26: lea rax, qword [rdx+0x07] ; ret ; (1 found)
0x44cf2c: lea rax, qword [rdx+0x08] ; ret ; (1 found)
0x44cf4c: lea rax, qword [rdx+0x09] ; ret ; (1 found)
0x44cf6c: lea rax, qword [rdx+0x0A] ; ret ; (1 found)
0x44cf8c: lea rax, qword [rdx+0x0B] ; ret ; (1 found)
0x44cfae: lea rax, qword [rdx+0x0C] ; ret ; (1 found)
0x44cfce: lea rax, qword [rdx+0x0D] ; ret ; (1 found)
0x44cfee: lea rax, qword [rdx+0x0E] ; ret ; (1 found)
0x44ce7e: lea rax, qword [rdx+0x0F] ; ret ; (1 found)
0x49fd72: lea rax, qword [rdx+rax*4] ; ret ; (1 found)
0x44ce94: lea rax, qword [rdx] ; ret ; (1 found)
0x403431: lea rbp, qword [rax-0x08] ; nop  [rax] ; call qword [rbp+rbx*8+0x00] ; (1 found)
0x4af574: lea rbx, qword [rbp+rdx*8+0x00] ; nop  [rax+0x00000000] ; call qword [rbx] ; (1 found)
0x44d21d: lea rcx, qword [r11+rcx] ; jmp rcx ; (16 found)
0x49e215: lea rcx, qword [rax+0x01] ; lea r9, qword [rsp+0x38] ; call rbx ; (1 found)
0x457d65: lea rcx, qword [rax+0x04] ; lea r9, qword [rsp+0x20] ; call rbx ; (1 found)
0x416653: lea rcx, qword [rbx+rdx] ; add rdx, r12 ; call qword [r10+rax*8] ; (2 found)
0x4636d5: lea rcx, qword [rsi+rcx*4] ; add eax,  [rcx+rdx] ; ret ; (1 found)
0x4651d7: lea rdi, qword [0x00000000004C794B] ; mov eax, 0x00000015 ; syscall ; (1 found)
0x416d00: lea rdi, qword [0x00000000004EE7C0] ; jmp qword [rdi+rax*8] ; (1 found)
0x4a7e32: lea rdi, qword [rax+0x1C] ; mov eax, 0x000000CA ; syscall ; (5 found)
0x4647d0: lea rdi, qword [rbx+0x000002D0] ; mov eax, 0x000000DA ; syscall ; (1 found)
0x46536f: lea rdi, qword [rcx+rax+0x48] ; jmp rdx ; (1 found)
0x45f398: lea rdi, qword [rsp+0x20] ; call 0x00000000 ; (2 found)
0x42c2e4: lea rdx, qword [0x000000000042EC10] ; cmovne rax, rdx ; ret ; (1 found)
0x42c5d8: lea rdx, qword [0x0000000000431B20] ; cmovne rax, rdx ; ret ; (1 found)
0x42d1a8: lea rdx, qword [0x000000000043B1A0] ; cmovne rax, rdx ; ret ; (1 found)
0x42d388: lea rdx, qword [0x000000000043B1C0] ; cmovne rax, rdx ; ret ; (1 found)
0x42cf98: lea rdx, qword [0x000000000043DCB0] ; cmovne rax, rdx ; ret ; (1 found)
0x42d2fb: lea rdx, qword [0x00000000004431B0] ; cmovne rax, rdx ; ret ; (1 found)
0x42c364: lea rdx, qword [0x000000000044A040] ; cmovne rax, rdx ; ret ; (1 found)
0x42d274: lea rdx, qword [0x000000000044B7F0] ; cmovne rax, rdx ; ret ; (1 found)
0x42c268: lea rdx, qword [0x000000000044E0A0] ; cmovne rax, rdx ; ret ; (1 found)
0x42ceb6: lea rdx, qword [0x000000000044E3C0] ; cmovne rax, rdx ; ret ; (1 found)
0x49e08b: lea rdx, qword [0x0000000000451C80] ; cmove rax, rdx ; ret ; (1 found)
0x42d0d2: lea rdx, qword [0x0000000000451E60] ; cmove rax, rdx ; ret ; (1 found)
0x458166: lea rdx, qword [0x0000000000458C10] ; cmovne rax, rdx ; ret ; (1 found)
0x49417b: lea rdx, qword [0x0000000000497610] ; cmovne rax, rdx ; ret ; (1 found)
0x49df66: lea rdx, qword [0x000000000049EFE0] ; cmovne rax, rdx ; ret ; (1 found)
0x41ad83: lea rdx, qword [0x00000000004C3700] ; add rax, rdx ; ret ; (1 found)
0x435d83: lea rdx, qword [r11+rdx] ; jmp rdx ; (150 found)
0x425943: lea rdx, qword [rax+0x01] ; mov qword [0x00000000004F28C8], rdx ; ret ; (1 found)
0x436187: lea rdx, qword [rdx-0x40] ; jmp r9 ; (60 found)
0x424e69: lea rsi, qword [0x00000000004C42A0] ; mov eax, 0x0000000E ; syscall ; (1 found)
0x424fdb: lea rsi, qword [0x00000000004C42A0] ; syscall ; (2 found)
0x48ae7f: lea rsi, qword [0x00000000004EF6A0] ; movzx eax, byte [rdi+rax] ; jmp qword [rsi+rax*8] ; (1 found)
0x48dbb2: lea rsi, qword [0x00000000004EFAA0] ; jmp qword [rsi+rdx*8] ; (1 found)
0x48dc4b: lea rsi, qword [0x00000000004EFBA0] ; jmp qword [rsi+rdx*8] ; (1 found)
0x41fcdc: lea rsi, qword [rsp+0x10] ; mov rdi, rbp ; call qword [r13+0x00000090] ; (1 found)
0x41f691: lea rsi, qword [rsp+0x10] ; mov rdi, rbp ; call qword [rax+0x00000090] ; (1 found)
0x41d0e7: lea rsi, qword [rsp+0x30] ; mov rdi, r15 ; call qword [r14+0x00000090] ; (1 found)
0x4b6f71: leave ; cli ; jmp qword [rsi+0x66] ; (1 found)
0x429d36: leave ; mov  [0x00000000004F9404], 0x00000000 ; ret ; (1 found)
0x4a24af: leave ; mov eax, 0x00000001 ; ret ; (1 found)
0x4353bd: leave ; or eax, ecx ; ret ; (2 found)
0x401c3e: leave ; ret ; (15 found)
0x45575f: leave ; vmovdqu8  [rax], ymm16 ; ret ; (1 found)
0x451f22: leave ; vmovdqu8  [rax], zmm16 ; ret ; (1 found)
0x4a246f: leave ; xor eax, eax ; ret ; (1 found)
0x42983c: lock add  [rbx-0x72B7FE20], eax ; push rsp ; retn 0xE8F0 ; (2 found)
0x465dd2: lock add eax,  [rax] ; add dh, dh ; retn 0x7402 ; (2 found)
0x457353: lock bsf eax, eax ; ret ; (2 found)
0x449853: lock bsf eax, eax ; vzeroupper ; ret ; (1 found)
0x4a2147: lock cmc ; dec  [rax-0x77] ; retn 0x8948 ; (1 found)
0x48106f: lock fld tword [rsp-0x18] ; ret ; (1 found)
0x4aa223: lock inc  [rsi+0x10] ; pop rbx ; ret ; (1 found)
0x4361e6: lock jmp r9 ; (30 found)
0x403318: lock jmp rax ; (5 found)
0x4b3e16: lock mov eax, 0x0000009E ; syscall ; (2 found)
0x437557: lock mov qword [rdi-0x08], rcx ; ret ; (4 found)
0x437595: lock mov qword [rdi-0x08], rdx ; ret ; (12 found)
0x4bbbfa: lock mov r15, qword [rbp-0x08] ; leave ; ret ; (3 found)
0x4841ce: lock movdqa xmm0,  [rsp-0x18] ; ret ; (1 found)
0x43cde8: lock movdqu  [rdi-0x10], xmm0 ; ret ; (6 found)
0x43d593: lock movdqu  [rdi-0x11], xmm0 ; movdqu  [rdi-0x10], xmm1 ; ret ; (6 found)
0x43d513: lock movdqu  [rdi-0x12], xmm0 ; movdqu  [rdi-0x10], xmm1 ; ret ; (6 found)
0x43d483: lock movdqu  [rdi-0x13], xmm0 ; movdqu  [rdi-0x10], xmm1 ; ret ; (6 found)
0x43d403: lock movdqu  [rdi-0x14], xmm0 ; movdqu  [rdi-0x10], xmm1 ; ret ; (6 found)
0x43d383: lock movdqu  [rdi-0x15], xmm0 ; movdqu  [rdi-0x10], xmm1 ; ret ; (6 found)
0x43d303: lock movdqu  [rdi-0x16], xmm0 ; movdqu  [rdi-0x10], xmm1 ; ret ; (6 found)
0x43d283: lock movdqu  [rdi-0x17], xmm0 ; movdqu  [rdi-0x10], xmm1 ; ret ; (6 found)
0x43d203: lock movdqu  [rdi-0x18], xmm0 ; movdqu  [rdi-0x10], xmm1 ; ret ; (6 found)
0x43d183: lock movdqu  [rdi-0x19], xmm0 ; movdqu  [rdi-0x10], xmm1 ; ret ; (6 found)
0x43d103: lock movdqu  [rdi-0x1A], xmm0 ; movdqu  [rdi-0x10], xmm1 ; ret ; (6 found)
0x43d083: lock movdqu  [rdi-0x1B], xmm0 ; movdqu  [rdi-0x10], xmm1 ; ret ; (6 found)
0x43d003: lock movdqu  [rdi-0x1C], xmm0 ; movdqu  [rdi-0x10], xmm1 ; ret ; (6 found)
0x43cf73: lock movdqu  [rdi-0x1D], xmm0 ; movdqu  [rdi-0x10], xmm1 ; ret ; (6 found)
0x43cee3: lock movdqu  [rdi-0x1E], xmm0 ; movdqu  [rdi-0x10], xmm1 ; ret ; (6 found)
0x43ce53: lock movdqu  [rdi-0x1F], xmm0 ; movdqu  [rdi-0x10], xmm1 ; ret ; (6 found)
0x481041: lock movq xmm0, xmm0 ; ret ; (1 found)
0x450606: lock movups  [rdi+rdx-0x20], xmm3 ; ret ; (1 found)
0x4504b2: lock movups  [rdi], xmm0 ; movups  [rdi+rdx-0x10], xmm1 ; ret ; (2 found)
0x451b30: lock movups  [rdi], xmm0 ; ret ; (1 found)
0x43546c: lock movzx eax, byte [rdi+rax-0x10] ; sub eax, ecx ; ret ; (1 found)
0x44f5e2: lock movzx edx, byte [rsi-0x10] ; sub eax, edx ; ret ; (2 found)
0x49209b: lock or  [rcx+0x00000308], 0x10 ; mov rdi, qword [fs:0x00000300] ; call 0x00000000 ; (1 found)
0x4258d5: lock or  [rdx+0x00000308], 0x10 ; mov rdi, qword [fs:0x00000300] ; call 0x00000000 ; (1 found)
0x423147: lock ret ; (92 found)
0x43ceca: lock retn 0x0FF3 ; (2 found)
0x4a4950: lock sti ; call qword [rax-0x00083817] ; (1 found)
0x4a1887: lock sti ; jmp qword [rsi+0x0F] ; (1 found)
0x435471: lock sub eax, ecx ; ret ; (1 found)
0x44f5e7: lock sub eax, edx ; ret ; (1 found)
0x440928: lock vmovdqu  [rdi], xmm0 ; vmovdqu  [r9-0x10], xmm1 ; ret ; (2 found)
0x450beb: lock vmovdqu  [rdi], xmm0 ; vmovdqu  [rdi+rdx-0x10], xmm1 ; ret ; (4 found)
0x451e0b: lock vzeroupper ; ret ; (1 found)
0x4b2a90: lodsb ; xor dh, ch ; jmp qword [rsi+0x66] ; (1 found)
0x49fbc2: lodsd ; lea rax, qword [rdi+rax*4+0x40] ; ret ; (1 found)
0x4649aa: lodsd ; ret ; (3 found)
0x46738a: mov  [0x00000000004F1A50], eax ; pop rbx ; ret ; (1 found)
0x425b83: mov  [0x00000000004F2860], eax ; ret ; (1 found)
0x425ba3: mov  [0x00000000004F2868], eax ; ret ; (1 found)
0x425bc3: mov  [0x00000000004F2870], eax ; ret ; (1 found)
0x425909: mov  [0x00000000004F2878], eax ; ret ; (1 found)
0x4258f9: mov  [0x00000000004F2880], eax ; ret ; (1 found)
0x425be2: mov  [0x00000000004F28A0], eax ; ret ; (1 found)
0x425bd8: mov  [0x00000000004F28A8], 0x00000001 ; mov  [0x00000000004F28A0], eax ; ret ; (1 found)
0x425b78: mov  [0x00000000004F28A8], 0x00000001 ; mov qword [0x00000000004F2860], rax ; ret ; (1 found)
0x425b98: mov  [0x00000000004F28A8], 0x00000001 ; mov qword [0x00000000004F2868], rax ; ret ; (1 found)
0x425bb8: mov  [0x00000000004F28A8], 0x00000001 ; mov qword [0x00000000004F2870], rax ; ret ; (1 found)
0x425948: mov  [0x00000000004F28C8], edx ; ret ; (1 found)
0x425962: mov  [0x00000000004F28D8], eax ; ret ; (1 found)
0x425979: mov  [0x00000000004F28E0], eax ; ret ; (1 found)
0x4920e7: mov  [0x00000000004F3BD0], eax ; ret ; (1 found)
0x4920f7: mov  [0x00000000004F3BD4], eax ; ret ; (1 found)
0x492107: mov  [0x00000000004F3BD8], eax ; ret ; (1 found)
0x492117: mov  [0x00000000004F3BDC], eax ; ret ; (1 found)
0x492437: mov  [0x00000000004F3BE0], eax ; ret ; (1 found)
0x493892: mov  [0x00000000004F3BE8], eax ; add rsp, 0x08 ; ret ; (1 found)
0x492448: mov  [0x00000000004F3BF0], eax ; ret ; (1 found)
0x424105: mov  [0x00000000004F5390], 0x00000000 ; mov qword [0x00000000004F5398], 0x0000000000000000 ; ret ; (1 found)
0x424110: mov  [0x00000000004F5398], 0x00000000 ; ret ; (1 found)
0x49213c: mov  [0x00000000004F53D0], eax ; ret ; (1 found)
0x429d37: mov  [0x00000000004F9404], 0x00000000 ; ret ; (1 found)
0x425bf8: mov  [0x00000000004F9414], eax ; ret ; (1 found)
0x425b07: mov  [0x00000000004F9418], eax ; ret ; (1 found)
0x4bee0d: mov  [0x00000000004F94B0], 0x00000000 ; ret ; (1 found)
0x463ac4: mov  [0x00000000004F9BF0], eax ; lea rax, qword [0x00000000004F9BE8] ; ret ; (1 found)
0x4aee4a: mov  [0x00000000004F9C48], 0x00000000 ; ret ; (2 found)
0x4b2e03: mov  [0x00000000004F9C90], eax ; add rsp, 0x18 ; ret ; (1 found)
0x403651: mov  [0x00000000004F9CE0], 0x00000800 ; pop rbx ; ret ; (1 found)
0x403648: mov  [0x00000000004F9CE0], eax ; pop rbx ; ret ; (1 found)
0x4bf63c: mov  [0x00000000004F9FB0], 0x00000000 ; add rsp, 0x08 ; ret ; (1 found)
0x4bfa8e: mov  [0x00000000004FA158], 0x00000000 ; add rsp, 0x08 ; ret ; (1 found)
0x4a84a1: mov  [0x00000000004FA218], eax ; add rsp, 0x08 ; ret ; (1 found)
0x4ad9c1: mov  [0x00000000004FA278], 0x00000000 ; add rsp, 0x08 ; ret ; (1 found)
0x4b16bd: mov  [0x00000000004FA388], 0x00000000 ; pop rbx ; ret ; (1 found)
0x4b3d9a: mov  [0x00000048], eax ; ret ; (1 found)
0x4b3d99: mov  [0x00000048], r8d ; ret ; (1 found)
0x424b7c: mov  [0x000002F8], edi ; ret ; (2 found)
0x45cb0e: mov  [0x00016D05C0920F00], eax ; add byte [rcx+0x29], al ; retn 0x8944 ; (1 found)
0x475ad9: mov  [0x480F75C0850001DC], eax ; add esp, 0x08 ; ret ; (1 found)
0x4be47c: mov  [0x894CE18948000000], eax ; retn 0xD5E8 ; (1 found)
0x43b857: mov  [0x8D49931463490008], eax ; adc al, 0x13 ; jmp rdx ; (2 found)
0x4bf790: mov  [0xC7481F7400000327], eax ; ror byte [rax+0x48FFFFFF], 0xC7 ; retn 0xFFE0 ; (1 found)
0x4b3d98: mov  [fs:0x00000048], r8d ; ret ; (1 found)
0x41e82f: mov  [fs:rax], 0x00000009 ; mov eax, 0xFFFFFFFF ; ret ; (2 found)
0x461577: mov  [fs:rax], 0x0000000C ; mov eax, 0xFFFFFFFF ; ret ; (1 found)
0x428d57: mov  [fs:rax], 0x0000000C ; xor eax, eax ; ret ; (1 found)
0x45f0a0: mov  [fs:rax], 0x00000016 ; mov eax, 0xFFFFFFFF ; ret ; (2 found)
0x40b919: mov  [fs:rax], 0x00000016 ; mov rax, 0xFFFFFFFFFFFFFFFF ; ret ; (3 found)
0x45e91f: mov  [fs:rax], 0x00000026 ; mov eax, 0xFFFFFFFF ; ret ; (1 found)
0x46046d: mov  [fs:rcx], eax ; or rax, 0xFFFFFFFFFFFFFFFF ; ret ; (17 found)
0x45e901: mov  [fs:rdx], eax ; mov eax, 0xFFFFFFFF ; ret ; (8 found)
0x45f88f: mov  [fs:rdx], eax ; mov eax, r8d ; ret ; (1 found)
0x460859: mov  [fs:rdx], eax ; mov rax, 0xFFFFFFFFFFFFFFFF ; ret ; (9 found)
0x44096a: mov  [r9-0x02], ecx ; ret ; (1 found)
0x440955: mov  [r9-0x04], ecx ; ret ; (1 found)
0x492295: mov  [rax+0x0000006E], edi ; ret ; (1 found)
0x423271: mov  [rax+0x000000A0], 0xFFFFFFFF ; mov qword [rax+0x000000A8], 0x0000000000000000 ; ret ; (1 found)
0x423265: mov  [rax+0x000000A8], 0x00000000 ; ret ; (2 found)
0x4ac3a9: mov  [rax+0x00000310], edx ; movups  [rax+0x00000300], xmm0 ; ret ; (1 found)
0x4b40c5: mov  [rax+0x00000378], edx ; pop rbx ; ret ; (1 found)
0x40a678: mov  [rax+0x04], ebx ; pop rbx ; ret ; (1 found)
0x4231b0: mov  [rax+0x08], 0x00000000 ; ret ; (1 found)
0x463a34: mov  [rax+0x08], edx ; ret ; (1 found)
0x423d73: mov  [rax+0x08], esi ; xor eax, eax ; ret ; (2 found)
0x4b162d: mov  [rax+0x10], 0x00000000 ; ret ; (1 found)
0x426518: mov  [rax+0x20], edx ; add rsp, 0x08 ; ret ; (1 found)
0x464966: mov  [rax+0x40], edx ; mov byte [rax+0x50], 0x01 ; ret ; (1 found)
0x490acf: mov  [rax+0x40], edx ; movups  [rax], xmm0 ; ret ; (1 found)
0x490a94: mov  [rax+0x40], edx ; movups  [rax], xmm1 ; ret ; (1 found)
0x464980: mov  [rax+0x48], edx ; ret ; (2 found)
0x49e116: mov  [rax+0x74FFFFFF], 0xC0C74853 ; cmp bh, 0xFF ; jmp qword [rax+rcx*2-0x75] ; (1 found)
0x49ecc6: mov  [rax+0x7507343B], 0xF8014807 ; vzeroupper ; ret ; (1 found)
0x4b7e33: mov  [rax+rcx*2], 0xE900D283 ; sal ch, 0xFF ; jmp qword [rsi-0x70] ; (1 found)
0x451c6b: mov  [rax+rdx-0x04], edi ; ret ; (3 found)
0x451e22: mov  [rax+rdx-0x04], edi ; vzeroupper ; ret ; (1 found)
0x451c64: mov  [rax+rdx-0x08], edi ; ret ; (3 found)
0x451e14: mov  [rax+rdx-0x08], edi ; vzeroupper ; ret ; (1 found)
0x4c00f8: mov  [rax-0x77], ecx ; retn 0xC148 ; (1 found)
0x4231a9: mov  [rax], 0x00000000 ; mov qword [rax+0x08], 0x0000000000000000 ; ret ; (1 found)
0x41e830: mov  [rax], 0x00000009 ; mov eax, 0xFFFFFFFF ; ret ; (2 found)
0x461578: mov  [rax], 0x0000000C ; mov eax, 0xFFFFFFFF ; ret ; (1 found)
0x428d58: mov  [rax], 0x0000000C ; xor eax, eax ; ret ; (1 found)
0x45f0a1: mov  [rax], 0x00000016 ; mov eax, 0xFFFFFFFF ; ret ; (2 found)
0x40b91a: mov  [rax], 0x00000016 ; mov rax, 0xFFFFFFFFFFFFFFFF ; ret ; (3 found)
0x45e920: mov  [rax], 0x00000026 ; mov eax, 0xFFFFFFFF ; ret ; (1 found)
0x41c244: mov  [rax], 0x89480000 ; ret ; (1 found)
0x451c69: mov  [rax], edi ; mov  [rax+rdx-0x04], edi ; ret ; (3 found)
0x451c71: mov  [rax], edi ; mov byte [rax+rdx-0x01], dil ; ret ; (3 found)
0x451c61: mov  [rax], edi ; mov qword [rax+rdx-0x08], rdi ; ret ; (3 found)
0x4b4585: mov  [rax], edi ; pop rbx ; ret ; (1 found)
0x4aee47: mov  [rax], edx ; mov qword [0x00000000004F9C48], 0x0000000000000000 ; ret ; (1 found)
0x4b4579: mov  [rax], edx ; pop rbx ; ret ; (2 found)
0x4bc5b1: mov  [rax], edx ; ret ; (6 found)
0x491b48: mov  [rax], edx ; xor eax, eax ; ret ; (2 found)
0x493f88: mov  [rax], esi ; ret ; (2 found)
0x4abf9a: mov  [rbp-0x00000088], ecx ; call rax ; (1 found)
0x4aba7e: mov  [rbp-0x000000A0], ebx ; call r9 ; (1 found)
0x4ab859: mov  [rbp-0x000000A0], edx ; call rax ; (1 found)
0x4ab176: mov  [rbp-0x000000B0], edx ; call r9 ; (1 found)
0x4ab002: mov  [rbp-0x000000B0], edx ; call rax ; (1 found)
0x4aba77: mov  [rbp-0x000000D0], edx ; mov qword [rbp-0x000000A0], r11 ; call r9 ; (1 found)
0x485f21: mov  [rbp-0x000000E8], eax ; call rax ; (1 found)
0x4ab16f: mov  [rbp-0x000000E8], ebx ; mov qword [rbp-0x000000B0], r10 ; call r9 ; (1 found)
0x418324: mov  [rbp-0x000008A0], esi ; call qword [r8+rcx*8-0x40] ; (1 found)
0x41831d: mov  [rbp-0x000008A8], eax ; mov qword [rbp-0x000008A0], rsi ; call qword [r8+rcx*8-0x40] ; (1 found)
0x48c9ae: mov  [rbp-0x000008B0], esi ; call qword [r8+rcx*8-0x40] ; (1 found)
0x48c9a7: mov  [rbp-0x000008C8], eax ; mov qword [rbp-0x000008B0], rsi ; call qword [r8+rcx*8-0x40] ; (1 found)
0x472d62: mov  [rbx+0x10], 0x00000000 ; pop rbx ; ret ; (2 found)
0x4b4929: mov  [rbx+0x18], eax ; pop rbx ; ret ; (1 found)
0x4b4a6d: mov  [rbx+0x20], eax ; pop rbx ; ret ; (2 found)
0x4757ef: mov  [rbx+0x40], esi ; pop rbx ; ret ; (1 found)
0x420ace: mov  [rbx+0x70], 0xFFFFFFFF ; pop rbx ; ret ; (2 found)
0x4b4bf2: mov  [rbx], 0x00000000 ; pop rbx ; ret ; (1 found)
0x491271: mov  [rbx], ecx ; pop rbx ; ret ; (1 found)
0x49f207: mov  [rcx+0x01], 0x02E8C1F8 ; vzeroupper ; ret ; (1 found)
0x4496e7: mov  [rcx+0x01], 0x77F8C5F8 ; ret ; (1 found)
0x492240: mov  [rcx+rsi-0x3A], eax ; xor r8d, r8d ; syscall ; (1 found)
0x44096b: mov  [rcx-0x02], ecx ; ret ; (1 found)
0x45e993: mov  [rcx-0x04], ebp ; jmp qword [rsi+0x0F] ; (1 found)
0x440956: mov  [rcx-0x04], ecx ; ret ; (1 found)
0x440945: mov  [rcx-0x08], ecx ; ret ; (1 found)
0x49f1c7: mov  [rcx], 0x02E8C1F8 ; vzeroupper ; ret ; (1 found)
0x42c661: mov  [rcx], 0x440F4800 ; retn 0x0FC3 ; (1 found)
0x4496c7: mov  [rcx], 0x77F8C5F8 ; ret ; (1 found)
0x46046e: mov  [rcx], eax ; or rax, 0xFFFFFFFFFFFFFFFF ; ret ; (17 found)
0x4bb81b: mov  [rcx], edx ; ret ; (1 found)
0x4bb865: mov  [rdi+0x00000098], esi ; ret ; (1 found)
0x42305f: mov  [rdi+0x000000C0], 0xFFFFFFFF ; movups  [rdi+0x000000A0], xmm0 ; ret ; (2 found)
0x463c54: mov  [rdi+0x00000460], edx ; add rsp, 0x08 ; ret ; (1 found)
0x43dad5: mov  [rdi+0x01], edx ; mov  [rdi], ecx ; ret ; (2 found)
0x43d918: mov  [rdi+0x01], edx ; mov qword [rdi], rcx ; ret ; (2 found)
0x43dbb8: mov  [rdi+0x01], edx ; mov word [rdi], cx ; ret ; (2 found)
0x43da65: mov  [rdi+0x02], edx ; mov  [rdi], ecx ; ret ; (2 found)
0x43d8a8: mov  [rdi+0x02], edx ; mov qword [rdi], rcx ; ret ; (2 found)
0x44da07: mov  [rdi+0x03], edx ; lea rax, qword [rdi+0x06] ; ret ; (1 found)
0x43d9f5: mov  [rdi+0x03], edx ; mov  [rdi], ecx ; ret ; (2 found)
0x43d838: mov  [rdi+0x03], edx ; mov qword [rdi], rcx ; ret ; (2 found)
0x44d3c7: mov  [rdi+0x03], edx ; ret ; (1 found)
0x44d9e9: mov  [rdi+0x04], edx ; lea rax, qword [rdi+0x05] ; ret ; (1 found)
0x43d7c8: mov  [rdi+0x04], edx ; mov qword [rdi], rcx ; ret ; (2 found)
0x44d3b9: mov  [rdi+0x04], edx ; ret ; (1 found)
0x44da9b: mov  [rdi+0x05], edx ; lea rax, qword [rdi+0x0C] ; ret ; (1 found)
0x43d758: mov  [rdi+0x05], edx ; mov qword [rdi], rcx ; ret ; (2 found)
0x44d42b: mov  [rdi+0x05], edx ; ret ; (1 found)
0x44dabb: mov  [rdi+0x06], edx ; lea rax, qword [rdi+0x0D] ; ret ; (1 found)
0x43d6e8: mov  [rdi+0x06], edx ; mov qword [rdi], rcx ; ret ; (2 found)
0x44d43b: mov  [rdi+0x06], edx ; ret ; (1 found)
0x44da59: mov  [rdi+0x07], edx ; lea rax, qword [rdi+0x0A] ; ret ; (1 found)
0x44dadb: mov  [rdi+0x07], edx ; lea rax, qword [rdi+0x0E] ; ret ; (1 found)
0x43d678: mov  [rdi+0x07], edx ; mov qword [rdi], rcx ; ret ; (2 found)
0x44d409: mov  [rdi+0x07], edx ; ret ; (2 found)
0x47fa28: mov  [rdi+0x08], ecx ; ret ; (1 found)
0x44da3b: mov  [rdi+0x08], edx ; lea rax, qword [rdi+0x09] ; ret ; (1 found)
0x44da79: mov  [rdi+0x08], edx ; lea rax, qword [rdi+0x0B] ; ret ; (1 found)
0x44d3fb: mov  [rdi+0x08], edx ; ret ; (2 found)
0x44db9d: mov  [rdi+0x0E], ecx ; lea rax, qword [rdi+0x15] ; ret ; (1 found)
0x44d4dd: mov  [rdi+0x0E], ecx ; ret ; (1 found)
0x44db3b: mov  [rdi+0x0F], ecx ; lea rax, qword [rdi+0x12] ; ret ; (1 found)
0x44dbbd: mov  [rdi+0x0F], ecx ; lea rax, qword [rdi+0x16] ; ret ; (1 found)
0x44d49b: mov  [rdi+0x0F], ecx ; ret ; (2 found)
0x44db1d: mov  [rdi+0x10], ecx ; lea rax, qword [rdi+0x11] ; ret ; (1 found)
0x44db5b: mov  [rdi+0x10], ecx ; lea rax, qword [rdi+0x13] ; ret ; (1 found)
0x44dbdd: mov  [rdi+0x10], ecx ; lea rax, qword [rdi+0x17] ; ret ; (1 found)
0x44d4bb: mov  [rdi+0x10], ecx ; mov byte [rdi+0x14], dh ; ret ; (1 found)
0x44d53d: mov  [rdi+0x10], ecx ; mov byte [rdi+0x18], dh ; ret ; (1 found)
0x44d47d: mov  [rdi+0x10], ecx ; ret ; (4 found)
0x44d580: mov  [rdi+0x10], edx ; mov  [rdi+0x17], ecx ; ret ; (1 found)
0x44d5a0: mov  [rdi+0x10], edx ; mov  [rdi+0x18], ecx ; ret ; (1 found)
0x44d561: mov  [rdi+0x10], edx ; mov word [rdi+0x18], cx ; ret ; (1 found)
0x44dc43: mov  [rdi+0x17], ecx ; lea rax, qword [rdi+0x1A] ; ret ; (1 found)
0x44d583: mov  [rdi+0x17], ecx ; ret ; (1 found)
0x4aecf5: mov  [rdi+0x18], eax ; mov qword [fs:0x000002F8], rdi ; ret ; (1 found)
0x44dc25: mov  [rdi+0x18], ecx ; lea rax, qword [rdi+0x19] ; ret ; (1 found)
0x44dc63: mov  [rdi+0x18], ecx ; lea rax, qword [rdi+0x1B] ; ret ; (1 found)
0x44d565: mov  [rdi+0x18], ecx ; ret ; (2 found)
0x425128: mov  [rdi+0x1C], eax ; xor eax, eax ; ret ; (1 found)
0x4221a8: mov  [rdi+0x48], eax ; movups  [rdi+0x08], xmm0 ; ret ; (1 found)
0x42216d: mov  [rdi+0x48], eax ; movups  [rdi+0x08], xmm1 ; ret ; (1 found)
0x451374: mov  [rdi+rdx+0x02], esi ; mov byte [rdi], cl ; ret ; (2 found)
0x4505c9: mov  [rdi+rdx-0x02], esi ; mov byte [rdi], cl ; ret ; (3 found)
0x455d98: mov  [rdi+rdx-0x03], ecx ; lea rax, qword [rdi+rdx] ; ret ; (1 found)
0x456b68: mov  [rdi+rdx-0x03], ecx ; ret ; (1 found)
0x449df8: mov  [rdi+rdx-0x03], ecx ; vzeroupper ; ret ; (1 found)
0x4505d5: mov  [rdi+rdx-0x04], ecx ; mov  [rdi], esi ; ret ; (6 found)
0x455dbc: mov  [rdi+rdx-0x07], ecx ; lea rax, qword [rdi+rdx] ; ret ; (1 found)
0x456b7c: mov  [rdi+rdx-0x07], ecx ; ret ; (1 found)
0x449e0c: mov  [rdi+rdx-0x07], ecx ; vzeroupper ; ret ; (1 found)
0x4505ec: mov  [rdi+rdx-0x08], ecx ; ret ; (5 found)
0x45133e: mov  [rdi+rdx], esi ; ret ; (2 found)
0x4bb821: mov  [rdi+rsi*8], edx ; ret ; (1 found)
0x437c5d: mov  [rdi-0x02], ecx ; ret ; (4 found)
0x437a75: mov  [rdi-0x02], edx ; ret ; (4 found)
0x437c59: mov  [rdi-0x03], edx ; mov word [rdi-0x02], cx ; ret ; (4 found)
0x438039: mov  [rdi-0x04], ecx ; ret ; (20 found)
0x43770f: mov  [rdi-0x04], edx ; ret ; (70 found)
0x438036: mov  [rdi-0x05], edx ; mov  [rdi-0x04], ecx ; ret ; (4 found)
0x438236: mov  [rdi-0x06], edx ; mov  [rdi-0x04], ecx ; ret ; (4 found)
0x438436: mov  [rdi-0x07], edx ; mov  [rdi-0x04], ecx ; ret ; (4 found)
0x437559: mov  [rdi-0x08], ecx ; ret ; (11 found)
0x437597: mov  [rdi-0x08], edx ; ret ; (70 found)
0x43770c: mov  [rdi-0x09], eax ; mov  [rdi-0x04], edx ; ret ; (2 found)
0x437754: mov  [rdi-0x09], ecx ; mov  [rdi-0x04], edx ; ret ; (10 found)
0x437808: mov  [rdi-0x09], ecx ; mov byte [rdi-0x01], dl ; ret ; (6 found)
0x43d1a8: mov  [rdi-0x09], edx ; mov  [rdi-0x04], ecx ; ret ; (2 found)
0x4378dc: mov  [rdi-0x0A], ecx ; mov  [rdi-0x04], edx ; ret ; (18 found)
0x43d128: mov  [rdi-0x0A], edx ; mov  [rdi-0x04], ecx ; ret ; (2 found)
0x437abc: mov  [rdi-0x0B], ecx ; mov  [rdi-0x04], edx ; ret ; (18 found)
0x43d0a8: mov  [rdi-0x0B], edx ; mov  [rdi-0x04], ecx ; ret ; (2 found)
0x437cac: mov  [rdi-0x0C], ecx ; mov  [rdi-0x04], edx ; ret ; (18 found)
0x43d028: mov  [rdi-0x0C], edx ; mov  [rdi-0x04], ecx ; ret ; (2 found)
0x437e7d: mov  [rdi-0x0D], ecx ; mov qword [rdi-0x08], rdx ; ret ; (18 found)
0x43cf99: mov  [rdi-0x0D], edx ; mov qword [rdi-0x08], rcx ; ret ; (2 found)
0x43807d: mov  [rdi-0x0E], ecx ; mov qword [rdi-0x08], rdx ; ret ; (18 found)
0x43cf09: mov  [rdi-0x0E], edx ; mov qword [rdi-0x08], rcx ; ret ; (2 found)
0x43827d: mov  [rdi-0x0F], ecx ; mov qword [rdi-0x08], rdx ; ret ; (18 found)
0x43ce79: mov  [rdi-0x0F], edx ; mov qword [rdi-0x08], rcx ; ret ; (2 found)
0x437555: mov  [rdi-0x10], ebx ; mov qword [rdi-0x08], rcx ; ret ; (4 found)
0x437593: mov  [rdi-0x10], ebx ; mov qword [rdi-0x08], rdx ; ret ; (12 found)
0x47f98f: mov  [rdi-0x10], ecx ; ret ; (1 found)
0x4ae771: mov  [rdi], 0x00000000 ; mov eax, 0x00000001 ; ret ; (1 found)
0x4ae8cd: mov  [rdi], 0x00000000 ; mov eax, 0x00000002 ; ret ; (1 found)
0x4ae7a8: mov  [rdi], eax ; mov eax, 0x00000001 ; ret ; (1 found)
0x4ae932: mov  [rdi], eax ; mov eax, 0x00000002 ; ret ; (2 found)
0x44d9d5: mov  [rdi], ecx ; lea rax, qword [rdi+0x04] ; ret ; (1 found)
0x44da27: mov  [rdi], ecx ; lea rax, qword [rdi+0x08] ; ret ; (1 found)
0x44d3c5: mov  [rdi], ecx ; mov  [rdi+0x03], edx ; ret ; (1 found)
0x44d407: mov  [rdi], ecx ; mov  [rdi+0x07], edx ; ret ; (1 found)
0x44d417: mov  [rdi], ecx ; mov  [rdi+0x08], edx ; ret ; (1 found)
0x45133c: mov  [rdi], ecx ; mov  [rdi+rdx], esi ; ret ; (2 found)
0x4502ab: mov  [rdi], ecx ; mov  [rsi-0x04], ecx ; ret ; (1 found)
0x456b44: mov  [rdi], ecx ; mov byte [rdi+0x02], 0x00 ; ret ; (1 found)
0x44d384: mov  [rdi], ecx ; mov byte [rdi+0x02], dh ; ret ; (1 found)
0x44d428: mov  [rdi], ecx ; mov qword [rdi+0x05], rdx ; ret ; (1 found)
0x44d438: mov  [rdi], ecx ; mov qword [rdi+0x06], rdx ; ret ; (1 found)
0x44d448: mov  [rdi], ecx ; mov qword [rdi+0x07], rdx ; ret ; (1 found)
0x456b79: mov  [rdi], ecx ; mov qword [rdi+rdx-0x07], r9 ; ret ; (1 found)
0x44d3b6: mov  [rdi], ecx ; mov word [rdi+0x04], dx ; ret ; (1 found)
0x44d3f8: mov  [rdi], ecx ; mov word [rdi+0x08], dx ; ret ; (1 found)
0x4502b7: mov  [rdi], ecx ; mov word [rsi-0x02], cx ; ret ; (1 found)
0x43d67c: mov  [rdi], ecx ; ret ; (26 found)
0x44d9a4: mov  [rdi], edx ; lea rax, qword [rdi+0x01] ; ret ; (2 found)
0x44d9c2: mov  [rdi], edx ; lea rax, qword [rdi+0x03] ; ret ; (2 found)
0x44da14: mov  [rdi], edx ; lea rax, qword [rdi+0x07] ; ret ; (1 found)
0x43d984: mov  [rdi], edx ; ret ; (11 found)
0x449dc4: mov  [rdi], edx ; vzeroupper ; ret ; (2 found)
0x440953: mov  [rdi], esi ; mov  [r9-0x04], ecx ; ret ; (1 found)
0x440942: mov  [rdi], esi ; mov qword [r9-0x08], rcx ; ret ; (1 found)
0x4505e9: mov  [rdi], esi ; mov qword [rdi+rdx-0x08], rcx ; ret ; (5 found)
0x440967: mov  [rdi], esi ; mov word [r9-0x02], cx ; ret ; (1 found)
0x4505da: mov  [rdi], esi ; ret ; (3 found)
0x41f03d: mov  [rdx+0x000000E0], ecx ; pop rbx ; ret ; (1 found)
0x41c20b: mov  [rdx+0x000000E0], ecx ; ret ; (1 found)
0x44cf17: mov  [rdx+0x03], eax ; lea rax, qword [rdx+0x06] ; ret ; (1 found)
0x44b747: mov  [rdx+0x03], eax ; mov rax, rdi ; ret ; (1 found)
0x44cef9: mov  [rdx+0x04], eax ; lea rax, qword [rdx+0x05] ; ret ; (1 found)
0x44b739: mov  [rdx+0x04], eax ; mov rax, rdi ; ret ; (1 found)
0x44cf29: mov  [rdx+0x05], eax ; lea rax, qword [rdx+0x08] ; ret ; (1 found)
0x44cfab: mov  [rdx+0x05], eax ; lea rax, qword [rdx+0x0C] ; ret ; (1 found)
0x44b759: mov  [rdx+0x05], eax ; mov rax, rdi ; ret ; (2 found)
0x44cf49: mov  [rdx+0x06], eax ; lea rax, qword [rdx+0x09] ; ret ; (1 found)
0x44cfcb: mov  [rdx+0x06], eax ; lea rax, qword [rdx+0x0D] ; ret ; (1 found)
0x44b769: mov  [rdx+0x06], eax ; mov rax, rdi ; ret ; (2 found)
0x44cf69: mov  [rdx+0x07], eax ; lea rax, qword [rdx+0x0A] ; ret ; (1 found)
0x44cfeb: mov  [rdx+0x07], eax ; lea rax, qword [rdx+0x0E] ; ret ; (1 found)
0x44b779: mov  [rdx+0x07], eax ; mov rax, rdi ; ret ; (2 found)
0x44cf89: mov  [rdx+0x08], eax ; lea rax, qword [rdx+0x0B] ; ret ; (1 found)
0x44ce7b: mov  [rdx+0x08], eax ; lea rax, qword [rdx+0x0F] ; ret ; (1 found)
0x44b6cb: mov  [rdx+0x08], eax ; mov rax, rdi ; ret ; (2 found)
0x472d77: mov  [rdx+0x08], eax ; pop rbx ; ret ; (1 found)
0x464ebb: mov  [rdx+0x40], ecx ; mov byte [rdx+0x50], 0x01 ; ret ; (1 found)
0x4ae7fc: mov  [rdx], 0x00000000 ; mov eax, 0x00000001 ; ret ; (1 found)
0x4b1b5a: mov  [rdx], 0x41DEE800 ; cmc ; jmp qword [rsi+0x66] ; (1 found)
0x4ae862: mov  [rdx], 0xFFFFC002 ; ret ; (1 found)
0x44cea4: mov  [rdx], eax ; lea rax, qword [rdx+0x01] ; ret ; (1 found)
0x44ced2: mov  [rdx], eax ; lea rax, qword [rdx+0x03] ; ret ; (1 found)
0x44ce24: mov  [rdx], eax ; lea rax, qword [rdx+0x07] ; ret ; (1 found)
0x4ae847: mov  [rdx], eax ; mov eax, 0x00000001 ; ret ; (1 found)
0x45e902: mov  [rdx], eax ; mov eax, 0xFFFFFFFF ; ret ; (8 found)
0x45f890: mov  [rdx], eax ; mov eax, r8d ; ret ; (1 found)
0x46085a: mov  [rdx], eax ; mov rax, 0xFFFFFFFFFFFFFFFF ; ret ; (9 found)
0x44b674: mov  [rdx], eax ; mov rax, rdi ; ret ; (3 found)
0x4b45f1: mov  [rdx], eax ; pop rbx ; ret ; (1 found)
0x423cc9: mov  [rdx], eax ; ret ; (3 found)
0x4b162a: mov  [rdx], ecx ; mov qword [rax+0x10], 0x0000000000000000 ; ret ; (1 found)
0x4b9703: mov  [rdx], edx ; pop rbx ; ret ; (2 found)
0x4ae8e9: mov  [rsi+0x08], eax ; mov eax, 0x00000002 ; ret ; (1 found)
0x405a7d: mov  [rsi+0x10], esi ; syscall ; (1 found)
0x4b07f1: mov  [rsi+0x18], 0x00000000 ; ret ; (1 found)
0x4b07e9: mov  [rsi+0x18], edx ; ret ; (1 found)
0x4502ba: mov  [rsi-0x02], ecx ; ret ; (1 found)
0x4502ad: mov  [rsi-0x04], ecx ; ret ; (1 found)
0x4bb852: mov  [rsi], eax ; mov rax, qword [rdi+0x00000098] ; ret ; (1 found)
0x463dc6: mov  [rsi], eax ; ret ; (1 found)
0x4a877d: mov  [rsi], ecx ; mov rax, r8 ; ret ; (1 found)
0x4b4603: mov  [rsi], ecx ; sti ; jmp qword [rsi+0x0F] ; (1 found)
0x4aee8b: mov  [rsi], edi ; mov qword [0x00000000004F9C48], 0x0000000000000000 ; ret ; (1 found)
0x4ae78b: mov  [rsi], edx ; ret ; (1 found)
0x405a7a: mov  [rsi], esi ; mov qword [rsi+0x10], rsi ; syscall ; (1 found)
0x4a112f: mov  [rsp+0x00000088], edx ; mov qword [rsp+0x38], rdx ; call r12 ; (2 found)
0x4a0e9e: mov  [rsp+0x000000D0], eax ; call r12 ; (1 found)
0x4bc437: mov  [rsp+0x08], ecx ; call rax ; (1 found)
0x41d227: mov  [rsp+0x08], ecx ; mov rdi, r15 ; call rax ; (1 found)
0x41f850: mov  [rsp+0x08], ecx ; mov rdi, rbp ; call rax ; (1 found)
0x4bdd3b: mov  [rsp+0x10], ecx ; mov rsi, qword [rbx+rcx*8+0x10] ; call rbp ; (1 found)
0x4a1137: mov  [rsp+0x38], edx ; call r12 ; (2 found)
0x48d072: mov  [rsp+0x50], 0x00000020 ; jmp rdx ; (1 found)
0x48d06a: mov  [rsp+0x54], 0x00000000 ; mov  [rsp+0x50], 0x00000020 ; jmp rdx ; (1 found)
0x418afc: mov  [rsp+0x58], 0x00000000 ; mov byte [rsp+0x40], 0x20 ; jmp rdx ; (1 found)
0x4841cb: mov  [rsp-0x10], eax ; movdqa xmm0,  [rsp-0x18] ; ret ; (1 found)
0x48106c: mov  [rsp-0x10], esi ; fld tword [rsp-0x18] ; ret ; (1 found)
0x42a61f: mov ah, 0xFF ; jmp qword [rsi+0x0F] ; (1 found)
0x4bb8c7: mov al, 0x00 ; add byte [rax], al ; ret ; (1 found)
0x4af31e: mov al, 0x04 ; add byte [rax-0x77], cl ; retn 0x0D8B ; (2 found)
0x45fa0c: mov al, 0x51 ; cld ; jmp qword [rsi+0x0F] ; (1 found)
0x493e21: mov al, 0xF8 ; jmp qword [rsi+0x2E] ; (1 found)
0x46ac9b: mov al, 0xF9 ; jmp qword [rsi-0x70] ; (1 found)
0x4aa41f: mov al, 0xFB ; jmp qword [rsi+0x66] ; (1 found)
0x45f06e: mov al, 0xFC ; jmp qword [rsi+0x0F] ; (2 found)
0x42aad4: mov al, 0xFF ; jmp qword [rsi+0x0F] ; (1 found)
0x4688d3: mov al, 0xFF ; jmp qword [rsi+0x2E] ; (1 found)
0x4174e9: mov al, bl ; add eax, 0xC7480000 ; ret ; (1 found)
0x41c206: mov al, byte [0x00E08A8948000000] ; add byte [rax], al ; ret ; (1 found)
0x460467: mov al, byte [0x018964D8F7FFFFFF] ; or rax, 0xFFFFFFFFFFFFFFFF ; ret ; (17 found)
0x45e8fb: mov al, byte [0x028964D8F7FFFFFF] ; mov eax, 0xFFFFFFFF ; ret ; (8 found)
0x460853: mov al, byte [0x028964D8F7FFFFFF] ; mov rax, 0xFFFFFFFFFFFFFFFF ; ret ; (9 found)
0x42bbfc: mov al, byte [0x488204634800099A] ; add eax, edx ; jmp rax ; (1 found)
0x423273: mov al, byte [0x48FFFFFFFF000000] ; mov  [rax+0x000000A8], 0x00000000 ; ret ; (1 found)
0x4a15c9: mov al, byte [0x5D5BE0894C000000] ; pop r12 ; ret ; (2 found)
0x4206d7: mov al, byte [0x5D5BEF8948000000] ; pop r12 ; jmp rax ; (1 found)
0x48d768: mov al, byte [0x840FC08548000000] ; retn 0x0012 ; (1 found)
0x43bb57: mov al, byte [0x8D49931463490008] ; adc al, 0x13 ; jmp rdx ; (2 found)
0x413558: mov al, byte [0xFFFA00858BFFFFFF] ; jmp qword [rcx+rax*2-0x77] ; (4 found)
0x4152a8: mov al, byte [0xFFFD37E901FFFFF9] ; dec  [rcx-0x39] ; retn 0xFFA0 ; (1 found)
0x4551e6: mov al, byte [0xFFFE56870FC0F983] ; jmp qword [rdx-0x1F] ; (1 found)
0x406d75: mov al, byte [0xFFFF3C8D8BFFFFFF] ; jmp qword [rcx+rcx*4+0x08] ; (3 found)
0x4a351b: mov al, byte [0xFFFFFFB841FFFFFF] ; jmp qword [rdi+rax*8+0x00] ; (1 found)
0x418d33: mov al, byte [0xFFFFFFBC41FFFFFF] ; jmp qword [rdi+rax*8+0x00] ; (9 found)
0x4867c3: mov al, byte [0xFFFFFFBD41FFFFFF] ; jmp qword [rdi+rax*8+0x00] ; (3 found)
0x45ab37: mov bh, 0x15 ; ret ; (1 found)
0x43dc21: mov bh, 0x16 ; mov word [rdi], dx ; ret ; (3 found)
0x465901: mov bh, 0x42 ; or byte [rax-0x7D], cl ; retn 0x4110 ; (1 found)
0x4032a7: mov bh, 0x48 ; add eax, edi ; jmp rax ; (1 found)
0x48f4d9: mov bh, 0x48 ; add esi, edi ; jmp rsi ; (1 found)
0x44e168: mov bh, 0x48 ; lea eax,  [rdi+0x07] ; ret ; (1 found)
0x459a8c: mov bh, 0x59 ; adc byte [rcx+0x29], al ; ret ; (1 found)
0x493722: mov bh, 0xF8 ; jmp qword [rsi+0x66] ; (1 found)
0x42a3de: mov bh, 0xFF ; jmp qword [rsi+0x66] ; (2 found)
0x415753: mov bh, bh ; jmp qword [rsi+0x2E] ; (1 found)
0x46861e: mov bh, cl ; jmp qword [rsi+0x49] ; (2 found)
0x403421: mov bl, 0x0E ; add byte [rax+0x29], cl ; ret ; (1 found)
0x4578ff: mov bl, 0x45 ; and byte [rdi], bh ; retn 0xC500 ; (2 found)
0x4a042c: mov bl, 0x45 ; and byte [rdi], bl ; retn 0xC500 ; (1 found)
0x455f4e: mov bl, 0x75 ; and byte [rdi], bh ; retn 0x6200 ; (4 found)
0x49fbfe: mov bl, 0x75 ; and byte [rdi], bl ; retn 0x6200 ; (2 found)
0x455a87: mov bl, 0x7D ; and byte [rdi], bh ; ret ; (8 found)
0x456ced: mov bl, 0x7D ; and byte [rdi], bh ; retn 0x6200 ; (2 found)
0x455a61: mov bl, 0x7D ; and byte [rdi], bh ; retn 0xC500 ; (8 found)
0x459721: mov bl, 0x7D ; and byte [rdi], bl ; ret ; (2 found)
0x459683: mov bl, 0x7D ; and byte [rdi], bl ; retn 0x6200 ; (2 found)
0x4bed72: mov bl, 0xF6 ; jmp qword [rsi+0x2E] ; (1 found)
0x4014ff: mov bl, byte [0xFFFFFFFFEEC31506] ; add cl, byte [rax-0x7D] ; retn 0x4810 ; (1 found)
0x401b3a: mov byte [0x00000000004F44A0], 0x01 ; pop rbp ; ret ; (1 found)
0x46715d: mov byte [0x00000000004F9EE0], al ; pop rbx ; ret ; (2 found)
0x46718e: mov byte [0x00000000004F9EE0], al ; ret ; (2 found)
0x4b94bd: mov byte [0x00000000004FA3AF], 0x08 ; mov byte [0x00000000004FA3B0], 0x08 ; ret ; (1 found)
0x4b94c4: mov byte [0x00000000004FA3B0], 0x08 ; ret ; (1 found)
0x424b72: mov byte [0x00000972], 0x00 ; mov qword [fs:0x000002F8], rdi ; ret ; (1 found)
0x4057aa: mov byte [0x0098C48148000000], al ; add byte [rax], al ; ret ; (1 found)
0x4aa356: mov byte [0x08C48348C031FFFB], al ; ret ; (1 found)
0x4907ba: mov byte [0x314BE8C8EBFFF8E6], al ; std ; jmp qword [rsi+0x2E] ; (1 found)
0x43b9d7: mov byte [0x8D49931463490008], al ; adc al, 0x13 ; jmp rdx ; (2 found)
0x446856: mov byte [0xFFFFFFFF838C685D], 0xC2 ; adc byte [rcx-0x7D], cl ; retn 0x7F10 ; (1 found)
0x47077d: mov byte [0xFFFFFFFF8D900783], al ; add r9L, byte [r8+0x39] ; ret ; (1 found)
0x424b71: mov byte [fs:0x00000972], 0x00 ; mov qword [fs:0x000002F8], rdi ; ret ; (1 found)
0x4064b9: mov byte [r8-0x73], r9L ; sbb byte [rax-0x77], cl ; retn 0x8948 ; (1 found)
0x4920d2: mov byte [rax+0x00000972], 0x00 ; ret ; (1 found)
0x46497b: mov byte [rax+0x50], 0x01 ; mov qword [rax+0x48], rdx ; ret ; (2 found)
0x464968: mov byte [rax+0x50], 0x01 ; ret ; (2 found)
0x451c74: mov byte [rax+rdx-0x01], bh ; ret ; (3 found)
0x451e34: mov byte [rax+rdx-0x01], bh ; vzeroupper ; ret ; (1 found)
0x451c73: mov byte [rax+rdx-0x01], dil ; ret ; (3 found)
0x451e33: mov byte [rax+rdx-0x01], dil ; vzeroupper ; ret ; (1 found)
0x4064ba: mov byte [rax-0x73], cl ; sbb byte [rax-0x77], cl ; retn 0x8948 ; (1 found)
0x469443: mov byte [rax-0x7D], cl ; ret ; (1 found)
0x451c57: mov byte [rax], dh ; ret ; (3 found)
0x451dfc: mov byte [rax], dh ; vzeroupper ; ret ; (1 found)
0x451c56: mov byte [rax], sil ; ret ; (3 found)
0x451dfb: mov byte [rax], sil ; vzeroupper ; ret ; (1 found)
0x492243: mov byte [rbp+0x31], 0xC0 ; syscall ; (1 found)
0x4175cb: mov byte [rbp-0x000008E8], al ; call rax ; (1 found)
0x4175ca: mov byte [rbp-0x000008E8], r8L ; call rax ; (1 found)
0x4175c4: mov byte [rbp-0x000008EC], cl ; mov byte [rbp-0x000008E8], r8L ; call rax ; (1 found)
0x4175c3: mov byte [rbp-0x000008EC], r9L ; mov byte [rbp-0x000008E8], r8L ; call rax ; (1 found)
0x48b89f: mov byte [rbp-0x000008F8], cl ; call rax ; (1 found)
0x48b89e: mov byte [rbp-0x000008F8], r9L ; call rax ; (1 found)
0x48b898: mov byte [rbp-0x00000910], al ; mov byte [rbp-0x000008F8], r9L ; call rax ; (1 found)
0x48b897: mov byte [rbp-0x00000910], r8L ; mov byte [rbp-0x000008F8], r9L ; call rax ; (1 found)
0x47d67b: mov byte [rcx+0x0F], 0x95 ; ret ; (1 found)
0x409706: mov byte [rcx], 0x88 ; dec qword [rax-0x7D] ; retn 0x4901 ; (1 found)
0x455d76: mov byte [rdi+0x02], 0x00 ; lea rax, qword [rdi+0x02] ; ret ; (1 found)
0x456b46: mov byte [rdi+0x02], 0x00 ; ret ; (1 found)
0x449dd6: mov byte [rdi+0x02], 0x00 ; vzeroupper ; ret ; (1 found)
0x44d9b6: mov byte [rdi+0x02], dh ; lea rax, qword [rdi+0x02] ; ret ; (1 found)
0x44d386: mov byte [rdi+0x02], dh ; ret ; (1 found)
0x44d3a2: mov byte [rdi+0x04], dh ; mov  [rdi], ecx ; ret ; (1 found)
0x44d3e3: mov byte [rdi+0x08], dh ; mov qword [rdi], rcx ; ret ; (1 found)
0x44db08: mov byte [rdi+0x10], dh ; lea rax, qword [rdi+0x10] ; ret ; (1 found)
0x44d468: mov byte [rdi+0x10], dh ; ret ; (1 found)
0x44db7e: mov byte [rdi+0x14], dh ; lea rax, qword [rdi+0x14] ; ret ; (1 found)
0x44d4be: mov byte [rdi+0x14], dh ; ret ; (1 found)
0x44dc00: mov byte [rdi+0x18], dh ; lea rax, qword [rdi+0x18] ; ret ; (1 found)
0x44d540: mov byte [rdi+0x18], dh ; ret ; (1 found)
0x43780b: mov byte [rdi-0x01], dl ; ret ; (10 found)
0x455ce1: mov byte [rdi], 0x00 ; lea rax, qword [rdi] ; ret ; (1 found)
0x456ab1: mov byte [rdi], 0x00 ; ret ; (1 found)
0x449d41: mov byte [rdi], 0x00 ; vzeroupper ; ret ; (1 found)
0x440976: mov byte [rdi], cl ; ret ; (7 found)
0x44d990: mov byte [rdi], dh ; lea rax, qword [rdi] ; ret ; (1 found)
0x44d360: mov byte [rdi], dh ; ret ; (1 found)
0x43dc93: mov byte [rdi], dl ; ret ; (2 found)
0x425896: mov byte [rdx+0x00000971], bh ; xor eax, eax ; ret ; (1 found)
0x425895: mov byte [rdx+0x00000971], dil ; xor eax, eax ; ret ; (1 found)
0x44ceb9: mov byte [rdx+0x02], al ; lea rax, qword [rdx+0x02] ; ret ; (1 found)
0x44b709: mov byte [rdx+0x02], al ; mov rax, rdi ; ret ; (1 found)
0x44cee7: mov byte [rdx+0x04], al ; lea rax, qword [rdx+0x04] ; ret ; (1 found)
0x44b727: mov byte [rdx+0x04], al ; mov rax, rdi ; ret ; (1 found)
0x464ebc: mov byte [rdx+0x50], 0x01 ; ret ; (3 found)
0x44f59b: mov byte [rdx+rdx*8+0x00AC840F], 0x00 ; add dh, dh ; retn 0x7501 ; (1 found)
0x44ce92: mov byte [rdx], al ; lea rax, qword [rdx] ; ret ; (1 found)
0x44b6e2: mov byte [rdx], al ; mov rax, rdi ; ret ; (1 found)
0x418b04: mov byte [rsp+0x40], 0x20 ; jmp rdx ; (1 found)
0x48ca72: mov ch, 0x58 ; idiv edi ; jmp qword [rsi-0x77] ; (1 found)
0x468ea7: mov ch, 0x82 ; stc ; jmp qword [rsi+0x0F] ; (1 found)
0x4928d5: mov cl, 0x4D ; add byte [rsi+rdi-0x77], dh ; retn 0x48E9 ; (1 found)
0x467b8b: mov cl, 0x95 ; stc ; call qword [rax-0x05E1F00D] ; (1 found)
0x489ad2: mov cl, 0xF9 ; jmp qword [rsi+0x2E] ; (1 found)
0x4166d2: mov cl, byte [rax+0x01] ; sar  [rsi], 1 ; jmp rcx ; (2 found)
0x475543: mov cl, byte [rax+0x39] ; ror byte [rax+0x0F], 1 ; retn 0x8B41 ; (1 found)
0x4bfdf8: mov cl, byte [rax-0x77] ; retn 0xC148 ; (1 found)
0x443165: mov cl, byte [rbx-0x37D67DFC] ; ret ; (16 found)
0x42d5a4: mov cl, byte [rdi-0x73] ; adc al, 0x0A ; jmp r10 ; (8 found)
0x440974: mov cl, byte [rsi] ; mov byte [rdi], cl ; ret ; (1 found)
0x44770e: mov cs, word [0xFFFFFFFF838C7714] ; retn 0xE910 ; (1 found)
0x4b9ace: mov cs, word [rcx+rax-0x10] ; jmp rax ; (1 found)
0x424154: mov dh, 0x00 ; ret ; (1 found)
0x42e954: mov dh, 0x07 ; sub eax, ecx ; ret ; (8 found)
0x435419: mov dh, 0x0E ; sub eax, ecx ; ret ; (1 found)
0x43dc91: mov dh, 0x16 ; mov byte [rdi], dl ; ret ; (2 found)
0x434bf5: mov dh, 0x16 ; sub eax, edx ; ret ; (1 found)
0x484086: mov dh, 0x1C ; clc ; jmp qword [rsi+0x0F] ; (1 found)
0x41b57c: mov dh, 0x40 ; add eax,  [rbp-0x77] ; retn 0x8341 ; (1 found)
0x40b717: mov dh, 0x40 ; or  [rax+rax*8-0x38B78D8C], eax ; retn 0xFFF0 ; (1 found)
0x408c41: mov dh, 0x42 ; add  [rax-0x7D], ecx ; retn 0x8401 ; (5 found)
0x4098b9: mov dh, 0x42 ; add  [rax-0x7D], ecx ; retn 0xA801 ; (1 found)
0x40b731: mov dh, 0x43 ; add  [rax-0x7D], ecx ; ret ; (1 found)
0x4169d3: mov dh, 0x47 ; or al, 0x83 ; ret ; (1 found)
0x419a5a: mov dh, 0x4A ; add cl, byte [rax-0x7D] ; retn 0x8302 ; (1 found)
0x471086: mov dh, 0x4C ; stc ; jmp qword [rsi+0x0F] ; (1 found)
0x484cd7: mov dh, 0x50 ; or al, 0xF6 ; retn 0x7540 ; (1 found)
0x4bc75b: mov dh, 0x53 ; add  [rax-0x7D], ecx ; ret ; (1 found)
0x44f5e5: mov dh, 0x56 ; lock sub eax, edx ; ret ; (1 found)
0x44f605: mov dh, 0x56 ; sub eax, edx ; ret ; (2 found)
0x41a60c: mov dh, 0x72 ; add  [rax-0x7D], ecx ; retn 0x8901 ; (2 found)
0x4afbc3: mov dh, 0x75 ; ret ; (1 found)
0x40ca4a: mov dh, 0x7B ; add  [rax-0x7D], ecx ; ret ; (2 found)
0x4a1b26: mov dh, 0xC0 ; add rsp, 0x58 ; ret ; (1 found)
0x434c1b: mov dh, 0xD2 ; sub eax, edx ; ret ; (1 found)
0x49e16c: mov dh, 0xF3 ; call rbp ; (1 found)
0x425b61: mov dh, 0xFD ; jmp qword [rsi+0x66] ; (1 found)
0x405d31: mov dh, byte [rsi+0x0D] ; add byte [rax-0x77], cl ; ret ; (1 found)
0x42d4f1: mov dl, 0x01 ; add byte [rax+0x0F], cl ; retn 0x0FC3 ; (1 found)
0x454c8b: mov dl, 0x65 ; and byte [rsi], ah ; ret ; (1 found)
0x454c7d: mov dl, 0x6D ; and byte [rsi], ah ; retn 0xFBC5 ; (1 found)
0x4bee4b: mov dl, 0xF6 ; jmp qword [rsi+0x0F] ; (1 found)
0x458b0d: mov dl, 0xF7 ; retn 0xFFFB ; (1 found)
0x42a8eb: mov dl, 0xFF ; jmp qword [rsi-0x70] ; (1 found)
0x437890: mov dl, byte [rsi-0x01] ; mov byte [rdi-0x01], dl ; ret ; (2 found)
0x4b8ba8: mov ds, word [0x8D41FFFF+rdi*8] ; ret ; (1 found)
0x479159: mov ds, word [0xFFFFFFFF8347916B] ; retn 0x4418 ; (1 found)
0x4b03ae: mov ds, word [rcx-0x0B] ; jmp qword [rsi+0x0F] ; (1 found)
0x437a70: mov dx, word [rsi-0x02] ; mov word [rdi-0x02], dx ; ret ; (2 found)
0x44d370: mov dx, word [rsi] ; mov word [rdi], dx ; ret ; (1 found)
0x402324: mov eax,  [0x00000000004F2200] ; leave ; ret ; (1 found)
0x424035: mov eax,  [0x00000000004F2260] ; ret ; (1 found)
0x463dbf: mov eax,  [0x00000000004F4538] ; mov qword [rsi], rax ; ret ; (1 found)
0x463d4e: mov eax,  [0x00000000004F4568] ; mov rax, r8 ; ret ; (1 found)
0x4af534: mov eax,  [0x00000000004F9C20] ; ret ; (1 found)
0x49de11: mov eax,  [0x00000000004F9E80] ; ret ; (1 found)
0x49de21: mov eax,  [0x00000000004F9E88] ; ret ; (1 found)
0x49de31: mov eax,  [0x00000000004F9E90] ; ret ; (1 found)
0x49de41: mov eax,  [0x00000000004F9E98] ; ret ; (1 found)
0x49de51: mov eax,  [0x00000000004F9EA0] ; ret ; (1 found)
0x49de61: mov eax,  [0x00000000004F9EA8] ; ret ; (1 found)
0x49de71: mov eax,  [0x00000000004F9EB0] ; ret ; (1 found)
0x49de81: mov eax,  [0x00000000004F9EB8] ; ret ; (1 found)
0x49de91: mov eax,  [0x00000000004F9EC0] ; ret ; (1 found)
0x49dea1: mov eax,  [0x00000000004F9EC8] ; ret ; (1 found)
0x49deb1: mov eax,  [0x00000000004F9ED0] ; ret ; (1 found)
0x49de09: mov eax,  [0x00000000004F9ED8] ; ret ; (1 found)
0x4688e5: mov eax,  [0x00000000004F9F60] ; ret ; (1 found)
0x4688f5: mov eax,  [0x00000000004F9F68] ; ret ; (1 found)
0x472535: mov eax,  [0x00000000004F9FA8] ; ret ; (1 found)
0x4920cb: mov eax,  [0x00000010] ; mov byte [rax+0x00000972], 0x00 ; ret ; (1 found)
0x425866: mov eax,  [0x00000010] ; ret ; (1 found)
0x424c75: mov eax,  [0x000000841F0FFFFF] ; add byte [rax], al ; ret ; (1 found)
0x405e5f: mov eax,  [0x4891046348000BBA] ; add eax, ecx ; jmp rax ; (1 found)
0x4300d5: mov eax,  [0xDAFDC520124C7465] ; retn 0xF5C5 ; (4 found)
0x4a1d28: mov eax,  [0xE90874C739480003] ; imul eax,  [rbx+0x1F0FFFF8], 0x00 ; ret ; (1 found)
0x4b0788: mov eax,  [fs:rax] ; add rsp, 0x08 ; ret ; (1 found)
0x4a1d27: mov eax,  [gs:0xE90874C739480003] ; imul eax,  [rbx+0x1F0FFFF8], 0x00 ; ret ; (1 found)
0x4910f5: mov eax,  [rax+0x000000E0] ; call qword [rax+0x68] ; (1 found)
0x49122a: mov eax,  [rax+0x000000E0] ; mov esi, 0xFFFFFFFF ; call qword [rax+0x18] ; (1 found)
0x41d8de: mov eax,  [rax+0x000000E0] ; mov rax, qword [rax+0x20] ; jmp rax ; (1 found)
0x4ad9d5: mov eax,  [rax+0x08] ; ret ; (1 found)
0x4ad9e5: mov eax,  [rax+0x08] ; sub rax, qword [fs:0x00000000] ; ret ; (1 found)
0x41d8e5: mov eax,  [rax+0x20] ; jmp rax ; (1 found)
0x475683: mov eax,  [rax+rdi*8+0x00000080] ; ret ; (1 found)
0x41ad59: mov eax,  [rax+rdi*8] ; ret ; (1 found)
0x4b0789: mov eax,  [rax] ; add rsp, 0x08 ; ret ; (1 found)
0x475680: mov eax,  [rax] ; mov rax, qword [rax+rdi*8+0x00000080] ; ret ; (1 found)
0x4bb7c9: mov eax,  [rax] ; ret ; (1 found)
0x401c3b: mov eax,  [rbp-0x38] ; leave ; ret ; (1 found)
0x461faf: mov eax,  [rbp-0x58] ; mov r15d, r13d ; call rax ; (1 found)
0x468279: mov eax,  [rbp-0x68] ; mov rdi, r12 ; call rax ; (1 found)
0x4aa822: mov eax,  [rbx+0x10] ; add rax, qword [r12+0x00] ; call rax ; (1 found)
0x446e42: mov eax,  [rcx+rax*4] ; sub eax, edx ; ret ; (4 found)
0x4a8682: mov eax,  [rcx] ; ret ; (1 found)
0x4bb7d5: mov eax,  [rdi+0x00000090] ; ret ; (1 found)
0x4bb835: mov eax,  [rdi+0x00000098] ; ret ; (2 found)
0x4bb875: mov eax,  [rdi+0x000000A0] ; ret ; (1 found)
0x4bb8d5: mov eax,  [rdi+0x000000A8] ; ret ; (1 found)
0x4bb8c5: mov eax,  [rdi+0x000000B0] ; ret ; (1 found)
0x4bb885: mov eax,  [rdi+0x000000B8] ; ret ; (1 found)
0x423cd4: mov eax,  [rdi+0x10] ; sub eax,  [rsi+0x10] ; ret ; (1 found)
0x423cfc: mov eax,  [rdi+0x10] ; sub eax, edx ; ret ; (2 found)
0x424055: mov eax,  [rdi+0x68] ; ret ; (1 found)
0x4920e5: mov eax,  [rdi] ; mov  [0x00000000004F3BD0], eax ; ret ; (1 found)
0x4920f5: mov eax,  [rdi] ; mov  [0x00000000004F3BD4], eax ; ret ; (1 found)
0x492105: mov eax,  [rdi] ; mov  [0x00000000004F3BD8], eax ; ret ; (1 found)
0x492115: mov eax,  [rdi] ; mov  [0x00000000004F3BDC], eax ; ret ; (1 found)
0x492435: mov eax,  [rdi] ; mov  [0x00000000004F3BE0], eax ; ret ; (1 found)
0x492445: mov eax,  [rdi] ; mov qword [0x00000000004F3BF0], rax ; ret ; (1 found)
0x423cc6: mov eax,  [rdi] ; mov qword [rdx], rax ; ret ; (1 found)
0x4aed2a: mov eax,  [rdi] ; mov rdi, r8 ; jmp rax ; (1 found)
0x443166: mov eax,  [rdx+rax*4] ; sub eax, ecx ; ret ; (16 found)
0x42d504: mov eax,  [rdx] ; add bh, dh ; retn 0x0000 ; (1 found)
0x4b9046: mov eax,  [rsp+0x00] ; add rsp, 0x38 ; ret ; (1 found)
0x40ba8c: mov eax,  [rsp+0x00] ; call rax ; (1 found)
0x4bc434: mov eax,  [rsp+0x00] ; mov  [rsp+0x08], ecx ; call rax ; (1 found)
0x460842: mov eax,  [rsp+0x08] ; add rsp, 0x28 ; ret ; (3 found)
0x4034b4: mov eax,  [rsp+0x08] ; call rax ; (1 found)
0x460a9f: mov eax,  [rsp+0x0C] ; add rsp, 0x18 ; ret ; (1 found)
0x4634f3: mov eax,  [rsp+0x0C] ; add rsp, 0x28 ; ret ; (1 found)
0x4708d7: mov eax,  [rsp+0x10] ; call rax ; (1 found)
0x4655ca: mov eax,  [rsp+0x10] ; mov rdi, qword [rsp+0x18] ; call rax ; (1 found)
0x461b04: mov eax,  [rsp+0x10] ; mov rdi, rbp ; call rax ; (1 found)
0x46a7a2: mov eax,  [rsp+0x18] ; call rax ; (4 found)
0x46a1e2: mov eax,  [rsp+0x28] ; call rax ; (3 found)
0x4ae85d: mov eax, 0x00000001 ; mov  [rdx], 0xFFFFC002 ; ret ; (1 found)
0x4ae785: mov eax, 0x00000001 ; mov qword [rsi], rdx ; ret ; (1 found)
0x422fbc: mov eax, 0x00000001 ; pop rbx ; ret ; (2 found)
0x492f13: mov eax, 0x00000001 ; ret ; (10 found)
0x460890: mov eax, 0x00000001 ; syscall ; (3 found)
0x49ef81: mov eax, 0x00000002 ; ret ; (5 found)
0x49ef91: mov eax, 0x00000003 ; ret ; (1 found)
0x460a60: mov eax, 0x00000003 ; syscall ; (3 found)
0x49efa1: mov eax, 0x00000004 ; ret ; (1 found)
0x49efb1: mov eax, 0x00000005 ; ret ; (1 found)
0x49efc1: mov eax, 0x00000006 ; ret ; (1 found)
0x49efd1: mov eax, 0x00000007 ; ret ; (1 found)
0x460924: mov eax, 0x00000008 ; syscall ; (1 found)
0x4616c0: mov eax, 0x00000009 ; syscall ; (1 found)
0x461744: mov eax, 0x0000000A ; syscall ; (1 found)
0x461714: mov eax, 0x0000000B ; syscall ; (1 found)
0x461554: mov eax, 0x0000000C ; syscall ; (1 found)
0x4759ac: mov eax, 0x0000000D ; syscall ; (1 found)
0x424e70: mov eax, 0x0000000E ; syscall ; (4 found)
0x4758e1: mov eax, 0x0000000F ; syscall ; (2 found)
0x4a1c43: mov eax, 0x00000010 ; syscall ; (1 found)
0x4a1be7: mov eax, 0x00000011 ; syscall ; (1 found)
0x4a8e1d: mov eax, 0x00000014 ; syscall ; (1 found)
0x4651de: mov eax, 0x00000015 ; syscall ; (1 found)
0x42c0c4: mov eax, 0x00000016 ; ret ; (5 found)
0x460454: mov eax, 0x00000018 ; syscall ; (1 found)
0x462ff8: mov eax, 0x00000019 ; syscall ; (1 found)
0x461774: mov eax, 0x0000001C ; syscall ; (1 found)
0x460ae4: mov eax, 0x00000020 ; syscall ; (1 found)
0x4b4c34: mov eax, 0x00000026 ; syscall ; (1 found)
0x45fd24: mov eax, 0x00000027 ; syscall ; ret ; (1 found)
0x45fd24: mov eax, 0x00000027 ; syscall ; (1 found)
0x461267: mov eax, 0x00000028 ; syscall ; (1 found)
0x4635d4: mov eax, 0x00000029 ; syscall ; (1 found)
0x4634a0: mov eax, 0x0000002B ; syscall ; (2 found)
0x463534: mov eax, 0x00000031 ; syscall ; (1 found)
0x463564: mov eax, 0x00000032 ; syscall ; (1 found)
0x463597: mov eax, 0x00000036 ; syscall ; (1 found)
0x45f830: mov eax, 0x00000038 ; syscall ; (1 found)
0x4a1924: mov eax, 0x0000003F ; syscall ; (1 found)
0x4609c4: mov eax, 0x00000048 ; syscall ; (6 found)
0x460bce: mov eax, 0x0000004F ; syscall ; (1 found)
0x460b14: mov eax, 0x00000050 ; syscall ; (1 found)
0x463074: mov eax, 0x00000063 ; syscall ; (1 found)
0x4a1954: mov eax, 0x00000066 ; syscall ; ret ; (1 found)
0x4a1954: mov eax, 0x00000066 ; syscall ; (1 found)
0x4a1974: mov eax, 0x00000068 ; syscall ; ret ; (1 found)
0x4a1974: mov eax, 0x00000068 ; syscall ; (1 found)
0x4a1964: mov eax, 0x0000006B ; syscall ; ret ; (1 found)
0x4a1964: mov eax, 0x0000006B ; syscall ; (1 found)
0x4a1984: mov eax, 0x0000006C ; syscall ; ret ; (1 found)
0x4a1984: mov eax, 0x0000006C ; syscall ; (1 found)
0x492296: mov eax, 0x0000006E ; ret ; (1 found)
0x4932a3: mov eax, 0x00000083 ; ret ; (1 found)
0x4a1994: mov eax, 0x0000008F ; syscall ; (1 found)
0x4a19c4: mov eax, 0x00000090 ; syscall ; (1 found)
0x4a19f4: mov eax, 0x00000091 ; syscall ; (1 found)
0x4a1a24: mov eax, 0x00000092 ; syscall ; (1 found)
0x4a1a54: mov eax, 0x00000093 ; syscall ; (1 found)
0x4048f9: mov eax, 0x0000009E ; syscall ; (4 found)
0x424f20: mov eax, 0x000000BA ; syscall ; (2 found)
0x424ca1: mov eax, 0x000000CA ; syscall ; ret ; (2 found)
0x424be4: mov eax, 0x000000CA ; syscall ; (21 found)
0x424c45: mov eax, 0x000000CA ; xor sil, 0x80 ; syscall ; (1 found)
0x4253d9: mov eax, 0x000000CA ; xor sil, 0x81 ; syscall ; (2 found)
0x462ca1: mov eax, 0x000000CC ; syscall ; (1 found)
0x4a18f0: mov eax, 0x000000D9 ; syscall ; (1 found)
0x4647d7: mov eax, 0x000000DA ; syscall ; (1 found)
0x45e8e8: mov eax, 0x000000E4 ; syscall ; (1 found)
0x4a1363: mov eax, 0x000000E6 ; syscall ; (4 found)
0x424f04: mov eax, 0x000000EA ; syscall ; (4 found)
0x4605d4: mov eax, 0x00000101 ; syscall ; (6 found)
0x460547: mov eax, 0x00000106 ; syscall ; (1 found)
0x45f86b: mov eax, 0x00000111 ; syscall ; (1 found)
0x46151b: mov eax, 0x0000012E ; xor edi, edi ; syscall ; (1 found)
0x476d40: mov eax, 0x0000013E ; syscall ; (2 found)
0x46486a: mov eax, 0x0000014E ; syscall ; (1 found)
0x4a07e5: mov eax, 0x0148051E ; retn 0xB848 ; (1 found)
0x46cf36: mov eax, 0x02E80005 ; mov seg?, cx ; jmp qword [rsi-0x70] ; (1 found)
0x426f88: mov eax, 0x8949000C ; retn 0xBD41 ; (1 found)
0x46577a: mov eax, 0x8E058948 ; retn 0x0008 ; (1 found)
0x405bd5: mov eax, 0xFFFFFFA0 ; add rax, qword [fs:0x00000000] ; ret ; (1 found)
0x4756d5: mov eax, 0xFFFFFFE0 ; add rax, qword [fs:0x00000000] ; ret ; (1 found)
0x4756b5: mov eax, 0xFFFFFFE8 ; add rax, qword [fs:0x00000000] ; ret ; (1 found)
0x475695: mov eax, 0xFFFFFFF0 ; add rax, qword [fs:0x00000000] ; ret ; (1 found)
0x40b86a: mov eax, 0xFFFFFFFF ; pop rbp ; ret ; (2 found)
0x41f3d3: mov eax, 0xFFFFFFFF ; pop rbx ; ret ; (3 found)
0x40b921: mov eax, 0xFFFFFFFF ; ret ; (43 found)
0x460a82: mov eax, eax ; mov eax, 0x00000003 ; syscall ; (1 found)
0x4032bb: mov eax, eax ; pop rbx ; ret ; (1 found)
0x4574bc: mov eax, eax ; ret ; (17 found)
0x493614: mov eax, eax ; syscall ; (1 found)
0x4499e5: mov eax, eax ; vzeroupper ; ret ; (6 found)
0x492878: mov eax, ebp ; syscall ; (1 found)
0x47f7eb: mov eax, ecx ; adc eax, eax ; ret ; (2 found)
0x475a80: mov eax, ecx ; add rsp, 0x0000000000000148 ; ret ; (1 found)
0x4a1ccf: mov eax, ecx ; add rsp, 0x38 ; ret ; (1 found)
0x489cbb: mov eax, ecx ; pop r14 ; ret ; (1 found)
0x41ead6: mov eax, ecx ; syscall ; (4 found)
0x463964: mov eax, edi ; bswap eax ; ret ; (1 found)
0x424065: mov eax, edi ; ret ; (20 found)
0x463974: mov eax, edi ; rol ax, 0x0008 ; ret ; (1 found)
0x4b08ab: mov eax, edx ; add rsp, 0x28 ; ret ; (1 found)
0x480055: mov eax, edx ; pop rbx ; ret ; (1 found)
0x44a039: mov eax, edx ; ret ; (7 found)
0x4034e2: mov eax, edx ; syscall ; (2 found)
0x451cf1: mov eax, edx ; vzeroupper ; ret ; (2 found)
0x4575b0: mov eax, esi ; ret ; (2 found)
0x45f8cd: mov eax, esi ; syscall ; (1 found)
0x405e89: mov eax, esp ; pop r12 ; ret ; (9 found)
0x4655b5: mov eax, r12d ; pop r12 ; ret ; (2 found)
0x492877: mov eax, r13d ; syscall ; (1 found)
0x45f872: mov eax, r8d ; ret ; (7 found)
0x493613: mov eax, r8d ; syscall ; (1 found)
0x475a7e: mov eax, r9d ; add rsp, 0x0000000000000148 ; ret ; (2 found)
0x4a1ccd: mov eax, r9d ; add rsp, 0x38 ; ret ; (2 found)
0x41ead5: mov eax, r9d ; syscall ; (4 found)
0x448ee6: mov ebp, 0x048D48F6 ; aaa ; ret ; (1 found)
0x460712: mov ebp, 0x48000000 ; add esp, 0x78 ; ret ; (1 found)
0x4b2a8c: mov ebp, 0xACE80002 ; xor dh, ch ; jmp qword [rsi+0x66] ; (1 found)
0x448e4c: mov ebp, 0xF80148C0 ; ret ; (1 found)
0x4490dc: mov ebp, 0xF80148C6 ; ret ; (1 found)
0x48af77: mov ebp, 0xFFFFF748 ; mov rdx, r14 ; call qword [r13+0x38] ; (1 found)
0x475c18: mov ebp, eax ; mov rdi, r12 ; call rbx ; (1 found)
0x461ee3: mov ebp, ebx ; mov rdi, rbp ; call r12 ; (1 found)
0x47587f: mov ebp, ecx ; nop ; jmp rdx ; (1 found)
0x40bc15: mov ebp, edi ; add r15, r14 ; call rax ; (1 found)
0x4a8c0c: mov ebp, esp ; mov rsi, rbp ; syscall ; (1 found)
0x402922: mov ebx,  [rbp-0x08] ; leave ; ret ; (1 found)
0x40ca31: mov ebx,  [rcx+0x0B] ; add byte [rbx+rcx*4+0x04], cl ; retn 0x8840 ; (1 found)
0x48dcd2: mov ebx,  [rsp+0x00000090] ; jmp rdx ; (1 found)
0x4ad025: mov ebx,  [rsp+0x00] ; add rsp, 0x18 ; jmp r11 ; (3 found)
0x4ac913: mov ebx,  [rsp+0x00] ; add rsp, 0x30 ; jmp r11 ; (3 found)
0x4aca01: mov ebx,  [rsp+0x00] ; add rsp, 0x30 ; ret ; (3 found)
0x4647d2: mov ebx, 0x000002D0 ; mov eax, 0x000000DA ; syscall ; (1 found)
0x4b2cf6: mov ebx, 0x41E80002 ; xor ch, dh ; call qword [rax-0x76B6AABF] ; (2 found)
0x473244: mov ebx, 0x752FFA80 ; retn 0x8341 ; (1 found)
0x4295d9: mov ebx, 0x9FE80009 ; ret ; (1 found)
0x48d9d1: mov ebx, ecx ; jmp rdx ; (9 found)
0x49373d: mov ebx, edi ; mov rdi, qword [rdi+0x08] ; call qword [rbx] ; (1 found)
0x4bd190: mov ecx,  [rax-0x0C] ; jmp qword [rsi+0x66] ; (1 found)
0x43b25e: mov ecx,  [rbp+0x01] ; fstcw word [rsi] ; jmp r9 ; (4 found)
0x4abbad: mov ecx,  [rbp-0x00000098] ; call r9 ; (1 found)
0x4ab2ba: mov ecx,  [rbp-0x000000B0] ; call r9 ; (1 found)
0x435cae: mov ecx,  [rdi-0x73] ; or al, 0x0B ; jmp r9 ; (4 found)
0x456b64: mov ecx,  [rsi+rdx-0x03] ; mov  [rdi+rdx-0x03], ecx ; ret ; (1 found)
0x46556d: mov ecx,  [rsp+0x10] ; mov rdi, qword [rsp+0x18] ; call rcx ; (1 found)
0x4bb142: mov ecx, 0x000FC0C7 ; add byte [rax], al ; syscall ; (1 found)
0x4350e6: mov ecx, 0x83D72948 ; jmp qword [rax+0x73] ; (2 found)
0x48e8dd: mov ecx, 0x89000007 ; retn 0xC083 ; (1 found)
0x405cd0: mov ecx, 0x89480005 ; ret ; (1 found)
0x49237b: mov ecx, 0xFFFFFFFF ; mov eax, 0x000000CA ; syscall ; (1 found)
0x450796: mov ecx, edx ; rep movsb ; ret ; (1 found)
0x458959: mov ecx, esp ; call rbx ; (1 found)
0x4258df: mov edi,  [0x00000300] ; call 0x00000000 ; (2 found)
0x4618e4: mov edi,  [rbp+0x00] ; call rbx ; (9 found)
0x49e168: mov edi,  [rbp+0x00] ; movzx esi, bl ; call rbp ; (1 found)
0x4beefc: mov edi,  [rbp+0x10] ; add rdi, rbp ; call r12 ; (1 found)
0x48af76: mov edi,  [rbp-0x000008B8] ; mov rdx, r14 ; call qword [r13+0x38] ; (1 found)
0x4bbbfc: mov edi,  [rbp-0x08] ; leave ; ret ; (3 found)
0x493740: mov edi,  [rdi+0x08] ; call qword [rbx] ; (1 found)
0x4ac942: mov edi,  [rdi+0x28] ; call r11 ; (3 found)
0x461916: mov edi,  [rsp+0x00] ; call rbx ; (4 found)
0x401914: mov edi,  [rsp+0x08] ; call qword [rsp+0x00] ; (1 found)
0x4608c4: mov edi,  [rsp+0x08] ; mov eax, 0x00000001 ; syscall ; (1 found)
0x460a0c: mov edi,  [rsp+0x08] ; mov eax, 0x00000048 ; syscall ; (1 found)
0x476d74: mov edi,  [rsp+0x08] ; mov eax, 0x0000013E ; syscall ; (1 found)
0x460824: mov edi,  [rsp+0x08] ; xor eax, eax ; syscall ; (1 found)
0x4634d4: mov edi,  [rsp+0x0C] ; mov eax, 0x0000002B ; syscall ; (1 found)
0x460bca: mov edi,  [rsp+0x10] ; mov eax, 0x0000004F ; syscall ; (1 found)
0x4655cf: mov edi,  [rsp+0x18] ; call rax ; (1 found)
0x465572: mov edi,  [rsp+0x18] ; call rcx ; (1 found)
0x460778: mov edi,  [rsp+0x18] ; mov eax, 0x00000101 ; syscall ; (1 found)
0x4720f6: mov edi,  [rsp+0x38] ; call r15 ; (1 found)
0x472252: mov edi,  [rsp+0x38] ; lea r8, qword [rsp+0x000000A0] ; call r15 ; (1 found)
0x46d128: mov edi,  [rsp+0x48] ; call r14 ; (1 found)
0x4708d2: mov edi,  [rsp+0x48] ; mov rax, qword [rsp+0x10] ; call rax ; (1 found)
0x46f129: mov edi,  [rsp+0x48] ; mov rax, qword [rsp+0x18] ; call rax ; (1 found)
0x46e117: mov edi,  [rsp+0x48] ; mov rax, qword [rsp+0x28] ; call rax ; (1 found)
0x46c42f: mov edi,  [rsp+0x50] ; call r13 ; (3 found)
0x46bdb9: mov edi,  [rsp+0x50] ; mov rax, qword [rsp+0x18] ; call rax ; (1 found)
0x46a1dd: mov edi,  [rsp+0x50] ; mov rax, qword [rsp+0x28] ; call rax ; (2 found)
0x46a79d: mov edi,  [rsp+0x58] ; mov rax, qword [rsp+0x18] ; call rax ; (2 found)
0x4bb535: mov edi, 0x00000001 ; call rax ; (5 found)
0x4bc2a0: mov edi, 0x00000001 ; jmp rax ; (1 found)
0x4a1423: mov edi, 0x00000001 ; mov eax, 0x000000E6 ; syscall ; (2 found)
0x424eb9: mov edi, 0x00000002 ; mov eax, 0x0000000E ; syscall ; (2 found)
0x41ead0: mov edi, 0x00000002 ; mov eax, r9d ; syscall ; (2 found)
0x4048f4: mov edi, 0x00003001 ; mov eax, 0x0000009E ; syscall ; (1 found)
0x404f56: mov edi, 0x00003002 ; mov eax, 0x0000009E ; syscall ; (1 found)
0x404f8c: mov edi, 0x00003003 ; mov eax, 0x0000009E ; syscall ; (1 found)
0x401ab7: mov edi, 0x004F3C00 ; jmp rax ; (2 found)
0x417e58: mov edi, 0x440F48C0 ; retn 0x19E9 ; (1 found)
0x42cffd: mov edi, 0x4800027E ; cmove eax, edx ; ret ; (1 found)
0x4727dc: mov edi, 0xFF112EE8 ; jmp qword [rsi+0x66] ; (1 found)
0x45f730: mov edi, 0xFFFEC8E9 ; jmp qword [rsi+0x2E] ; (1 found)
0x4605cf: mov edi, 0xFFFFFF9C ; mov eax, 0x00000101 ; syscall ; (3 found)
0x41f2bf: mov edi, eax ; call qword [r15+0x18] ; (1 found)
0x41ce9e: mov edi, eax ; call qword [rax+0x18] ; (1 found)
0x4aed2d: mov edi, eax ; jmp rax ; (1 found)
0x4932cd: mov edi, eax ; mov eax, 0x000000CA ; syscall ; (2 found)
0x424f33: mov edi, eax ; mov eax, 0x000000EA ; syscall ; (2 found)
0x420651: mov edi, ebp ; call qword [r12+0x00000090] ; (2 found)
0x4188cd: mov edi, ebp ; call qword [r12+0x38] ; (1 found)
0x41fce2: mov edi, ebp ; call qword [r13+0x00000090] ; (1 found)
0x419b64: mov edi, ebp ; call qword [r13+0x38] ; (1 found)
0x41f43b: mov edi, ebp ; call qword [r14+0x00000090] ; (1 found)
0x4203a1: mov edi, ebp ; call qword [r14+0x18] ; (3 found)
0x4916af: mov edi, ebp ; call qword [r14+0x20] ; (1 found)
0x41f8dd: mov edi, ebp ; call qword [r15+0x00000080] ; (1 found)
0x418de7: mov edi, ebp ; call qword [r15+0x38] ; (3 found)
0x41f805: mov edi, ebp ; call qword [rax+0x00000080] ; (1 found)
0x41f697: mov edi, ebp ; call qword [rax+0x00000090] ; (1 found)
0x420497: mov edi, ebp ; call qword [rax+0x78] ; (1 found)
0x4b63ca: mov edi, ebp ; call qword [rax] ; (2 found)
0x41bfae: mov edi, ebp ; call qword [rbx+0x00000080] ; (4 found)
0x4216f3: mov edi, ebp ; call qword [rbx+0x00000088] ; (1 found)
0x48fdbc: mov edi, ebp ; call qword [rbx+0x00000090] ; (1 found)
0x41bc5d: mov edi, ebp ; call qword [rbx+0x10] ; (1 found)
0x422458: mov edi, ebp ; call qword [rbx+0x18] ; (2 found)
0x419431: mov edi, ebp ; call qword [rbx+0x38] ; (2 found)
0x415ea7: mov edi, ebp ; call qword [rcx+0x38] ; (4 found)
0x461ee6: mov edi, ebp ; call r12 ; (1 found)
0x40c318: mov edi, ebp ; call r15 ; (2 found)
0x41f855: mov edi, ebp ; call rax ; (4 found)
0x458ae8: mov edi, ebp ; call rbx ; (3 found)
0x41e55c: mov edi, ebp ; lea r9, qword [rsp+0x28] ; call rbp ; (2 found)
0x457f25: mov edi, ebp ; lea r9, qword [rsp+0x30] ; call rbx ; (1 found)
0x4936a7: mov edi, ebp ; mov eax, 0x000000CA ; syscall ; (1 found)
0x492875: mov edi, ebp ; mov eax, r13d ; syscall ; (1 found)
0x493611: mov edi, ebp ; mov eax, r8d ; syscall ; (1 found)
0x420458: mov edi, ebp ; mov edx, 0x00000001 ; call qword [rax+0x00000080] ; (1 found)
0x458070: mov edi, ebp ; mov rsi, qword [rsp+0x18] ; call rbx ; (1 found)
0x41ff04: mov edi, ebp ; sub r12, r14 ; call qword [r13+0x40] ; (1 found)
0x4617c5: mov edi, ebp ; xor esi, esi ; call r12 ; (4 found)
0x4201ff: mov edi, ebx ; call qword [r12+0x00000080] ; (1 found)
0x420e97: mov edi, ebx ; call qword [r12+0x00000088] ; (1 found)
0x423c1c: mov edi, ebx ; call qword [r12+0x18] ; (1 found)
0x420c70: mov edi, ebx ; call qword [r12+0x48] ; (1 found)
0x48ff68: mov edi, ebx ; call qword [r13+0x38] ; (1 found)
0x422e40: mov edi, ebx ; call qword [r13+0x60] ; (1 found)
0x420d1b: mov edi, ebx ; call qword [r14+0x00000080] ; (1 found)
0x423aec: mov edi, ebx ; call qword [r14+0x18] ; (1 found)
0x41ac2d: mov edi, ebx ; call qword [r14+0x38] ; (2 found)
0x4aebaa: mov edi, ebx ; call qword [r14+0x48] ; (1 found)
0x420d5a: mov edi, ebx ; call qword [r14+0x78] ; (1 found)
0x490142: mov edi, ebx ; call qword [r15+0x38] ; (1 found)
0x41e01d: mov edi, ebx ; call qword [rbp+0x00000080] ; (4 found)
0x4221f1: mov edi, ebx ; call qword [rbp+0x18] ; (2 found)
0x422842: mov edi, ebx ; call qword [rbp+0x20] ; (3 found)
0x423362: mov edi, ebx ; call qword [rbp+0x30] ; (4 found)
0x41c146: mov edi, ebx ; call qword [rbp+0x60] ; (1 found)
0x42278c: mov edi, ebx ; call qword [rbp+0x68] ; (1 found)
0x42007a: mov edi, ebx ; call qword [rbp+0x70] ; (1 found)
0x42381b: mov edi, ebx ; call qword [rcx+0x58] ; (1 found)
0x42353f: mov edi, ebx ; call qword [rdx+0x18] ; (1 found)
0x4686fb: mov edi, ebx ; call r12 ; (2 found)
0x468827: mov edi, ebx ; call r14 ; (3 found)
0x467d2a: mov edi, ebx ; call r15 ; (1 found)
0x48f903: mov edi, ebx ; call r8 ; (1 found)
0x41b502: mov edi, ebx ; call rax ; (1 found)
0x46893a: mov edi, ebx ; call rbp ; (1 found)
0x464868: mov edi, ebx ; mov eax, 0x0000014E ; syscall ; (1 found)
0x41f1b7: mov edi, ebx ; sub rdx, rsi ; call qword [r12+0x70] ; (1 found)
0x41cb2e: mov edi, ebx ; sub rdx, rsi ; call qword [rax+0x70] ; (1 found)
0x41d4b2: mov edi, edi ; call qword [r13+0x00000080] ; (1 found)
0x41d1d3: mov edi, edi ; call qword [r14+0x00000080] ; (2 found)
0x41d0ed: mov edi, edi ; call qword [r14+0x00000090] ; (1 found)
0x41c4b9: mov edi, edi ; call qword [r14+0x38] ; (2 found)
0x41d6a0: mov edi, edi ; call qword [rbp+0x00000080] ; (1 found)
0x41c51f: mov edi, edi ; call qword [rbp+0x38] ; (2 found)
0x41d78f: mov edi, edi ; call qword [rbx+0x00000080] ; (1 found)
0x41d22c: mov edi, edi ; call rax ; (1 found)
0x41e7cd: mov edi, edi ; call rbx ; (1 found)
0x4bc45b: mov edi, edi ; mov rsi, qword [r14] ; call rax ; (1 found)
0x417915: mov edi, esi ; call qword [r12+0x38] ; (1 found)
0x416def: mov edi, esi ; call qword [r13+0x38] ; (1 found)
0x416419: mov edi, esi ; call qword [rax+0x38] ; (2 found)
0x4172f8: mov edi, esi ; call qword [rcx+0x38] ; (2 found)
0x4bea91: mov edi, esi ; call rbp ; (1 found)
0x4b1433: mov edi, esi ; jmp qword [rsi+0x49] ; (1 found)
0x48d806: mov edi, esp ; call qword [r14+0x38] ; (2 found)
0x404cf7: mov edi, esp ; call qword [r14+r15*8] ; (2 found)
0x48df64: mov edi, esp ; call qword [r15+0x38] ; (1 found)
0x48e61d: mov edi, esp ; call qword [rax+0x38] ; (1 found)
0x48ce3d: mov edi, esp ; call qword [rbp+0x38] ; (1 found)
0x4228df: mov edi, esp ; call qword [rbx+0x18] ; (1 found)
0x48d317: mov edi, esp ; call qword [rbx+0x38] ; (1 found)
0x40ba0b: mov edi, esp ; call rax ; (4 found)
0x4bdc62: mov edi, esp ; call rbp ; (1 found)
0x475c1b: mov edi, esp ; call rbx ; (4 found)
0x485f1e: mov edi, esp ; mov qword [rbp-0x000000E8], r8 ; call rax ; (1 found)
0x475d44: mov edi, esp ; mov rdx, r14 ; call rbp ; (1 found)
0x404cf6: mov edi, r12d ; call qword [r14+r15*8] ; (2 found)
0x4af34e: mov edx,  [0x00000000004FA358] ; add word [rdx+rax*2], 0x0001 ; ret ; (1 found)
0x48d0ae: mov edx,  [rax+rdx*8] ; jmp rdx ; (3 found)
0x418b47: mov edx,  [rbx+rdx*8] ; jmp rdx ; (3 found)
0x48dcce: mov edx,  [rbx+rdx*8] ; mov rbx, qword [rsp+0x00000090] ; jmp rdx ; (1 found)
0x48d9cd: mov edx,  [rbx+rdx*8] ; mov rbx, rcx ; jmp rdx ; (9 found)
0x44556d: mov edx,  [rcx+rdx*4] ; sub eax, edx ; ret ; (4 found)
0x419952: mov edx,  [rcx+rdx*8] ; jmp rdx ; (1 found)
0x463a30: mov edx,  [rcx+rdx] ; mov qword [rax+0x08], rdx ; ret ; (1 found)
0x41c204: mov edx,  [rdi+0x000000A0] ; mov qword [rdx+0x000000E0], rcx ; ret ; (1 found)
0x419689: mov edx,  [rdi+rdx*8] ; jmp rdx ; (4 found)
0x4bc5d1: mov edx,  [rdx] ; mov qword [r8], rdx ; ret ; (2 found)
0x47a311: mov edx,  [rsi+0x00] ; add byte [rax-0x7D], cl ; ret ; (1 found)
0x419647: mov edx,  [rsi+rdx*8] ; jmp rdx ; (5 found)
0x437a71: mov edx,  [rsi-0x02] ; mov word [rdi-0x02], dx ; ret ; (2 found)
0x437e30: mov edx,  [rsi-0x04] ; mov  [rdi-0x04], edx ; ret ; (4 found)
0x4376c1: mov edx,  [rsi-0x08] ; mov qword [rdi-0x08], rdx ; ret ; (4 found)
0x43db40: mov edx,  [rsi] ; mov  [rdi], edx ; ret ; (4 found)
0x43d981: mov edx,  [rsi] ; mov qword [rdi], rdx ; ret ; (3 found)
0x4bdc5f: mov edx,  [rsi] ; mov rdi, r12 ; call rbp ; (1 found)
0x44d371: mov edx,  [rsi] ; mov word [rdi], dx ; ret ; (1 found)
0x42045a: mov edx, 0x00000001 ; call qword [rax+0x00000080] ; (1 found)
0x424cbb: mov edx, 0x00000001 ; mov eax, 0x000000CA ; syscall ; (1 found)
0x41d69a: mov edx, 0x00000001 ; mov rdi, r15 ; call qword [rbp+0x00000080] ; (1 found)
0x41fa5a: mov edx, 0x00000001 ; mov rdi, rbp ; call qword [rbx+0x00000080] ; (1 found)
0x420c6a: mov edx, 0x00000001 ; mov rdi, rbx ; call qword [r12+0x48] ; (1 found)
0x41e017: mov edx, 0x00000001 ; mov rdi, rbx ; call qword [rbp+0x00000080] ; (2 found)
0x48dac7: mov edx, 0x00000001 ; mov rdx, qword [r8+rdx*8] ; jmp rdx ; (1 found)
0x41d4ac: mov edx, 0x00000002 ; mov rdi, r15 ; call qword [r13+0x00000080] ; (1 found)
0x41bfa8: mov edx, 0x00000002 ; mov rdi, rbp ; call qword [rbx+0x00000080] ; (2 found)
0x420b8d: mov edx, 0x00000002 ; mov rdi, rbx ; call qword [rbp+0x00000080] ; (1 found)
0x4759a7: mov edx, 0x00000008 ; mov eax, 0x0000000D ; syscall ; (1 found)
0x425897: mov edx, 0x00000971 ; xor eax, eax ; ret ; (1 found)
0x49ddfd: mov edx, 0x3ED00148 ; jmp rax ; (1 found)
0x49d972: mov edx, 0x83000000 ; retn 0x7E20 ; (1 found)
0x41bc02: mov edx, 0x89000000 ; retn 0xE281 ; (1 found)
0x4ae8e5: mov edx, 0x894830E8 ; or byte [rax+0x00000002], r15L ; ret ; (1 found)
0x468975: mov edx, 0xE80005F7 ; retn 0xF9D3 ; (1 found)
0x47565f: mov edx, 0xFFFFFFE0 ; mov qword [fs:rdx], rax ; ret ; (1 found)
0x46a01b: mov edx, 0xFFFFFFFF ; cmovs eax, edx ; ret ; (1 found)
0x4922ed: mov edx, ebp ; mov eax, 0x000000CA ; syscall ; (1 found)
0x4617da: mov edx, ebp ; mov esi, 0x00000001 ; call r12 ; (3 found)
0x476330: mov edx, ebp ; mov rdi, r12 ; call rbx ; (1 found)
0x48c5a0: mov edx, ebp ; mov rsi, r10 ; call qword [r14+0x38] ; (1 found)
0x48a54c: mov edx, ebp ; mov rsi, r10 ; call qword [r15+0x38] ; (1 found)
0x475c2d: mov edx, ebp ; mov rsi, r12 ; call rbx ; (1 found)
0x48b6c7: mov edx, ebp ; mov rsi, r15 ; call qword [r14+0x38] ; (1 found)
0x48b9fe: mov edx, ebp ; mov rsi, r15 ; call qword [rax+0x38] ; (1 found)
0x489b40: mov edx, ebx ; call qword [r13+0x38] ; (1 found)
0x48ce3a: mov edx, ebx ; mov rdi, r12 ; call qword [rbp+0x38] ; (1 found)
0x4188ca: mov edx, ebx ; mov rdi, rbp ; call qword [r12+0x38] ; (1 found)
0x41c624: mov edx, ebx ; mov rsi, r12 ; call qword [r13+0x38] ; (1 found)
0x4a1be5: mov edx, ecx ; mov eax, 0x00000011 ; syscall ; (1 found)
0x461265: mov edx, ecx ; mov eax, 0x00000028 ; syscall ; (1 found)
0x463595: mov edx, ecx ; mov eax, 0x00000036 ; syscall ; (1 found)
0x460545: mov edx, ecx ; mov eax, 0x00000106 ; syscall ; (1 found)
0x419b61: mov edx, edi ; mov rdi, rbp ; call qword [r13+0x38] ; (1 found)
0x41942e: mov edx, edi ; mov rdi, rbp ; call qword [rbx+0x38] ; (1 found)
0x48af7d: mov edx, esi ; call qword [r13+0x38] ; (1 found)
0x475d47: mov edx, esi ; call rbp ; (1 found)
0x424fda: mov edx, esi ; lea rsi, qword [0x00000000004C42A0] ; syscall ; (1 found)
0x40ba89: mov edx, esi ; mov rax, qword [rsp+0x00] ; call rax ; (1 found)
0x4159a4: mov edx, esp ; call qword [r13+0x38] ; (1 found)
0x4a1c41: mov edx, esp ; mov eax, 0x00000010 ; syscall ; (1 found)
0x4a8e1b: mov edx, esp ; mov eax, 0x00000014 ; syscall ; (1 found)
0x462c9f: mov edx, esp ; mov eax, 0x000000CC ; syscall ; (1 found)
0x416dec: mov edx, esp ; mov rdi, r14 ; call qword [r13+0x38] ; (1 found)
0x4922ec: mov edx, r13d ; mov eax, 0x000000CA ; syscall ; (1 found)
0x4617d9: mov edx, r13d ; mov esi, 0x00000001 ; call r12 ; (1 found)
0x4636d8: mov es, word [rbx] ; add al, 0x11 ; ret ; (1 found)
0x4bdd40: mov esi,  [rbx+rcx*8+0x10] ; call rbp ; (1 found)
0x4ac93e: mov esi,  [rdi+0x20] ; mov rdi, qword [rdi+0x28] ; call r11 ; (3 found)
0x4bc45e: mov esi,  [rsi] ; call rax ; (1 found)
0x458073: mov esi,  [rsp+0x18] ; call rbx ; (1 found)
0x4034af: mov esi,  [rsp+0x18] ; mov rax, qword [rsp+0x08] ; call rax ; (1 found)
0x467a06: mov esi,  [rsp+0x18] ; xor r8d, r8d ; call rbx ; (1 found)
0x4720f1: mov esi,  [rsp+0x40] ; mov rdi, qword [rsp+0x38] ; call r15 ; (1 found)
0x46d123: mov esi,  [rsp+0x50] ; mov rdi, qword [rsp+0x48] ; call r14 ; (1 found)
0x46c42a: mov esi,  [rsp+0x58] ; mov rdi, qword [rsp+0x50] ; call r13 ; (3 found)
0x4617dc: mov esi, 0x00000001 ; call r12 ; (4 found)
0x4bbb5a: mov esi, 0x00000001 ; mov edi, 0x00000001 ; call rax ; (1 found)
0x48f8fb: mov esi, 0x00000001 ; mov rdi, rbx ; call r8 ; (3 found)
0x41b4fc: mov esi, 0x00000001 ; mov rdi, rbx ; call rax ; (1 found)
0x492adc: mov esi, 0x00000007 ; mov eax, 0x000000CA ; syscall ; (1 found)
0x4bb66d: mov esi, 0x0000000A ; mov edi, 0x00000001 ; call rax ; (2 found)
0x46132d: mov esi, 0x00000010 ; mov eax, 0x00000048 ; syscall ; (2 found)
0x4bb755: mov esi, 0x0000001A ; mov edi, 0x00000001 ; call rax ; (1 found)
0x4bea8b: mov esi, 0x00000040 ; mov rdi, r14 ; call rbp ; (1 found)
0x424bdf: mov esi, 0x00000080 ; mov eax, 0x000000CA ; syscall ; (1 found)
0x4ac4d2: mov esi, 0x00000080 ; mov eax, r9d ; syscall ; (2 found)
0x424c9c: mov esi, 0x00000081 ; mov eax, 0x000000CA ; syscall ; (2 found)
0x40326c: mov esi, 0x0F000000 ; lahf ; retn 0x3145 ; (1 found)
0x4698ca: mov esi, 0x83480142 ; retn 0x4101 ; (1 found)
0x40c892: mov esi, 0x83480143 ; ret ; (2 found)
0x47e283: mov esi, 0x89412404 ; ret ; (1 found)
0x4ad28a: mov esi, 0xC3C829C2 ; mov eax, 0x00000001 ; ret ; (1 found)
0x491230: mov esi, 0xFFFFFFFF ; call qword [rax+0x18] ; (1 found)
0x41f2b9: mov esi, 0xFFFFFFFF ; mov rdi, r8 ; call qword [r15+0x18] ; (1 found)
0x41ce98: mov esi, 0xFFFFFFFF ; mov rdi, r8 ; call qword [rax+0x18] ; (1 found)
0x42039b: mov esi, 0xFFFFFFFF ; mov rdi, rbp ; call qword [r14+0x18] ; (1 found)
0x422452: mov esi, 0xFFFFFFFF ; mov rdi, rbp ; call qword [rbx+0x18] ; (2 found)
0x423c16: mov esi, 0xFFFFFFFF ; mov rdi, rbx ; call qword [r12+0x18] ; (1 found)
0x423ae6: mov esi, 0xFFFFFFFF ; mov rdi, rbx ; call qword [r14+0x18] ; (1 found)
0x4221eb: mov esi, 0xFFFFFFFF ; mov rdi, rbx ; call qword [rbp+0x18] ; (2 found)
0x4233f4: mov esi, 0xFFFFFFFF ; mov rdi, rbx ; call qword [rbp+0x30] ; (2 found)
0x423539: mov esi, 0xFFFFFFFF ; mov rdi, rbx ; call qword [rdx+0x18] ; (1 found)
0x4937c2: mov esi, eax ; mov eax, 0x0000000E ; syscall ; (1 found)
0x418de4: mov esi, eax ; mov rdi, rbp ; call qword [r15+0x38] ; (1 found)
0x4a1361: mov esi, ebp ; mov eax, 0x000000E6 ; syscall ; (2 found)
0x425072: mov esi, ebp ; mov eax, 0x000000EA ; syscall ; (1 found)
0x404cf4: mov esi, ebp ; mov edi, r12d ; call qword [r14+r15*8] ; (2 found)
0x4a0e9b: mov esi, ebp ; mov qword [rsp+0x000000D0], rax ; call r12 ; (1 found)
0x48d803: mov esi, ebp ; mov rdi, r12 ; call qword [r14+0x38] ; (2 found)
0x48df61: mov esi, ebp ; mov rdi, r12 ; call qword [r15+0x38] ; (1 found)
0x48e61a: mov esi, ebp ; mov rdi, r12 ; call qword [rax+0x38] ; (1 found)
0x40ba08: mov esi, ebp ; mov rdi, r12 ; call rax ; (3 found)
0x40c371: mov esi, ebp ; mov rdi, r13 ; call r15 ; (1 found)
0x416416: mov esi, ebp ; mov rdi, r14 ; call qword [rax+0x38] ; (1 found)
0x41d3da: mov esi, ebp ; mov rdi, r15 ; call qword [r14+0x00000080] ; (1 found)
0x41c4b6: mov esi, ebp ; mov rdi, r15 ; call qword [r14+0x38] ; (2 found)
0x41c51c: mov esi, ebp ; mov rdi, r15 ; call qword [rbp+0x38] ; (2 found)
0x41e7ca: mov esi, ebp ; mov rdi, r15 ; call rbx ; (1 found)
0x420494: mov esi, ebp ; mov rdi, rbp ; call qword [rax+0x78] ; (1 found)
0x4a0a4e: mov esi, ebp ; mov rdi, rbp ; call rbx ; (1 found)
0x4201fc: mov esi, ebp ; mov rdi, rbx ; call qword [r12+0x00000080] ; (1 found)
0x48ff65: mov esi, ebp ; mov rdi, rbx ; call qword [r13+0x38] ; (1 found)
0x4aeba7: mov esi, ebp ; mov rdi, rbx ; call qword [r14+0x48] ; (1 found)
0x4bc309: mov esi, ebp ; mov rdi, rbx ; call r14 ; (1 found)
0x4a8c0f: mov esi, ebp ; syscall ; (1 found)
0x417912: mov esi, ebx ; mov rdi, r14 ; call qword [r12+0x38] ; (1 found)
0x4172f5: mov esi, ebx ; mov rdi, r14 ; call qword [rcx+0x38] ; (1 found)
0x48b6ca: mov esi, edi ; call qword [r14+0x38] ; (1 found)
0x48ba01: mov esi, edi ; call qword [rax+0x38] ; (1 found)
0x48d314: mov esi, edi ; mov rdi, r12 ; call qword [rbx+0x38] ; (1 found)
0x490ee9: mov esi, edi ; mov rdi, rbp ; call qword [r14+0x18] ; (2 found)
0x48c5a3: mov esi, edx ; call qword [r14+0x38] ; (1 found)
0x48a54f: mov esi, edx ; call qword [r15+0x38] ; (1 found)
0x4190bd: mov esi, edx ; mov rdi, rbp ; call qword [r15+0x38] ; (1 found)
0x41a510: mov esi, edx ; mov rdi, rbp ; call qword [rbx+0x38] ; (1 found)
0x424f02: mov esi, esi ; mov eax, 0x000000EA ; syscall ; (1 found)
0x475c6f: mov esi, esi ; mov rdi, r12 ; call rbx ; (2 found)
0x418e7f: mov esi, esi ; mov rdi, rbp ; call qword [r15+0x38] ; (1 found)
0x49013f: mov esi, esi ; mov rdi, rbx ; call qword [r15+0x38] ; (1 found)
0x420077: mov esi, esi ; mov rdi, rbx ; call qword [rbp+0x70] ; (1 found)
0x41c627: mov esi, esp ; call qword [r13+0x38] ; (1 found)
0x475c30: mov esi, esp ; call rbx ; (1 found)
0x4b63c8: mov esi, esp ; mov edi, ebp ; call qword [rax] ; (2 found)
0x4b6384: mov esi, esp ; mov edi, ebp ; call rax ; (1 found)
0x475c54: mov esi, esp ; mov rdi, r13 ; call rbx ; (1 found)
0x417048: mov esi, esp ; mov rdi, r14 ; call qword [rax+0x38] ; (1 found)
0x4180bd: mov esi, esp ; mov rdi, r14 ; call qword [rcx+0x38] ; (1 found)
0x42064e: mov esi, esp ; mov rdi, rbp ; call qword [r12+0x00000090] ; (2 found)
0x41f438: mov esi, esp ; mov rdi, rbp ; call qword [r14+0x00000090] ; (1 found)
0x41f8da: mov esi, esp ; mov rdi, rbp ; call qword [r15+0x00000080] ; (1 found)
0x48fdb9: mov esi, esp ; mov rdi, rbp ; call qword [rbx+0x00000090] ; (1 found)
0x415ea4: mov esi, esp ; mov rdi, rbp ; call qword [rcx+0x38] ; (4 found)
0x420d57: mov esi, esp ; mov rdi, rbx ; call qword [r14+0x78] ; (1 found)
0x4a1360: mov esi, r13d ; mov eax, 0x000000E6 ; syscall ; (2 found)
0x425071: mov esi, r13d ; mov eax, 0x000000EA ; syscall ; (1 found)
0x424f01: mov esi, r14d ; mov eax, 0x000000EA ; syscall ; (1 found)
0x490ee8: mov esi, r15d ; mov rdi, rbp ; call qword [r14+0x18] ; (2 found)
0x457372: mov esp, 0x01448DC0 ; lahf ; ret ; (1 found)
0x4595c2: mov esp, 0x01448DC0 ; out dx, eax ; ret ; (1 found)
0x458e7d: mov esp, 0x02E8C1C0 ; vzeroupper ; ret ; (4 found)
0x494d22: mov esp, 0x39C931C0 ; retn 0x8D48 ; (6 found)
0x434971: mov esp, 0x448D48C0 ; cmp al, dh ; ret ; (3 found)
0x4349a1: mov esp, 0x448D48C0 ; cmp byte [rax], ah ; ret ; (3 found)
0x434991: mov esp, 0x448D48C0 ; cmp byte [rax], dl ; ret ; (3 found)
0x49ffb2: mov esp, 0x448D48C0 ; xchg  [rax], esp ; ret ; (2 found)
0x473323: mov esp, 0x752FFA80 ; retn 0x8341 ; (1 found)
0x4496ab: mov esp, 0x77F8C5C0 ; ret ; (4 found)
0x4496e2: mov esp, 0x83D729C0 ; mov  [rcx+0x01], 0x77F8C5F8 ; ret ; (1 found)
0x426bc3: mov esp, 0x8949000C ; retn 0x8948 ; (1 found)
0x4753be: mov esp, 0x894CFFF8 ; dec  [rax-0x77] ; ret ; (1 found)
0x45733b: mov esp, 0xC031C3C0 ; ret ; (2 found)
0x4575b5: mov esp, 0xC63948C0 ; cmovb eax, esi ; ret ; (2 found)
0x4558ad: mov esp, 0xC80148C0 ; ret ; (2 found)
0x434a0b: mov esp, 0xC80148C0 ; vzeroupper ; ret ; (1 found)
0x456333: mov esp, 0xD00148C0 ; ret ; (1 found)
0x448ddd: mov esp, 0xD00148C0 ; vzeroupper ; ret ; (1 found)
0x449453: mov esp, 0xD00148D2 ; sub rax, rdi ; ret ; (3 found)
0x457542: mov esp, 0xD72948C0 ; lea rax, qword [rdi+rax+0x20] ; ret ; (1 found)
0x457552: mov esp, 0xD72948C0 ; lea rax, qword [rdi+rax+0x40] ; ret ; (1 found)
0x42cea0: mov esp, 0xF7000084 ; retn 0x0000 ; (1 found)
0x43480b: mov esp, 0xF80148C0 ; add rax, rcx ; ret ; (1 found)
0x434981: mov esp, 0xF80148C0 ; ret ; (15 found)
0x4349dd: mov esp, 0xF80148C0 ; vzeroupper ; ret ; (7 found)
0x4496c2: mov esp, 0xFFD729C0 ; mov  [rcx], 0x77F8C5F8 ; ret ; (1 found)
0x4bbdaa: mov esp, ecx ; pop rcx ; jmp rcx ; (4 found)
0x47bfa9: mov fs, word [rbp-0x7CFFFFF8] ; retn 0x4435 ; (1 found)
0x4b8b77: mov gs, word [rax-0x72000003] ; ret ; (1 found)
0x425b82: mov qword [0x00000000004F2860], rax ; ret ; (1 found)
0x425ba2: mov qword [0x00000000004F2868], rax ; ret ; (1 found)
0x425bc2: mov qword [0x00000000004F2870], rax ; ret ; (1 found)
0x425908: mov qword [0x00000000004F2878], rax ; ret ; (1 found)
0x4258f8: mov qword [0x00000000004F2880], rax ; ret ; (1 found)
0x425947: mov qword [0x00000000004F28C8], rdx ; ret ; (1 found)
0x425961: mov qword [0x00000000004F28D8], rax ; ret ; (1 found)
0x425978: mov qword [0x00000000004F28E0], rax ; ret ; (1 found)
0x492447: mov qword [0x00000000004F3BF0], rax ; ret ; (1 found)
0x424104: mov qword [0x00000000004F5390], 0x0000000000000000 ; mov qword [0x00000000004F5398], 0x0000000000000000 ; ret ; (1 found)
0x42410f: mov qword [0x00000000004F5398], 0x0000000000000000 ; ret ; (1 found)
0x425b06: mov qword [0x00000000004F9418], rax ; ret ; (1 found)
0x4bee0c: mov qword [0x00000000004F94B0], 0x0000000000000000 ; ret ; (1 found)
0x463ac3: mov qword [0x00000000004F9BF0], rax ; lea rax, qword [0x00000000004F9BE8] ; ret ; (1 found)
0x4aee49: mov qword [0x00000000004F9C48], 0x0000000000000000 ; ret ; (3 found)
0x403650: mov qword [0x00000000004F9CE0], 0x0000000000000800 ; pop rbx ; ret ; (1 found)
0x403647: mov qword [0x00000000004F9CE0], rax ; pop rbx ; ret ; (1 found)
0x4bf63b: mov qword [0x00000000004F9FB0], 0x0000000000000000 ; add rsp, 0x08 ; ret ; (1 found)
0x4bfa8d: mov qword [0x00000000004FA158], 0x0000000000000000 ; add rsp, 0x08 ; ret ; (1 found)
0x4a84a0: mov qword [0x00000000004FA218], rax ; add rsp, 0x08 ; ret ; (1 found)
0x4ad9c0: mov qword [0x00000000004FA278], 0x0000000000000000 ; add rsp, 0x08 ; ret ; (1 found)
0x4b16bc: mov qword [0x00000000004FA388], 0x0000000000000000 ; pop rbx ; ret ; (1 found)
0x424b7b: mov qword [0x000002F8], rdi ; ret ; (2 found)
0x424b7a: mov qword [fs:0x000002F8], rdi ; ret ; (2 found)
0x4b4bf0: mov qword [fs:rbx], 0x0000000000000000 ; pop rbx ; ret ; (1 found)
0x475665: mov qword [fs:rdx], rax ; ret ; (2 found)
0x4b9702: mov qword [r10], rdx ; pop rbx ; ret ; (2 found)
0x4bc5b0: mov qword [r8], rdx ; ret ; (6 found)
0x493f87: mov qword [r8], rsi ; ret ; (2 found)
0x440944: mov qword [r9-0x08], rcx ; ret ; (1 found)
0x423270: mov qword [rax+0x000000A0], 0xFFFFFFFFFFFFFFFF ; mov qword [rax+0x000000A8], 0x0000000000000000 ; ret ; (1 found)
0x423262: mov qword [rax+0x000000A8], 0x0000000000000000 ; ret ; (4 found)
0x4ac3a8: mov qword [rax+0x00000310], rdx ; movups  [rax+0x00000300], xmm0 ; ret ; (1 found)
0x4b40c4: mov qword [rax+0x00000378], rdx ; pop rbx ; ret ; (1 found)
0x4231af: mov qword [rax+0x08], 0x0000000000000000 ; ret ; (1 found)
0x463a33: mov qword [rax+0x08], rdx ; ret ; (1 found)
0x423d72: mov qword [rax+0x08], rsi ; xor eax, eax ; ret ; (2 found)
0x4b162c: mov qword [rax+0x10], 0x0000000000000000 ; ret ; (1 found)
0x426517: mov qword [rax+0x20], rdx ; add rsp, 0x08 ; ret ; (1 found)
0x464965: mov qword [rax+0x40], rdx ; mov byte [rax+0x50], 0x01 ; ret ; (1 found)
0x490ace: mov qword [rax+0x40], rdx ; movups  [rax], xmm0 ; ret ; (1 found)
0x490a93: mov qword [rax+0x40], rdx ; movups  [rax], xmm1 ; ret ; (1 found)
0x46497f: mov qword [rax+0x48], rdx ; ret ; (2 found)
0x451c63: mov qword [rax+rdx-0x08], rdi ; ret ; (3 found)
0x451e13: mov qword [rax+rdx-0x08], rdi ; vzeroupper ; ret ; (1 found)
0x4231a8: mov qword [rax], 0x0000000000000000 ; mov qword [rax+0x08], 0x0000000000000000 ; ret ; (1 found)
0x451c60: mov qword [rax], rdi ; mov qword [rax+rdx-0x08], rdi ; ret ; (3 found)
0x4b4584: mov qword [rax], rdi ; pop rbx ; ret ; (1 found)
0x4aee46: mov qword [rax], rdx ; mov qword [0x00000000004F9C48], 0x0000000000000000 ; ret ; (1 found)
0x4b4578: mov qword [rax], rdx ; pop rbx ; ret ; (2 found)
0x491b47: mov qword [rax], rdx ; xor eax, eax ; ret ; (2 found)
0x4abf99: mov qword [rbp-0x00000088], r9 ; call rax ; (1 found)
0x4ab858: mov qword [rbp-0x000000A0], r10 ; call rax ; (1 found)
0x4aba7d: mov qword [rbp-0x000000A0], r11 ; call r9 ; (1 found)
0x4ab175: mov qword [rbp-0x000000B0], r10 ; call r9 ; (1 found)
0x4ab001: mov qword [rbp-0x000000B0], r10 ; call rax ; (1 found)
0x4aba76: mov qword [rbp-0x000000D0], r10 ; mov qword [rbp-0x000000A0], r11 ; call r9 ; (1 found)
0x4ab16e: mov qword [rbp-0x000000E8], r11 ; mov qword [rbp-0x000000B0], r10 ; call r9 ; (1 found)
0x485f20: mov qword [rbp-0x000000E8], r8 ; call rax ; (1 found)
0x418323: mov qword [rbp-0x000008A0], rsi ; call qword [r8+rcx*8-0x40] ; (1 found)
0x41831c: mov qword [rbp-0x000008A8], rax ; mov qword [rbp-0x000008A0], rsi ; call qword [r8+rcx*8-0x40] ; (1 found)
0x48c9ad: mov qword [rbp-0x000008B0], rsi ; call qword [r8+rcx*8-0x40] ; (1 found)
0x48c9a6: mov qword [rbp-0x000008C8], rax ; mov qword [rbp-0x000008B0], rsi ; call qword [r8+rcx*8-0x40] ; (1 found)
0x472d61: mov qword [rbx+0x10], 0x0000000000000000 ; pop rbx ; ret ; (1 found)
0x4b4928: mov qword [rbx+0x18], rax ; pop rbx ; ret ; (1 found)
0x4b4a6c: mov qword [rbx+0x20], rax ; pop rbx ; ret ; (2 found)
0x4b4bf1: mov qword [rbx], 0x0000000000000000 ; pop rbx ; ret ; (1 found)
0x4bb81a: mov qword [rcx], rdx ; ret ; (1 found)
0x4bb864: mov qword [rdi+0x00000098], rsi ; ret ; (1 found)
0x463c53: mov qword [rdi+0x00000460], rdx ; add rsp, 0x08 ; ret ; (1 found)
0x43d917: mov qword [rdi+0x01], rdx ; mov qword [rdi], rcx ; ret ; (2 found)
0x43d8a7: mov qword [rdi+0x02], rdx ; mov qword [rdi], rcx ; ret ; (2 found)
0x43d837: mov qword [rdi+0x03], rdx ; mov qword [rdi], rcx ; ret ; (2 found)
0x43d7c7: mov qword [rdi+0x04], rdx ; mov qword [rdi], rcx ; ret ; (2 found)
0x44da9a: mov qword [rdi+0x05], rdx ; lea rax, qword [rdi+0x0C] ; ret ; (1 found)
0x43d757: mov qword [rdi+0x05], rdx ; mov qword [rdi], rcx ; ret ; (2 found)
0x44d42a: mov qword [rdi+0x05], rdx ; ret ; (1 found)
0x44daba: mov qword [rdi+0x06], rdx ; lea rax, qword [rdi+0x0D] ; ret ; (1 found)
0x43d6e7: mov qword [rdi+0x06], rdx ; mov qword [rdi], rcx ; ret ; (2 found)
0x44d43a: mov qword [rdi+0x06], rdx ; ret ; (1 found)
0x44dada: mov qword [rdi+0x07], rdx ; lea rax, qword [rdi+0x0E] ; ret ; (1 found)
0x43d677: mov qword [rdi+0x07], rdx ; mov qword [rdi], rcx ; ret ; (2 found)
0x44d44a: mov qword [rdi+0x07], rdx ; ret ; (1 found)
0x47fa27: mov qword [rdi+0x08], r9 ; ret ; (1 found)
0x44db9c: mov qword [rdi+0x0E], rcx ; lea rax, qword [rdi+0x15] ; ret ; (1 found)
0x44d4dc: mov qword [rdi+0x0E], rcx ; ret ; (1 found)
0x44dbbc: mov qword [rdi+0x0F], rcx ; lea rax, qword [rdi+0x16] ; ret ; (1 found)
0x44d4fc: mov qword [rdi+0x0F], rcx ; ret ; (1 found)
0x47fa9e: mov qword [rdi+0x10], r9 ; ret ; (1 found)
0x44dbdc: mov qword [rdi+0x10], rcx ; lea rax, qword [rdi+0x17] ; ret ; (1 found)
0x44d53c: mov qword [rdi+0x10], rcx ; mov byte [rdi+0x18], dh ; ret ; (1 found)
0x44d51c: mov qword [rdi+0x10], rcx ; ret ; (1 found)
0x44d57f: mov qword [rdi+0x10], rdx ; mov  [rdi+0x17], ecx ; ret ; (1 found)
0x44d59f: mov qword [rdi+0x10], rdx ; mov  [rdi+0x18], ecx ; ret ; (1 found)
0x44d560: mov qword [rdi+0x10], rdx ; mov word [rdi+0x18], cx ; ret ; (1 found)
0x4aecf4: mov qword [rdi+0x18], rax ; mov qword [fs:0x000002F8], rdi ; ret ; (1 found)
0x4221a7: mov qword [rdi+0x48], rax ; movups  [rdi+0x08], xmm0 ; ret ; (1 found)
0x42216c: mov qword [rdi+0x48], rax ; movups  [rdi+0x08], xmm1 ; ret ; (1 found)
0x455dbb: mov qword [rdi+rdx-0x07], r9 ; lea rax, qword [rdi+rdx] ; ret ; (1 found)
0x456b7b: mov qword [rdi+rdx-0x07], r9 ; ret ; (1 found)
0x449e0b: mov qword [rdi+rdx-0x07], r9 ; vzeroupper ; ret ; (1 found)
0x4505eb: mov qword [rdi+rdx-0x08], rcx ; ret ; (5 found)
0x4bb820: mov qword [rdi+rsi*8], rdx ; ret ; (1 found)
0x47f90d: mov qword [rdi-0x08], r9 ; ret ; (1 found)
0x437558: mov qword [rdi-0x08], rcx ; ret ; (14 found)
0x437596: mov qword [rdi-0x08], rdx ; ret ; (142 found)
0x43770b: mov qword [rdi-0x09], r8 ; mov  [rdi-0x04], edx ; ret ; (2 found)
0x437753: mov qword [rdi-0x09], rcx ; mov  [rdi-0x04], edx ; ret ; (10 found)
0x437807: mov qword [rdi-0x09], rcx ; mov byte [rdi-0x01], dl ; ret ; (6 found)
0x43d1a7: mov qword [rdi-0x09], rdx ; mov  [rdi-0x04], ecx ; ret ; (2 found)
0x4378db: mov qword [rdi-0x0A], rcx ; mov  [rdi-0x04], edx ; ret ; (18 found)
0x43d127: mov qword [rdi-0x0A], rdx ; mov  [rdi-0x04], ecx ; ret ; (2 found)
0x437abb: mov qword [rdi-0x0B], rcx ; mov  [rdi-0x04], edx ; ret ; (18 found)
0x43d0a7: mov qword [rdi-0x0B], rdx ; mov  [rdi-0x04], ecx ; ret ; (2 found)
0x437cab: mov qword [rdi-0x0C], rcx ; mov  [rdi-0x04], edx ; ret ; (18 found)
0x43d027: mov qword [rdi-0x0C], rdx ; mov  [rdi-0x04], ecx ; ret ; (2 found)
0x437e7c: mov qword [rdi-0x0D], rcx ; mov qword [rdi-0x08], rdx ; ret ; (18 found)
0x43cf98: mov qword [rdi-0x0D], rdx ; mov qword [rdi-0x08], rcx ; ret ; (2 found)
0x43807c: mov qword [rdi-0x0E], rcx ; mov qword [rdi-0x08], rdx ; ret ; (18 found)
0x43cf08: mov qword [rdi-0x0E], rdx ; mov qword [rdi-0x08], rcx ; ret ; (2 found)
0x43827c: mov qword [rdi-0x0F], rcx ; mov qword [rdi-0x08], rdx ; ret ; (18 found)
0x43ce78: mov qword [rdi-0x0F], rdx ; mov qword [rdi-0x08], rcx ; ret ; (2 found)
0x437554: mov qword [rdi-0x10], r11 ; mov qword [rdi-0x08], rcx ; ret ; (4 found)
0x437592: mov qword [rdi-0x10], r11 ; mov qword [rdi-0x08], rdx ; ret ; (12 found)
0x47f98e: mov qword [rdi-0x10], r9 ; ret ; (1 found)
0x47f8dc: mov qword [rdi], r9 ; ret ; (2 found)
0x44da26: mov qword [rdi], rcx ; lea rax, qword [rdi+0x08] ; ret ; (1 found)
0x44d406: mov qword [rdi], rcx ; mov  [rdi+0x07], edx ; ret ; (1 found)
0x44d416: mov qword [rdi], rcx ; mov  [rdi+0x08], edx ; ret ; (1 found)
0x44d427: mov qword [rdi], rcx ; mov qword [rdi+0x05], rdx ; ret ; (1 found)
0x44d437: mov qword [rdi], rcx ; mov qword [rdi+0x06], rdx ; ret ; (1 found)
0x44d447: mov qword [rdi], rcx ; mov qword [rdi+0x07], rdx ; ret ; (1 found)
0x456b78: mov qword [rdi], rcx ; mov qword [rdi+rdx-0x07], r9 ; ret ; (1 found)
0x44d3f7: mov qword [rdi], rcx ; mov word [rdi+0x08], dx ; ret ; (1 found)
0x43d67b: mov qword [rdi], rcx ; ret ; (15 found)
0x44da13: mov qword [rdi], rdx ; lea rax, qword [rdi+0x07] ; ret ; (1 found)
0x43d983: mov qword [rdi], rdx ; ret ; (3 found)
0x440941: mov qword [rdi], rsi ; mov qword [r9-0x08], rcx ; ret ; (1 found)
0x4505e7: mov qword [rdi], rsi ; mov qword [rdi+rdx-0x08], rcx ; ret ; (10 found)
0x41f03c: mov qword [rdx+0x000000E0], rcx ; pop rbx ; ret ; (1 found)
0x41c20a: mov qword [rdx+0x000000E0], rcx ; ret ; (1 found)
0x44cfaa: mov qword [rdx+0x05], rax ; lea rax, qword [rdx+0x0C] ; ret ; (1 found)
0x44b79a: mov qword [rdx+0x05], rax ; mov rax, rdi ; ret ; (1 found)
0x44cfca: mov qword [rdx+0x06], rax ; lea rax, qword [rdx+0x0D] ; ret ; (1 found)
0x44b7ba: mov qword [rdx+0x06], rax ; mov rax, rdi ; ret ; (1 found)
0x44cfea: mov qword [rdx+0x07], rax ; lea rax, qword [rdx+0x0E] ; ret ; (1 found)
0x44b7da: mov qword [rdx+0x07], rax ; mov rax, rdi ; ret ; (1 found)
0x44ce7a: mov qword [rdx+0x08], rax ; lea rax, qword [rdx+0x0F] ; ret ; (1 found)
0x44b6ca: mov qword [rdx+0x08], rax ; mov rax, rdi ; ret ; (1 found)
0x464eba: mov qword [rdx+0x40], rcx ; mov byte [rdx+0x50], 0x01 ; ret ; (1 found)
0x44ce23: mov qword [rdx], rax ; lea rax, qword [rdx+0x07] ; ret ; (1 found)
0x44b673: mov qword [rdx], rax ; mov rax, rdi ; ret ; (1 found)
0x4b45f0: mov qword [rdx], rax ; pop rbx ; ret ; (1 found)
0x423cc8: mov qword [rdx], rax ; ret ; (3 found)
0x4b1629: mov qword [rdx], rcx ; mov qword [rax+0x10], 0x0000000000000000 ; ret ; (1 found)
0x4ae8e8: mov qword [rsi+0x08], rax ; mov eax, 0x00000002 ; ret ; (1 found)
0x405a7b: mov qword [rsi+0x10], rsi ; syscall ; (2 found)
0x4b07f0: mov qword [rsi+0x18], 0x0000000000000000 ; ret ; (1 found)
0x4b07e8: mov qword [rsi+0x18], rdx ; ret ; (1 found)
0x463dc5: mov qword [rsi], rax ; ret ; (1 found)
0x4a877c: mov qword [rsi], rcx ; mov rax, r8 ; ret ; (1 found)
0x4aee8a: mov qword [rsi], rdi ; mov qword [0x00000000004F9C48], 0x0000000000000000 ; ret ; (1 found)
0x4ae78a: mov qword [rsi], rdx ; ret ; (1 found)
0x405a79: mov qword [rsi], rsi ; mov qword [rsi+0x10], rsi ; syscall ; (1 found)
0x4a112e: mov qword [rsp+0x00000088], rdx ; mov qword [rsp+0x38], rdx ; call r12 ; (2 found)
0x4a0e9d: mov qword [rsp+0x000000D0], rax ; call r12 ; (1 found)
0x41d225: mov qword [rsp+0x08], rcx ; mov rdi, r15 ; call rax ; (2 found)
0x41f84e: mov qword [rsp+0x08], rcx ; mov rdi, rbp ; call rax ; (2 found)
0x4bdd3a: mov qword [rsp+0x10], rcx ; mov rsi, qword [rbx+rcx*8+0x10] ; call rbp ; (1 found)
0x4a1136: mov qword [rsp+0x38], rdx ; call r12 ; (2 found)
0x4841ca: mov qword [rsp-0x10], rax ; movdqa xmm0,  [rsp-0x18] ; ret ; (1 found)
0x4a1be4: mov r10, rcx ; mov eax, 0x00000011 ; syscall ; (1 found)
0x461264: mov r10, rcx ; mov eax, 0x00000028 ; syscall ; (1 found)
0x463594: mov r10, rcx ; mov eax, 0x00000036 ; syscall ; (1 found)
0x48dac6: mov r10d, 0x00000001 ; mov rdx, qword [r8+rdx*8] ; jmp rdx ; (1 found)
0x4759a6: mov r10d, 0x00000008 ; mov eax, 0x0000000D ; syscall ; (1 found)
0x460544: mov r10d, ecx ; mov eax, 0x00000106 ; syscall ; (1 found)
0x439ee5: mov r11, 0x8D49931463490008 ; adc al, 0x13 ; jmp rdx ; (1 found)
0x40bc14: mov r13, r15 ; add r15, r14 ; call rax ; (1 found)
0x475c17: mov r13, rax ; mov rdi, r12 ; call rbx ; (1 found)
0x461ee2: mov r13, rbx ; mov rdi, rbp ; call r12 ; (1 found)
0x4bbbfb: mov r15, qword [rbp-0x08] ; leave ; ret ; (3 found)
0x461fb2: mov r15d, r13d ; call rax ; (1 found)
0x463d4d: mov r8, qword [0x00000000004F4568] ; mov rax, r8 ; ret ; (1 found)
0x460a81: mov r8d, eax ; mov eax, 0x00000003 ; syscall ; (1 found)
0x4abbac: mov r9, qword [rbp-0x00000098] ; call r9 ; (1 found)
0x4ab2b9: mov r9, qword [rbp-0x000000B0] ; call r9 ; (1 found)
0x49237a: mov r9d, 0xFFFFFFFF ; mov eax, 0x000000CA ; syscall ; (1 found)
0x49ef70: mov rax, 0x0000000000000001 ; ret ; (1 found)
0x49ef80: mov rax, 0x0000000000000002 ; ret ; (1 found)
0x49ef90: mov rax, 0x0000000000000003 ; ret ; (1 found)
0x49efa0: mov rax, 0x0000000000000004 ; ret ; (1 found)
0x49efb0: mov rax, 0x0000000000000005 ; ret ; (1 found)
0x49efc0: mov rax, 0x0000000000000006 ; ret ; (1 found)
0x49efd0: mov rax, 0x0000000000000007 ; ret ; (1 found)
0x4758e0: mov rax, 0x000000000000000F ; syscall ; (1 found)
0x405bd4: mov rax, 0xFFFFFFFFFFFFFFA0 ; add rax, qword [fs:0x00000000] ; ret ; (1 found)
0x4756d4: mov rax, 0xFFFFFFFFFFFFFFE0 ; add rax, qword [fs:0x00000000] ; ret ; (1 found)
0x4756b4: mov rax, 0xFFFFFFFFFFFFFFE8 ; add rax, qword [fs:0x00000000] ; ret ; (1 found)
0x475694: mov rax, 0xFFFFFFFFFFFFFFF0 ; add rax, qword [fs:0x00000000] ; ret ; (1 found)
0x40b920: mov rax, 0xFFFFFFFFFFFFFFFF ; ret ; (16 found)
0x402323: mov rax, qword [0x00000000004F2200] ; leave ; ret ; (1 found)
0x424034: mov rax, qword [0x00000000004F2260] ; ret ; (1 found)
0x463dbe: mov rax, qword [0x00000000004F4538] ; mov qword [rsi], rax ; ret ; (1 found)
0x49de10: mov rax, qword [0x00000000004F9E80] ; ret ; (1 found)
0x49de20: mov rax, qword [0x00000000004F9E88] ; ret ; (1 found)
0x49de30: mov rax, qword [0x00000000004F9E90] ; ret ; (1 found)
0x49de40: mov rax, qword [0x00000000004F9E98] ; ret ; (1 found)
0x49de50: mov rax, qword [0x00000000004F9EA0] ; ret ; (1 found)
0x49de60: mov rax, qword [0x00000000004F9EA8] ; ret ; (1 found)
0x49de70: mov rax, qword [0x00000000004F9EB0] ; ret ; (1 found)
0x49de80: mov rax, qword [0x00000000004F9EB8] ; ret ; (1 found)
0x49de90: mov rax, qword [0x00000000004F9EC0] ; ret ; (1 found)
0x49dea0: mov rax, qword [0x00000000004F9EC8] ; ret ; (1 found)
0x49deb0: mov rax, qword [0x00000000004F9ED0] ; ret ; (1 found)
0x49de08: mov rax, qword [0x00000000004F9ED8] ; ret ; (1 found)
0x4688e4: mov rax, qword [0x00000000004F9F60] ; ret ; (1 found)
0x4688f4: mov rax, qword [0x00000000004F9F68] ; ret ; (1 found)
0x472534: mov rax, qword [0x00000000004F9FA8] ; ret ; (1 found)
0x4920ca: mov rax, qword [0x00000010] ; mov byte [rax+0x00000972], 0x00 ; ret ; (1 found)
0x425865: mov rax, qword [0x00000010] ; ret ; (1 found)
0x4920c9: mov rax, qword [fs:0x00000010] ; mov byte [rax+0x00000972], 0x00 ; ret ; (1 found)
0x425864: mov rax, qword [fs:0x00000010] ; ret ; (1 found)
0x47567e: mov rax, qword [fs:rax] ; mov rax, qword [rax+rdi*8+0x00000080] ; ret ; (1 found)
0x4910f4: mov rax, qword [rax+0x000000E0] ; call qword [rax+0x68] ; (1 found)
0x491229: mov rax, qword [rax+0x000000E0] ; mov esi, 0xFFFFFFFF ; call qword [rax+0x18] ; (1 found)
0x41d8dd: mov rax, qword [rax+0x000000E0] ; mov rax, qword [rax+0x20] ; jmp rax ; (1 found)
0x4ad9d4: mov rax, qword [rax+0x08] ; ret ; (1 found)
0x4ad9e4: mov rax, qword [rax+0x08] ; sub rax, qword [fs:0x00000000] ; ret ; (1 found)
0x41d8e4: mov rax, qword [rax+0x20] ; jmp rax ; (1 found)
0x475682: mov rax, qword [rax+rdi*8+0x00000080] ; ret ; (1 found)
0x41ad58: mov rax, qword [rax+rdi*8] ; ret ; (1 found)
0x47567f: mov rax, qword [rax] ; mov rax, qword [rax+rdi*8+0x00000080] ; ret ; (1 found)
0x4bb7c8: mov rax, qword [rax] ; ret ; (1 found)
0x401c3a: mov rax, qword [rbp-0x38] ; leave ; ret ; (1 found)
0x461fae: mov rax, qword [rbp-0x58] ; mov r15d, r13d ; call rax ; (1 found)
0x468278: mov rax, qword [rbp-0x68] ; mov rdi, r12 ; call rax ; (1 found)
0x4aa821: mov rax, qword [rbx+0x10] ; add rax, qword [r12+0x00] ; call rax ; (1 found)
0x4bb7d4: mov rax, qword [rdi+0x00000090] ; ret ; (1 found)
0x4bb834: mov rax, qword [rdi+0x00000098] ; ret ; (2 found)
0x4bb874: mov rax, qword [rdi+0x000000A0] ; ret ; (1 found)
0x4bb8d4: mov rax, qword [rdi+0x000000A8] ; ret ; (1 found)
0x4bb8c4: mov rax, qword [rdi+0x000000B0] ; ret ; (1 found)
0x4bb884: mov rax, qword [rdi+0x000000B8] ; ret ; (1 found)
0x424054: mov rax, qword [rdi+0x68] ; ret ; (1 found)
0x4920e4: mov rax, qword [rdi] ; mov  [0x00000000004F3BD0], eax ; ret ; (1 found)
0x4920f4: mov rax, qword [rdi] ; mov  [0x00000000004F3BD4], eax ; ret ; (1 found)
0x492104: mov rax, qword [rdi] ; mov  [0x00000000004F3BD8], eax ; ret ; (1 found)
0x492114: mov rax, qword [rdi] ; mov  [0x00000000004F3BDC], eax ; ret ; (1 found)
0x492434: mov rax, qword [rdi] ; mov  [0x00000000004F3BE0], eax ; ret ; (1 found)
0x492444: mov rax, qword [rdi] ; mov qword [0x00000000004F3BF0], rax ; ret ; (1 found)
0x423cc5: mov rax, qword [rdi] ; mov qword [rdx], rax ; ret ; (1 found)
0x4aed29: mov rax, qword [rdi] ; mov rdi, r8 ; jmp rax ; (1 found)
0x4b9045: mov rax, qword [rsp+0x00] ; add rsp, 0x38 ; ret ; (1 found)
0x40ba8a: mov rax, qword [rsp+0x00] ; call rax ; (2 found)
0x4bc433: mov rax, qword [rsp+0x00] ; mov  [rsp+0x08], ecx ; call rax ; (1 found)
0x460841: mov rax, qword [rsp+0x08] ; add rsp, 0x28 ; ret ; (3 found)
0x4034b3: mov rax, qword [rsp+0x08] ; call rax ; (1 found)
0x4708d5: mov rax, qword [rsp+0x10] ; call rax ; (2 found)
0x4655c9: mov rax, qword [rsp+0x10] ; mov rdi, qword [rsp+0x18] ; call rax ; (1 found)
0x461b02: mov rax, qword [rsp+0x10] ; mov rdi, rbp ; call rax ; (2 found)
0x46a7a1: mov rax, qword [rsp+0x18] ; call rax ; (5 found)
0x46a1e1: mov rax, qword [rsp+0x28] ; call rax ; (4 found)
0x4b08aa: mov rax, r10 ; add rsp, 0x28 ; ret ; (1 found)
0x405e88: mov rax, r12 ; pop r12 ; ret ; (7 found)
0x4032ba: mov rax, r8 ; pop rbx ; ret ; (1 found)
0x4574bb: mov rax, r8 ; ret ; (10 found)
0x4499e4: mov rax, r8 ; vzeroupper ; ret ; (6 found)
0x489cba: mov rax, r9 ; pop r14 ; ret ; (1 found)
0x424064: mov rax, rdi ; ret ; (20 found)
0x480054: mov rax, rdx ; pop rbx ; ret ; (1 found)
0x44a038: mov rax, rdx ; ret ; (7 found)
0x451cf0: mov rax, rdx ; vzeroupper ; ret ; (2 found)
0x47587e: mov rbp, r9 ; nop ; jmp rdx ; (1 found)
0x4a8c0b: mov rbp, rsp ; mov rsi, rbp ; syscall ; (1 found)
0x402921: mov rbx, qword [rbp-0x08] ; leave ; ret ; (1 found)
0x48dcd1: mov rbx, qword [rsp+0x00000090] ; jmp rdx ; (1 found)
0x4ad024: mov rbx, qword [rsp+0x00] ; add rsp, 0x18 ; jmp r11 ; (3 found)
0x4ac912: mov rbx, qword [rsp+0x00] ; add rsp, 0x30 ; jmp r11 ; (3 found)
0x4aca00: mov rbx, qword [rsp+0x00] ; add rsp, 0x30 ; ret ; (3 found)
0x48d9d0: mov rbx, rcx ; jmp rdx ; (9 found)
0x49373c: mov rbx, rdi ; mov rdi, qword [rdi+0x08] ; call qword [rbx] ; (1 found)
0x46556c: mov rcx, qword [rsp+0x10] ; mov rdi, qword [rsp+0x18] ; call rcx ; (1 found)
0x458958: mov rcx, r12 ; call rbx ; (1 found)
0x450795: mov rcx, rdx ; rep movsb ; ret ; (1 found)
0x4258de: mov rdi, qword [0x00000300] ; call 0x00000000 ; (2 found)
0x4258dd: mov rdi, qword [fs:0x00000300] ; call 0x00000000 ; (2 found)
0x461915: mov rdi, qword [r12+0x00] ; call rbx ; (5 found)
0x461973: mov rdi, qword [r13+0x00] ; call rbx ; (8 found)
0x49e167: mov rdi, qword [r13+0x00] ; movzx esi, bl ; call rbp ; (1 found)
0x4beefb: mov rdi, qword [r13+0x10] ; add rdi, rbp ; call r12 ; (1 found)
0x4618e2: mov rdi, qword [rbp+0x00] ; call rbx ; (3 found)
0x48af75: mov rdi, qword [rbp-0x000008B8] ; mov rdx, r14 ; call qword [r13+0x38] ; (1 found)
0x49373f: mov rdi, qword [rdi+0x08] ; call qword [rbx] ; (1 found)
0x4ac941: mov rdi, qword [rdi+0x28] ; call r11 ; (3 found)
0x401913: mov rdi, qword [rsp+0x08] ; call qword [rsp+0x00] ; (1 found)
0x476d73: mov rdi, qword [rsp+0x08] ; mov eax, 0x0000013E ; syscall ; (1 found)
0x460bc9: mov rdi, qword [rsp+0x10] ; mov eax, 0x0000004F ; syscall ; (1 found)
0x4655ce: mov rdi, qword [rsp+0x18] ; call rax ; (1 found)
0x465571: mov rdi, qword [rsp+0x18] ; call rcx ; (1 found)
0x4720f4: mov rdi, qword [rsp+0x38] ; call r15 ; (2 found)
0x472250: mov rdi, qword [rsp+0x38] ; lea r8, qword [rsp+0x000000A0] ; call r15 ; (2 found)
0x46d127: mov rdi, qword [rsp+0x48] ; call r14 ; (1 found)
0x4708d1: mov rdi, qword [rsp+0x48] ; mov rax, qword [rsp+0x10] ; call rax ; (1 found)
0x46f128: mov rdi, qword [rsp+0x48] ; mov rax, qword [rsp+0x18] ; call rax ; (1 found)
0x46e116: mov rdi, qword [rsp+0x48] ; mov rax, qword [rsp+0x28] ; call rax ; (1 found)
0x46c42e: mov rdi, qword [rsp+0x50] ; call r13 ; (3 found)
0x46bdb7: mov rdi, qword [rsp+0x50] ; mov rax, qword [rsp+0x18] ; call rax ; (2 found)
0x46a1db: mov rdi, qword [rsp+0x50] ; mov rax, qword [rsp+0x28] ; call rax ; (4 found)
0x46a79c: mov rdi, qword [rsp+0x58] ; mov rax, qword [rsp+0x18] ; call rax ; (2 found)
0x48d805: mov rdi, r12 ; call qword [r14+0x38] ; (2 found)
0x48df63: mov rdi, r12 ; call qword [r15+0x38] ; (1 found)
0x48e61c: mov rdi, r12 ; call qword [rax+0x38] ; (1 found)
0x48ce3c: mov rdi, r12 ; call qword [rbp+0x38] ; (1 found)
0x4228de: mov rdi, r12 ; call qword [rbx+0x18] ; (1 found)
0x48d316: mov rdi, r12 ; call qword [rbx+0x38] ; (1 found)
0x40ba0a: mov rdi, r12 ; call rax ; (4 found)
0x4bdc61: mov rdi, r12 ; call rbp ; (1 found)
0x475c1a: mov rdi, r12 ; call rbx ; (4 found)
0x485f1d: mov rdi, r12 ; mov qword [rbp-0x000000E8], r8 ; call rax ; (1 found)
0x475d43: mov rdi, r12 ; mov rdx, r14 ; call rbp ; (1 found)
0x4916ae: mov rdi, r13 ; call qword [r14+0x20] ; (1 found)
0x40c373: mov rdi, r13 ; call r15 ; (1 found)
0x475c56: mov rdi, r13 ; call rbx ; (1 found)
0x41e55b: mov rdi, r13 ; lea r9, qword [rsp+0x28] ; call rbp ; (2 found)
0x417914: mov rdi, r14 ; call qword [r12+0x38] ; (1 found)
0x416dee: mov rdi, r14 ; call qword [r13+0x38] ; (1 found)
0x416418: mov rdi, r14 ; call qword [rax+0x38] ; (2 found)
0x4172f7: mov rdi, r14 ; call qword [rcx+0x38] ; (2 found)
0x4bea90: mov rdi, r14 ; call rbp ; (1 found)
0x41d4b1: mov rdi, r15 ; call qword [r13+0x00000080] ; (1 found)
0x41d1d2: mov rdi, r15 ; call qword [r14+0x00000080] ; (2 found)
0x41d0ec: mov rdi, r15 ; call qword [r14+0x00000090] ; (1 found)
0x41c4b8: mov rdi, r15 ; call qword [r14+0x38] ; (2 found)
0x41d69f: mov rdi, r15 ; call qword [rbp+0x00000080] ; (1 found)
0x41c51e: mov rdi, r15 ; call qword [rbp+0x38] ; (2 found)
0x41d78e: mov rdi, r15 ; call qword [rbx+0x00000080] ; (1 found)
0x41d22b: mov rdi, r15 ; call rax ; (1 found)
0x41e7cc: mov rdi, r15 ; call rbx ; (1 found)
0x4bc45a: mov rdi, r15 ; mov rsi, qword [r14] ; call rax ; (1 found)
0x41f2be: mov rdi, r8 ; call qword [r15+0x18] ; (1 found)
0x41ce9d: mov rdi, r8 ; call qword [rax+0x18] ; (1 found)
0x4aed2c: mov rdi, r8 ; jmp rax ; (1 found)
0x4932cc: mov rdi, r8 ; mov eax, 0x000000CA ; syscall ; (2 found)
0x420650: mov rdi, rbp ; call qword [r12+0x00000090] ; (2 found)
0x4188cc: mov rdi, rbp ; call qword [r12+0x38] ; (1 found)
0x41fce1: mov rdi, rbp ; call qword [r13+0x00000090] ; (1 found)
0x419b63: mov rdi, rbp ; call qword [r13+0x38] ; (1 found)
0x41f43a: mov rdi, rbp ; call qword [r14+0x00000090] ; (1 found)
0x4203a0: mov rdi, rbp ; call qword [r14+0x18] ; (3 found)
0x41f8dc: mov rdi, rbp ; call qword [r15+0x00000080] ; (1 found)
0x418de6: mov rdi, rbp ; call qword [r15+0x38] ; (3 found)
0x41f804: mov rdi, rbp ; call qword [rax+0x00000080] ; (1 found)
0x41f696: mov rdi, rbp ; call qword [rax+0x00000090] ; (1 found)
0x420496: mov rdi, rbp ; call qword [rax+0x78] ; (1 found)
0x41bfad: mov rdi, rbp ; call qword [rbx+0x00000080] ; (4 found)
0x4216f1: mov rdi, rbp ; call qword [rbx+0x00000088] ; (2 found)
0x48fdbb: mov rdi, rbp ; call qword [rbx+0x00000090] ; (1 found)
0x41bc5c: mov rdi, rbp ; call qword [rbx+0x10] ; (1 found)
0x422457: mov rdi, rbp ; call qword [rbx+0x18] ; (2 found)
0x419430: mov rdi, rbp ; call qword [rbx+0x38] ; (2 found)
0x415ea6: mov rdi, rbp ; call qword [rcx+0x38] ; (4 found)
0x461ee5: mov rdi, rbp ; call r12 ; (1 found)
0x41f854: mov rdi, rbp ; call rax ; (2 found)
0x458ae7: mov rdi, rbp ; call rbx ; (2 found)
0x457f24: mov rdi, rbp ; lea r9, qword [rsp+0x30] ; call rbx ; (1 found)
0x4936a6: mov rdi, rbp ; mov eax, 0x000000CA ; syscall ; (1 found)
0x492874: mov rdi, rbp ; mov eax, r13d ; syscall ; (1 found)
0x493610: mov rdi, rbp ; mov eax, r8d ; syscall ; (1 found)
0x420457: mov rdi, rbp ; mov edx, 0x00000001 ; call qword [rax+0x00000080] ; (1 found)
0x45806f: mov rdi, rbp ; mov rsi, qword [rsp+0x18] ; call rbx ; (1 found)
0x41ff03: mov rdi, rbp ; sub r12, r14 ; call qword [r13+0x40] ; (1 found)
0x4617c4: mov rdi, rbp ; xor esi, esi ; call r12 ; (4 found)
0x4201fe: mov rdi, rbx ; call qword [r12+0x00000080] ; (1 found)
0x420e96: mov rdi, rbx ; call qword [r12+0x00000088] ; (1 found)
0x423c1b: mov rdi, rbx ; call qword [r12+0x18] ; (1 found)
0x420c6f: mov rdi, rbx ; call qword [r12+0x48] ; (1 found)
0x48ff67: mov rdi, rbx ; call qword [r13+0x38] ; (1 found)
0x422e3f: mov rdi, rbx ; call qword [r13+0x60] ; (1 found)
0x420d1a: mov rdi, rbx ; call qword [r14+0x00000080] ; (1 found)
0x423aeb: mov rdi, rbx ; call qword [r14+0x18] ; (1 found)
0x41ac2c: mov rdi, rbx ; call qword [r14+0x38] ; (2 found)
0x4aeba9: mov rdi, rbx ; call qword [r14+0x48] ; (1 found)
0x420d59: mov rdi, rbx ; call qword [r14+0x78] ; (1 found)
0x490141: mov rdi, rbx ; call qword [r15+0x38] ; (1 found)
0x41e01c: mov rdi, rbx ; call qword [rbp+0x00000080] ; (4 found)
0x4221f0: mov rdi, rbx ; call qword [rbp+0x18] ; (2 found)
0x422841: mov rdi, rbx ; call qword [rbp+0x20] ; (3 found)
0x423361: mov rdi, rbx ; call qword [rbp+0x30] ; (4 found)
0x41c144: mov rdi, rbx ; call qword [rbp+0x60] ; (2 found)
0x42278a: mov rdi, rbx ; call qword [rbp+0x68] ; (2 found)
0x420079: mov rdi, rbx ; call qword [rbp+0x70] ; (1 found)
0x42381a: mov rdi, rbx ; call qword [rcx+0x58] ; (1 found)
0x42353e: mov rdi, rbx ; call qword [rdx+0x18] ; (1 found)
0x4686fa: mov rdi, rbx ; call r12 ; (2 found)
0x468826: mov rdi, rbx ; call r14 ; (3 found)
0x467d29: mov rdi, rbx ; call r15 ; (1 found)
0x48f902: mov rdi, rbx ; call r8 ; (1 found)
0x41b501: mov rdi, rbx ; call rax ; (1 found)
0x468939: mov rdi, rbx ; call rbp ; (1 found)
0x464867: mov rdi, rbx ; mov eax, 0x0000014E ; syscall ; (1 found)
0x41f1b5: mov rdi, rbx ; sub rdx, rsi ; call qword [r12+0x70] ; (2 found)
0x41cb2c: mov rdi, rbx ; sub rdx, rsi ; call qword [rax+0x70] ; (2 found)
0x47565e: mov rdx, 0xFFFFFFFFFFFFFFE0 ; mov qword [fs:rdx], rax ; ret ; (1 found)
0x4af34d: mov rdx, qword [0x00000000004FA358] ; add word [rdx+rax*2], 0x0001 ; ret ; (1 found)
0x418b46: mov rdx, qword [r11+rdx*8] ; jmp rdx ; (3 found)
0x4bdc5e: mov rdx, qword [r14] ; mov rdi, r12 ; call rbp ; (1 found)
0x48d0ad: mov rdx, qword [r8+rdx*8] ; jmp rdx ; (3 found)
0x48dccd: mov rdx, qword [rbx+rdx*8] ; mov rbx, qword [rsp+0x00000090] ; jmp rdx ; (1 found)
0x48d9cc: mov rdx, qword [rbx+rdx*8] ; mov rbx, rcx ; jmp rdx ; (9 found)
0x419951: mov rdx, qword [rcx+rdx*8] ; jmp rdx ; (1 found)
0x463a2f: mov rdx, qword [rcx+rdx] ; mov qword [rax+0x08], rdx ; ret ; (1 found)
0x41c203: mov rdx, qword [rdi+0x000000A0] ; mov qword [rdx+0x000000E0], rcx ; ret ; (1 found)
0x419688: mov rdx, qword [rdi+rdx*8] ; jmp rdx ; (4 found)
0x4bc5d0: mov rdx, qword [rdx] ; mov qword [r8], rdx ; ret ; (2 found)
0x419646: mov rdx, qword [rsi+rdx*8] ; jmp rdx ; (5 found)
0x4376c0: mov rdx, qword [rsi-0x08] ; mov qword [rdi-0x08], rdx ; ret ; (4 found)
0x43d980: mov rdx, qword [rsi] ; mov qword [rdi], rdx ; ret ; (3 found)
0x4159a3: mov rdx, r12 ; call qword [r13+0x38] ; (1 found)
0x4a8e1a: mov rdx, r12 ; mov eax, 0x00000014 ; syscall ; (1 found)
0x416deb: mov rdx, r12 ; mov rdi, r14 ; call qword [r13+0x38] ; (1 found)
0x461869: mov rdx, r13 ; mov esi, 0x00000001 ; call r12 ; (2 found)
0x48c59f: mov rdx, r13 ; mov rsi, r10 ; call qword [r14+0x38] ; (1 found)
0x48a54b: mov rdx, r13 ; mov rsi, r10 ; call qword [r15+0x38] ; (1 found)
0x48b6c6: mov rdx, r13 ; mov rsi, r15 ; call qword [r14+0x38] ; (1 found)
0x48b9fd: mov rdx, r13 ; mov rsi, r15 ; call qword [rax+0x38] ; (1 found)
0x48af7c: mov rdx, r14 ; call qword [r13+0x38] ; (1 found)
0x475d46: mov rdx, r14 ; call rbp ; (1 found)
0x424fd9: mov rdx, r14 ; lea rsi, qword [0x00000000004C42A0] ; syscall ; (1 found)
0x40ba88: mov rdx, r14 ; mov rax, qword [rsp+0x00] ; call rax ; (1 found)
0x419b60: mov rdx, r15 ; mov rdi, rbp ; call qword [r13+0x38] ; (1 found)
0x41942d: mov rdx, r15 ; mov rdi, rbp ; call qword [rbx+0x38] ; (1 found)
0x47632f: mov rdx, rbp ; mov rdi, r12 ; call rbx ; (1 found)
0x475c2c: mov rdx, rbp ; mov rsi, r12 ; call rbx ; (1 found)
0x489b3f: mov rdx, rbx ; call qword [r13+0x38] ; (1 found)
0x48ce39: mov rdx, rbx ; mov rdi, r12 ; call qword [rbp+0x38] ; (1 found)
0x4188c9: mov rdx, rbx ; mov rdi, rbp ; call qword [r12+0x38] ; (1 found)
0x41c623: mov rdx, rbx ; mov rsi, r12 ; call qword [r13+0x38] ; (1 found)
0x4a1c40: mov rdx, rsp ; mov eax, 0x00000010 ; syscall ; (1 found)
0x462c9e: mov rdx, rsp ; mov eax, 0x000000CC ; syscall ; (1 found)
0x4bc45d: mov rsi, qword [r14] ; call rax ; (1 found)
0x4bdd3f: mov rsi, qword [rbx+rcx*8+0x10] ; call rbp ; (1 found)
0x4ac93d: mov rsi, qword [rdi+0x20] ; mov rdi, qword [rdi+0x28] ; call r11 ; (3 found)
0x458072: mov rsi, qword [rsp+0x18] ; call rbx ; (1 found)
0x4034ae: mov rsi, qword [rsp+0x18] ; mov rax, qword [rsp+0x08] ; call rax ; (1 found)
0x467a05: mov rsi, qword [rsp+0x18] ; xor r8d, r8d ; call rbx ; (1 found)
0x4720f0: mov rsi, qword [rsp+0x40] ; mov rdi, qword [rsp+0x38] ; call r15 ; (1 found)
0x46d122: mov rsi, qword [rsp+0x50] ; mov rdi, qword [rsp+0x48] ; call r14 ; (1 found)
0x46c429: mov rsi, qword [rsp+0x58] ; mov rdi, qword [rsp+0x50] ; call r13 ; (3 found)
0x48c5a2: mov rsi, r10 ; call qword [r14+0x38] ; (1 found)
0x48a54e: mov rsi, r10 ; call qword [r15+0x38] ; (1 found)
0x4190bc: mov rsi, r10 ; mov rdi, rbp ; call qword [r15+0x38] ; (1 found)
0x41a50f: mov rsi, r10 ; mov rdi, rbp ; call qword [rbx+0x38] ; (1 found)
0x417911: mov rsi, r11 ; mov rdi, r14 ; call qword [r12+0x38] ; (1 found)
0x4172f4: mov rsi, r11 ; mov rdi, r14 ; call qword [rcx+0x38] ; (1 found)
0x41c626: mov rsi, r12 ; call qword [r13+0x38] ; (1 found)
0x475c2f: mov rsi, r12 ; call rbx ; (1 found)
0x4b63c7: mov rsi, r12 ; mov edi, ebp ; call qword [rax] ; (2 found)
0x4b6383: mov rsi, r12 ; mov edi, ebp ; call rax ; (1 found)
0x475c53: mov rsi, r12 ; mov rdi, r13 ; call rbx ; (1 found)
0x417047: mov rsi, r12 ; mov rdi, r14 ; call qword [rax+0x38] ; (1 found)
0x4180bc: mov rsi, r12 ; mov rdi, r14 ; call qword [rcx+0x38] ; (1 found)
0x41f8d9: mov rsi, r12 ; mov rdi, rbp ; call qword [r15+0x00000080] ; (1 found)
0x415ea2: mov rsi, r12 ; mov rdi, rbp ; call qword [rcx+0x38] ; (6 found)
0x420d56: mov rsi, r12 ; mov rdi, rbx ; call qword [r14+0x78] ; (1 found)
0x404cf3: mov rsi, r13 ; mov edi, r12d ; call qword [r14+r15*8] ; (2 found)
0x4a0e9a: mov rsi, r13 ; mov qword [rsp+0x000000D0], rax ; call r12 ; (1 found)
0x40ba06: mov rsi, r13 ; mov rdi, r12 ; call rax ; (5 found)
0x416415: mov rsi, r13 ; mov rdi, r14 ; call qword [rax+0x38] ; (1 found)
0x41c4b5: mov rsi, r13 ; mov rdi, r15 ; call qword [r14+0x38] ; (2 found)
0x41c51b: mov rsi, r13 ; mov rdi, r15 ; call qword [rbp+0x38] ; (2 found)
0x41e7c9: mov rsi, r13 ; mov rdi, r15 ; call rbx ; (1 found)
0x420492: mov rsi, r13 ; mov rdi, rbp ; call qword [rax+0x78] ; (2 found)
0x4a0a4d: mov rsi, r13 ; mov rdi, rbp ; call rbx ; (1 found)
0x4bc308: mov rsi, r13 ; mov rdi, rbx ; call r14 ; (1 found)
0x475c6e: mov rsi, r14 ; mov rdi, r12 ; call rbx ; (2 found)
0x418e7e: mov rsi, r14 ; mov rdi, rbp ; call qword [r15+0x38] ; (1 found)
0x49013e: mov rsi, r14 ; mov rdi, rbx ; call qword [r15+0x38] ; (1 found)
0x420076: mov rsi, r14 ; mov rdi, rbx ; call qword [rbp+0x70] ; (1 found)
0x48b6c9: mov rsi, r15 ; call qword [r14+0x38] ; (1 found)
0x48ba00: mov rsi, r15 ; call qword [rax+0x38] ; (1 found)
0x48d312: mov rsi, r15 ; mov rdi, r12 ; call qword [rbx+0x38] ; (2 found)
0x4937c1: mov rsi, r8 ; mov eax, 0x0000000E ; syscall ; (1 found)
0x418de3: mov rsi, r8 ; mov rdi, rbp ; call qword [r15+0x38] ; (1 found)
0x48d802: mov rsi, rbp ; mov rdi, r12 ; call qword [r14+0x38] ; (2 found)
0x48df5f: mov rsi, rbp ; mov rdi, r12 ; call qword [r15+0x38] ; (2 found)
0x48e619: mov rsi, rbp ; mov rdi, r12 ; call qword [rax+0x38] ; (1 found)
0x41d3d9: mov rsi, rbp ; mov rdi, r15 ; call qword [r14+0x00000080] ; (1 found)
0x4201fb: mov rsi, rbp ; mov rdi, rbx ; call qword [r12+0x00000080] ; (1 found)
0x48ff64: mov rsi, rbp ; mov rdi, rbx ; call qword [r13+0x38] ; (1 found)
0x4aeba6: mov rsi, rbp ; mov rdi, rbx ; call qword [r14+0x48] ; (1 found)
0x4a8c0e: mov rsi, rbp ; syscall ; (1 found)
0x42064d: mov rsi, rsp ; mov rdi, rbp ; call qword [r12+0x00000090] ; (2 found)
0x41f437: mov rsi, rsp ; mov rdi, rbp ; call qword [r14+0x00000090] ; (1 found)
0x48fdb8: mov rsi, rsp ; mov rdi, rbp ; call qword [rbx+0x00000090] ; (1 found)
0x4bbda9: mov rsp, rcx ; pop rcx ; jmp rcx ; (4 found)
0x468304: mov seg?, cx ; jmp qword [rsi+0x0F] ; (1 found)
0x46cf3b: mov seg?, cx ; jmp qword [rsi-0x70] ; (1 found)
0x415368: mov seg?, di ; jmp qword [rsi+0x0F] ; (1 found)
0x4becf0: mov seg?, dx ; dec  [rax-0x7D] ; ret ; (1 found)
0x49417e: mov seg?, word [rax+rax] ; add byte [rax+0x0F], cl ; retn 0x66C3 ; (1 found)
0x43b99b: mov seg?, word [rdi+rdi*8-0x01] ; jmp qword [rsi+0x45] ; (4 found)
0x440969: mov word [r9-0x02], cx ; ret ; (1 found)
0x451c70: mov word [rax], di ; mov byte [rax+rdx-0x01], dil ; ret ; (3 found)
0x43dbb7: mov word [rdi+0x01], dx ; mov word [rdi], cx ; ret ; (2 found)
0x44d9e8: mov word [rdi+0x04], dx ; lea rax, qword [rdi+0x05] ; ret ; (1 found)
0x44d3b8: mov word [rdi+0x04], dx ; ret ; (1 found)
0x44da3a: mov word [rdi+0x08], dx ; lea rax, qword [rdi+0x09] ; ret ; (1 found)
0x44d3fa: mov word [rdi+0x08], dx ; ret ; (1 found)
0x44db1c: mov word [rdi+0x10], cx ; lea rax, qword [rdi+0x11] ; ret ; (1 found)
0x44d47c: mov word [rdi+0x10], cx ; ret ; (1 found)
0x44dc24: mov word [rdi+0x18], cx ; lea rax, qword [rdi+0x19] ; ret ; (1 found)
0x44d564: mov word [rdi+0x18], cx ; ret ; (1 found)
0x451373: mov word [rdi+rdx+0x02], si ; mov byte [rdi], cl ; ret ; (2 found)
0x4505c8: mov word [rdi+rdx-0x02], si ; mov byte [rdi], cl ; ret ; (3 found)
0x437c5c: mov word [rdi-0x02], cx ; ret ; (4 found)
0x437a74: mov word [rdi-0x02], dx ; ret ; (4 found)
0x437c58: mov word [rdi-0x03], dx ; mov word [rdi-0x02], cx ; ret ; (4 found)
0x456b43: mov word [rdi], cx ; mov byte [rdi+0x02], 0x00 ; ret ; (1 found)
0x44d383: mov word [rdi], cx ; mov byte [rdi+0x02], dh ; ret ; (1 found)
0x4502b6: mov word [rdi], cx ; mov word [rsi-0x02], cx ; ret ; (1 found)
0x43dbbb: mov word [rdi], cx ; ret ; (2 found)
0x44d9a3: mov word [rdi], dx ; lea rax, qword [rdi+0x01] ; ret ; (2 found)
0x43dc23: mov word [rdi], dx ; ret ; (4 found)
0x449dc3: mov word [rdi], dx ; vzeroupper ; ret ; (1 found)
0x440966: mov word [rdi], si ; mov word [r9-0x02], cx ; ret ; (1 found)
0x44cef8: mov word [rdx+0x04], ax ; lea rax, qword [rdx+0x05] ; ret ; (1 found)
0x44b738: mov word [rdx+0x04], ax ; mov rax, rdi ; ret ; (1 found)
0x44cea3: mov word [rdx], ax ; lea rax, qword [rdx+0x01] ; ret ; (1 found)
0x44b6f3: mov word [rdx], ax ; mov rax, rdi ; ret ; (1 found)
0x417d90: mov word [rsi+0x00], es ; add byte [rax+0x39], cl ; ret ; (1 found)
0x4502b9: mov word [rsi-0x02], cx ; ret ; (1 found)
0x48106b: mov word [rsp-0x10], si ; fld tword [rsp-0x18] ; ret ; (1 found)
0x4361e3: movaps  [rdi-0x10], xmm5 ; jmp r9 ; (30 found)
0x4361df: movaps  [rdi-0x20], xmm4 ; movaps  [rdi-0x10], xmm5 ; jmp r9 ; (30 found)
0x43628d: movaps  [rdi], xmm4 ; jmp r9 ; (30 found)
0x4a0983: movaps  [rsp+0x00], xmm3 ; call rbx ; (1 found)
0x4a0980: movd eax, mm3 ; movaps  [rsp+0x00], xmm3 ; call rbx ; (1 found)
0x481044: movd mm0, mm0 ; ret ; (1 found)
0x480ffe: movd mm0, mm6 ; ret ; (1 found)
0x480ffd: movd xmm0, xmm6 ; ret ; (1 found)
0x4841cf: movdqa xmm0,  [rsp-0x18] ; ret ; (1 found)
0x43dc7f: movdqu  [rdi+0x01], xmm0 ; movdqu  [rdi], xmm1 ; ret ; (2 found)
0x43dc0f: movdqu  [rdi+0x02], xmm0 ; movdqu  [rdi], xmm1 ; ret ; (2 found)
0x43db9f: movdqu  [rdi+0x03], xmm0 ; movdqu  [rdi], xmm1 ; ret ; (2 found)
0x43db2f: movdqu  [rdi+0x04], xmm0 ; movdqu  [rdi], xmm1 ; ret ; (2 found)
0x43dabf: movdqu  [rdi+0x05], xmm0 ; movdqu  [rdi], xmm1 ; ret ; (2 found)
0x43da4f: movdqu  [rdi+0x06], xmm0 ; movdqu  [rdi], xmm1 ; ret ; (2 found)
0x43d9df: movdqu  [rdi+0x07], xmm0 ; movdqu  [rdi], xmm1 ; ret ; (2 found)
0x43d96f: movdqu  [rdi+0x08], xmm0 ; movdqu  [rdi], xmm1 ; ret ; (2 found)
0x43d8ff: movdqu  [rdi+0x09], xmm0 ; movdqu  [rdi], xmm1 ; ret ; (2 found)
0x43d88f: movdqu  [rdi+0x0A], xmm0 ; movdqu  [rdi], xmm1 ; ret ; (2 found)
0x43d81f: movdqu  [rdi+0x0B], xmm0 ; movdqu  [rdi], xmm1 ; ret ; (2 found)
0x43d7af: movdqu  [rdi+0x0C], xmm0 ; movdqu  [rdi], xmm1 ; ret ; (2 found)
0x43d73f: movdqu  [rdi+0x0D], xmm0 ; movdqu  [rdi], xmm1 ; ret ; (2 found)
0x44dc7d: movdqu  [rdi+0x0D], xmm2 ; lea rax, qword [rdi+0x1C] ; ret ; (1 found)
0x44d5bd: movdqu  [rdi+0x0D], xmm2 ; ret ; (1 found)
0x43d6cf: movdqu  [rdi+0x0E], xmm0 ; movdqu  [rdi], xmm1 ; ret ; (2 found)
0x44dc9d: movdqu  [rdi+0x0E], xmm2 ; lea rax, qword [rdi+0x1D] ; ret ; (1 found)
0x44d5dd: movdqu  [rdi+0x0E], xmm2 ; ret ; (1 found)
0x43d65f: movdqu  [rdi+0x0F], xmm0 ; movdqu  [rdi], xmm1 ; ret ; (2 found)
0x44dcbd: movdqu  [rdi+0x0F], xmm2 ; lea rax, qword [rdi+0x1E] ; ret ; (1 found)
0x44d5fd: movdqu  [rdi+0x0F], xmm2 ; ret ; (1 found)
0x44dcdd: movdqu  [rdi+0x10], xmm2 ; lea rax, qword [rdi+0x1F] ; ret ; (1 found)
0x44d61d: movdqu  [rdi+0x10], xmm2 ; ret ; (1 found)
0x43cdeb: movdqu  [rdi-0x10], xmm0 ; ret ; (2 found)
0x43ce5b: movdqu  [rdi-0x10], xmm1 ; ret ; (30 found)
0x43d596: movdqu  [rdi-0x11], xmm0 ; movdqu  [rdi-0x10], xmm1 ; ret ; (2 found)
0x43d516: movdqu  [rdi-0x12], xmm0 ; movdqu  [rdi-0x10], xmm1 ; ret ; (2 found)
0x43d486: movdqu  [rdi-0x13], xmm0 ; movdqu  [rdi-0x10], xmm1 ; ret ; (2 found)
0x43d406: movdqu  [rdi-0x14], xmm0 ; movdqu  [rdi-0x10], xmm1 ; ret ; (2 found)
0x43d386: movdqu  [rdi-0x15], xmm0 ; movdqu  [rdi-0x10], xmm1 ; ret ; (2 found)
0x43d306: movdqu  [rdi-0x16], xmm0 ; movdqu  [rdi-0x10], xmm1 ; ret ; (2 found)
0x43d286: movdqu  [rdi-0x17], xmm0 ; movdqu  [rdi-0x10], xmm1 ; ret ; (2 found)
0x43d206: movdqu  [rdi-0x18], xmm0 ; movdqu  [rdi-0x10], xmm1 ; ret ; (2 found)
0x43d186: movdqu  [rdi-0x19], xmm0 ; movdqu  [rdi-0x10], xmm1 ; ret ; (2 found)
0x43d106: movdqu  [rdi-0x1A], xmm0 ; movdqu  [rdi-0x10], xmm1 ; ret ; (2 found)
0x43d086: movdqu  [rdi-0x1B], xmm0 ; movdqu  [rdi-0x10], xmm1 ; ret ; (2 found)
0x43d006: movdqu  [rdi-0x1C], xmm0 ; movdqu  [rdi-0x10], xmm1 ; ret ; (2 found)
0x43cf76: movdqu  [rdi-0x1D], xmm0 ; movdqu  [rdi-0x10], xmm1 ; ret ; (2 found)
0x43cee6: movdqu  [rdi-0x1E], xmm0 ; movdqu  [rdi-0x10], xmm1 ; ret ; (2 found)
0x43ce56: movdqu  [rdi-0x1F], xmm0 ; movdqu  [rdi-0x10], xmm1 ; ret ; (2 found)
0x44daf4: movdqu  [rdi], xmm0 ; lea rax, qword [rdi+0x0F] ; ret ; (1 found)
0x44d497: movdqu  [rdi], xmm0 ; mov  [rdi+0x0F], ecx ; ret ; (1 found)
0x44d4a7: movdqu  [rdi], xmm0 ; mov  [rdi+0x10], ecx ; ret ; (1 found)
0x44d464: movdqu  [rdi], xmm0 ; mov byte [rdi+0x10], dh ; ret ; (1 found)
0x44d4d8: movdqu  [rdi], xmm0 ; mov qword [rdi+0x0E], rcx ; ret ; (1 found)
0x44d4f8: movdqu  [rdi], xmm0 ; mov qword [rdi+0x0F], rcx ; ret ; (1 found)
0x44d518: movdqu  [rdi], xmm0 ; mov qword [rdi+0x10], rcx ; ret ; (1 found)
0x44d478: movdqu  [rdi], xmm0 ; mov word [rdi+0x10], cx ; ret ; (1 found)
0x44d5b9: movdqu  [rdi], xmm0 ; movdqu  [rdi+0x0D], xmm2 ; ret ; (1 found)
0x44d5d9: movdqu  [rdi], xmm0 ; movdqu  [rdi+0x0E], xmm2 ; ret ; (1 found)
0x44d5f9: movdqu  [rdi], xmm0 ; movdqu  [rdi+0x0F], xmm2 ; ret ; (1 found)
0x44d619: movdqu  [rdi], xmm0 ; movdqu  [rdi+0x10], xmm2 ; ret ; (1 found)
0x43d60a: movdqu  [rdi], xmm0 ; ret ; (3 found)
0x43d664: movdqu  [rdi], xmm1 ; ret ; (30 found)
0x44d450: movdqu xmm0,  [rsi] ; movdqu  [rdi], xmm0 ; ret ; (1 found)
0x4921fd: movhps xmm5, xmm7 ; jmp qword [rsi+0x2E] ; (1 found)
0x4a097f: movq eax, xmm3 ; movaps  [rsp+0x00], xmm3 ; call rbx ; (1 found)
0x481043: movq mm0, mm0 ; ret ; (1 found)
0x44d451: movq mm0, qword [rsi] ; movdqu  [rdi], xmm0 ; ret ; (1 found)
0x4841d0: movq mm0, qword [rsp-0x18] ; ret ; (1 found)
0x43dc80: movq qword [rdi+0x01], mm0 ; movdqu  [rdi], xmm1 ; ret ; (2 found)
0x43dc10: movq qword [rdi+0x02], mm0 ; movdqu  [rdi], xmm1 ; ret ; (2 found)
0x43dba0: movq qword [rdi+0x03], mm0 ; movdqu  [rdi], xmm1 ; ret ; (2 found)
0x43db30: movq qword [rdi+0x04], mm0 ; movdqu  [rdi], xmm1 ; ret ; (2 found)
0x43dac0: movq qword [rdi+0x05], mm0 ; movdqu  [rdi], xmm1 ; ret ; (2 found)
0x43da50: movq qword [rdi+0x06], mm0 ; movdqu  [rdi], xmm1 ; ret ; (2 found)
0x43d9e0: movq qword [rdi+0x07], mm0 ; movdqu  [rdi], xmm1 ; ret ; (2 found)
0x43d970: movq qword [rdi+0x08], mm0 ; movdqu  [rdi], xmm1 ; ret ; (2 found)
0x43d900: movq qword [rdi+0x09], mm0 ; movdqu  [rdi], xmm1 ; ret ; (2 found)
0x43d890: movq qword [rdi+0x0A], mm0 ; movdqu  [rdi], xmm1 ; ret ; (2 found)
0x43d820: movq qword [rdi+0x0B], mm0 ; movdqu  [rdi], xmm1 ; ret ; (2 found)
0x43d7b0: movq qword [rdi+0x0C], mm0 ; movdqu  [rdi], xmm1 ; ret ; (2 found)
0x43d740: movq qword [rdi+0x0D], mm0 ; movdqu  [rdi], xmm1 ; ret ; (2 found)
0x44dc7e: movq qword [rdi+0x0D], mm2 ; lea rax, qword [rdi+0x1C] ; ret ; (1 found)
0x44d5be: movq qword [rdi+0x0D], mm2 ; ret ; (1 found)
0x43d6d0: movq qword [rdi+0x0E], mm0 ; movdqu  [rdi], xmm1 ; ret ; (2 found)
0x44dc9e: movq qword [rdi+0x0E], mm2 ; lea rax, qword [rdi+0x1D] ; ret ; (1 found)
0x44d5de: movq qword [rdi+0x0E], mm2 ; ret ; (1 found)
0x43d660: movq qword [rdi+0x0F], mm0 ; movdqu  [rdi], xmm1 ; ret ; (2 found)
0x44dcbe: movq qword [rdi+0x0F], mm2 ; lea rax, qword [rdi+0x1E] ; ret ; (1 found)
0x44d5fe: movq qword [rdi+0x0F], mm2 ; ret ; (1 found)
0x44dcde: movq qword [rdi+0x10], mm2 ; lea rax, qword [rdi+0x1F] ; ret ; (1 found)
0x44d61e: movq qword [rdi+0x10], mm2 ; ret ; (1 found)
0x43cdec: movq qword [rdi-0x10], mm0 ; ret ; (2 found)
0x43ce5c: movq qword [rdi-0x10], mm1 ; ret ; (30 found)
0x43d597: movq qword [rdi-0x11], mm0 ; movdqu  [rdi-0x10], xmm1 ; ret ; (2 found)
0x43d517: movq qword [rdi-0x12], mm0 ; movdqu  [rdi-0x10], xmm1 ; ret ; (2 found)
0x43d487: movq qword [rdi-0x13], mm0 ; movdqu  [rdi-0x10], xmm1 ; ret ; (2 found)
0x43d407: movq qword [rdi-0x14], mm0 ; movdqu  [rdi-0x10], xmm1 ; ret ; (2 found)
0x43d387: movq qword [rdi-0x15], mm0 ; movdqu  [rdi-0x10], xmm1 ; ret ; (2 found)
0x43d307: movq qword [rdi-0x16], mm0 ; movdqu  [rdi-0x10], xmm1 ; ret ; (2 found)
0x43d287: movq qword [rdi-0x17], mm0 ; movdqu  [rdi-0x10], xmm1 ; ret ; (2 found)
0x43d207: movq qword [rdi-0x18], mm0 ; movdqu  [rdi-0x10], xmm1 ; ret ; (2 found)
0x43d187: movq qword [rdi-0x19], mm0 ; movdqu  [rdi-0x10], xmm1 ; ret ; (2 found)
0x43d107: movq qword [rdi-0x1A], mm0 ; movdqu  [rdi-0x10], xmm1 ; ret ; (2 found)
0x43d087: movq qword [rdi-0x1B], mm0 ; movdqu  [rdi-0x10], xmm1 ; ret ; (2 found)
0x43d007: movq qword [rdi-0x1C], mm0 ; movdqu  [rdi-0x10], xmm1 ; ret ; (2 found)
0x43cf77: movq qword [rdi-0x1D], mm0 ; movdqu  [rdi-0x10], xmm1 ; ret ; (2 found)
0x43cee7: movq qword [rdi-0x1E], mm0 ; movdqu  [rdi-0x10], xmm1 ; ret ; (2 found)
0x43ce57: movq qword [rdi-0x1F], mm0 ; movdqu  [rdi-0x10], xmm1 ; ret ; (2 found)
0x44daf5: movq qword [rdi], mm0 ; lea rax, qword [rdi+0x0F] ; ret ; (1 found)
0x44d498: movq qword [rdi], mm0 ; mov  [rdi+0x0F], ecx ; ret ; (1 found)
0x44d4a8: movq qword [rdi], mm0 ; mov  [rdi+0x10], ecx ; ret ; (1 found)
0x44d465: movq qword [rdi], mm0 ; mov byte [rdi+0x10], dh ; ret ; (1 found)
0x44d4d9: movq qword [rdi], mm0 ; mov qword [rdi+0x0E], rcx ; ret ; (1 found)
0x44d4f9: movq qword [rdi], mm0 ; mov qword [rdi+0x0F], rcx ; ret ; (1 found)
0x44d519: movq qword [rdi], mm0 ; mov qword [rdi+0x10], rcx ; ret ; (1 found)
0x44d479: movq qword [rdi], mm0 ; mov word [rdi+0x10], cx ; ret ; (1 found)
0x44d5ba: movq qword [rdi], mm0 ; movdqu  [rdi+0x0D], xmm2 ; ret ; (1 found)
0x44d5da: movq qword [rdi], mm0 ; movdqu  [rdi+0x0E], xmm2 ; ret ; (1 found)
0x44d5fa: movq qword [rdi], mm0 ; movdqu  [rdi+0x0F], xmm2 ; ret ; (1 found)
0x44d61a: movq qword [rdi], mm0 ; movdqu  [rdi+0x10], xmm2 ; ret ; (1 found)
0x43d60b: movq qword [rdi], mm0 ; ret ; (3 found)
0x43d665: movq qword [rdi], mm1 ; ret ; (30 found)
0x481042: movq xmm0, xmm0 ; ret ; (1 found)
0x45052e: movsb ; cld ; ret ; (1 found)
0x450520: movsb ; ret ; (2 found)
0x4be2b8: movsb ; retn 0x0003 ; (1 found)
0x451640: movsb ; vmovdqu64  [r8], zmm16 ; ret ; (2 found)
0x4bfb4c: movsd ; idiv bh ; ret ; (1 found)
0x47f942: movsd ; ret ; (2 found)
0x4b943c: movss xmm0,  [0x00000000004D7968] ; divss xmm0,  [0x00000000004DEEC0] ; ret ; (1 found)
0x4ad206: movsx eax, cl ; neg eax ; ret ; (1 found)
0x4ad289: movsx eax, dl ; sub eax, ecx ; ret ; (1 found)
0x463075: movsxd eax,  [rax] ; add byte [rax], al ; syscall ; (1 found)
0x4ac71f: movsxd eax,  [rax] ; add byte [rcx-0x77], cl ; ret ; (1 found)
0x4b9948: movsxd eax,  [rbp+rax*4+0x00] ; add rax, rbp ; jmp rax ; (1 found)
0x4666d9: movsxd eax,  [rbx+rax*4] ; add rax, rbx ; jmp rax ; (1 found)
0x403344: movsxd eax,  [rcx+rax*4] ; add rax, rcx ; jmp rax ; (16 found)
0x4aad31: movsxd eax,  [rcx+rbp*4] ; add rax, rcx ; jmp rax ; (1 found)
0x405e64: movsxd eax,  [rcx+rdx*4] ; add rax, rcx ; jmp rax ; (1 found)
0x4032a5: movsxd eax,  [rdi+rsi*4] ; add rax, rdi ; jmp rax ; (1 found)
0x421056: movsxd eax,  [rdx+rax*4] ; add rax, r10 ; jmp rax ; (6 found)
0x40dff5: movsxd eax,  [rdx+rax*4] ; add rax, rdx ; jmp rax ; (10 found)
0x45ff9c: movsxd eax,  [rdx+rbp*4] ; add rax, rdx ; jmp rax ; (3 found)
0x40e178: movsxd eax,  [rdx+rbx*4] ; add rax, rdx ; jmp rax ; (2 found)
0x49ddfb: movsxd eax,  [rdx+rdi*4] ; add rax, rdx ; jmp rax ; (1 found)
0x4ba24e: movsxd eax,  [rsi+rax*4] ; add rax, r14 ; jmp rax ; (1 found)
0x48f439: movsxd eax,  [rsi+rax*4] ; add rax, rsi ; jmp rax ; (1 found)
0x4ab56f: movsxd eax,  [rsi+rbp*4] ; add rax, rsi ; jmp rax ; (1 found)
0x4b9acc: movsxd eax,  [rsi+rcx*4] ; add rax, r14 ; jmp rax ; (1 found)
0x403313: movsxd eax,  [rsi+rdx*4] ; add rax, rsi ; jmp rax ; (1 found)
0x4500ef: movsxd eax, ecx ; ret ; (1 found)
0x489b3d: movsxd ebx, ebx ; mov rdx, rbx ; call qword [r13+0x38] ; (1 found)
0x43b25c: movsxd ecx,  [rbx+rcx*4] ; add r9, r11 ; jmp r9 ; (4 found)
0x435cac: movsxd ecx,  [rbx+rcx*4] ; lea r9, qword [r11+r9] ; jmp r9 ; (4 found)
0x44d21a: movsxd ecx,  [rbx+rdx*4] ; lea rcx, qword [r11+rcx] ; jmp rcx ; (16 found)
0x47496d: movsxd ecx,  [rdi+rcx*4] ; add rcx, rdi ; jmp rcx ; (1 found)
0x4166d0: movsxd ecx,  [rdx+rcx*4] ; add rcx, rdx ; jmp rcx ; (2 found)
0x42d5a2: movsxd ecx,  [rdx+rcx*4] ; lea r10, qword [r10+r9] ; jmp r10 ; (8 found)
0x4bae88: movsxd edx,  [rax+rdx*4] ; add rdx, r8 ; jmp rdx ; (1 found)
0x40b279: movsxd edx,  [rbx+rdx*4] ; add r10, r11 ; jmp r10 ; (1 found)
0x435d80: movsxd edx,  [rbx+rdx*4] ; lea rdx, qword [r11+rdx] ; jmp rdx ; (150 found)
0x4056af: movsxd edx,  [rcx+rdx*4] ; add rdx, rcx ; jmp rdx ; (4 found)
0x45c99f: movsxd edx,  [rdi+rdx*4] ; add rdx, rdi ; jmp rdx ; (1 found)
0x40c5d9: movsxd edx,  [rdi-0x3FCE0001] ; ret ; (1 found)
0x4ba4c1: movsxd edx,  [rsi+rdx*4] ; add rdx, r14 ; jmp rdx ; (1 found)
0x40afa3: movsxd edx,  [rsi+rdx*4] ; add rdx, rsi ; jmp rdx ; (3 found)
0x41ac2a: movsxd edx, ebp ; mov rdi, rbx ; call qword [r14+0x38] ; (2 found)
0x419827: movsxd edx, edx ; movzx edx, byte [rax+rdx] ; jmp qword [rcx+rdx*8] ; (2 found)
0x48f4d7: movsxd esi,  [rdi+rsi*4] ; add rsi, rdi ; jmp rsi ; (1 found)
0x44f5bc: movsxd esi, esi ; retn 0x7520 ; (1 found)
0x4bb61c: movsxd esi, esp ; call qword [rax+0x56415741] ; (1 found)
0x4bfa21: movsxd esi, esp ; jmp qword [rsi+0x2E] ; (1 found)
0x4159a1: movsxd esp, esp ; mov rdx, r12 ; call qword [r13+0x38] ; (1 found)
0x40b278: movsxd r10, qword [r11+r10*4] ; add r10, r11 ; jmp r10 ; (1 found)
0x4159a0: movsxd r12, r12 ; mov rdx, r12 ; call qword [r13+0x38] ; (1 found)
0x42d5a1: movsxd r9, qword [r10+r9*4] ; lea r10, qword [r10+r9] ; jmp r10 ; (8 found)
0x43b25b: movsxd r9, qword [r11+r9*4] ; add r9, r11 ; jmp r9 ; (4 found)
0x435cab: movsxd r9, qword [r11+r9*4] ; lea r9, qword [r11+r9] ; jmp r9 ; (4 found)
0x421055: movsxd rax, qword [r10+rax*4] ; add rax, r10 ; jmp rax ; (6 found)
0x4ba24d: movsxd rax, qword [r14+rax*4] ; add rax, r14 ; jmp rax ; (1 found)
0x4b9acb: movsxd rax, qword [r14+rcx*4] ; add rax, r14 ; jmp rax ; (1 found)
0x4b9947: movsxd rax, qword [rbp+rax*4+0x00] ; add rax, rbp ; jmp rax ; (1 found)
0x4666d8: movsxd rax, qword [rbx+rax*4] ; add rax, rbx ; jmp rax ; (1 found)
0x4aad30: movsxd rax, qword [rcx+r13*4] ; add rax, rcx ; jmp rax ; (1 found)
0x403343: movsxd rax, qword [rcx+r8*4] ; add rax, rcx ; jmp rax ; (1 found)
0x40787b: movsxd rax, qword [rcx+rax*4] ; add rax, rcx ; jmp rax ; (16 found)
0x405e63: movsxd rax, qword [rcx+rdx*4] ; add rax, rcx ; jmp rax ; (1 found)
0x4032a4: movsxd rax, qword [rdi+rsi*4] ; add rax, rdi ; jmp rax ; (1 found)
0x40dff4: movsxd rax, qword [rdx+rax*4] ; add rax, rdx ; jmp rax ; (10 found)
0x45ff9b: movsxd rax, qword [rdx+rbp*4] ; add rax, rdx ; jmp rax ; (3 found)
0x40e177: movsxd rax, qword [rdx+rbx*4] ; add rax, rdx ; jmp rax ; (2 found)
0x49ddfa: movsxd rax, qword [rdx+rdi*4] ; add rax, rdx ; jmp rax ; (1 found)
0x4ab56e: movsxd rax, qword [rsi+r13*4] ; add rax, rsi ; jmp rax ; (1 found)
0x48f438: movsxd rax, qword [rsi+rax*4] ; add rax, rsi ; jmp rax ; (1 found)
0x403312: movsxd rax, qword [rsi+rdx*4] ; add rax, rsi ; jmp rax ; (1 found)
0x4500ee: movsxd rax, rcx ; ret ; (1 found)
0x489b3c: movsxd rbx, rbx ; mov rdx, rbx ; call qword [r13+0x38] ; (1 found)
0x44d219: movsxd rcx, qword [r11+rdx*4] ; lea rcx, qword [r11+rcx] ; jmp rcx ; (16 found)
0x47496c: movsxd rcx, qword [rdi+r9*4] ; add rcx, rdi ; jmp rcx ; (1 found)
0x4166cf: movsxd rcx, qword [rdx+rcx*4] ; add rcx, rdx ; jmp rcx ; (2 found)
0x435d7f: movsxd rdx, qword [r11+rdx*4] ; lea rdx, qword [r11+rdx] ; jmp rdx ; (150 found)
0x4ba4c0: movsxd rdx, qword [r14+rdx*4] ; add rdx, r14 ; jmp rdx ; (1 found)
0x4bae87: movsxd rdx, qword [r8+rdx*4] ; add rdx, r8 ; jmp rdx ; (1 found)
0x4056ae: movsxd rdx, qword [rcx+rdx*4] ; add rdx, rcx ; jmp rdx ; (4 found)
0x45c99e: movsxd rdx, qword [rdi+rdx*4] ; add rdx, rdi ; jmp rdx ; (1 found)
0x40afa2: movsxd rdx, qword [rsi+rdx*4] ; add rdx, rsi ; jmp rdx ; (3 found)
0x41ac29: movsxd rdx, r13 ; mov rdi, rbx ; call qword [r14+0x38] ; (1 found)
0x48f2b4: movsxd rdx, rbp ; mov rdi, rbx ; call qword [r14+0x38] ; (1 found)
0x419826: movsxd rdx, rdx ; movzx edx, byte [rax+rdx] ; jmp qword [rcx+rdx*8] ; (2 found)
0x48f4d6: movsxd rsi, qword [rdi+rsi*4] ; add rsi, rdi ; jmp rsi ; (1 found)
0x464782: movups  [0x00000000004F9C60], xmm0 ; ret ; (1 found)
0x45f864: movups  [rax+0x000002D8], xmm0 ; mov eax, 0x00000111 ; syscall ; (1 found)
0x4ac3af: movups  [rax+0x00000300], xmm0 ; ret ; (1 found)
0x4ac3ff: movups  [rax+0x00000308], xmm0 ; ret ; (1 found)
0x4918ea: movups  [rax+0x40], xmm0 ; pop rbx ; ret ; (2 found)
0x451bab: movups  [rax+rdx-0x10], xmm0 ; ret ; (1 found)
0x451ba8: movups  [rax], xmm0 ; movups  [rax+rdx-0x10], xmm0 ; ret ; (1 found)
0x490ad1: movups  [rax], xmm0 ; ret ; (2 found)
0x490a96: movups  [rax], xmm1 ; ret ; (2 found)
0x464831: movups  [rbx+0x000002D8], xmm0 ; syscall ; (1 found)
0x41f3c5: movups  [rbx+0x08], xmm0 ; pop rbx ; ret ; (1 found)
0x41efc6: movups  [rbx+0x28], xmm0 ; pop rbx ; ret ; (2 found)
0x422295: movups  [rbx+0x48], xmm0 ; pop rbx ; ret ; (2 found)
0x4a224d: movups  [rbx], xmm0 ; pop rbx ; ret ; (1 found)
0x423260: movups  [rcx+0x40], xmm0 ; mov qword [rax+0x000000A8], 0x0000000000000000 ; ret ; (1 found)
0x45070b: movups  [rcx], xmm0 ; ret ; (1 found)
0x423069: movups  [rdi+0x000000A0], xmm0 ; ret ; (2 found)
0x4221a9: movups  [rdi+0x08], xmm0 ; ret ; (3 found)
0x42216e: movups  [rdi+0x08], xmm1 ; ret ; (3 found)
0x451c1f: movups  [rdi+0x20], xmm0 ; movups  [rdi+0x30], xmm0 ; ret ; (1 found)
0x451c23: movups  [rdi+0x30], xmm0 ; ret ; (1 found)
0x450776: movups  [rdi+0x30], xmm7 ; movups  [rdx+rdi-0x10], xmm8 ; ret ; (1 found)
0x451b2c: movups  [rdi+rdx-0x10], xmm0 ; movups  [rdi], xmm0 ; ret ; (1 found)
0x4504b6: movups  [rdi+rdx-0x10], xmm1 ; ret ; (2 found)
0x450602: movups  [rdi+rdx-0x10], xmm2 ; movups  [rdi+rdx-0x20], xmm3 ; ret ; (1 found)
0x450924: movups  [rdi+rdx-0x10], xmm3 ; ret ; (2 found)
0x45091f: movups  [rdi+rdx-0x20], xmm2 ; movups  [rdi+rdx-0x10], xmm3 ; ret ; (2 found)
0x450607: movups  [rdi+rdx-0x20], xmm3 ; ret ; (1 found)
0x450665: movups  [rdi+rdx-0x30], xmm6 ; movups  [rdi+rdx-0x40], xmm7 ; ret ; (1 found)
0x45066a: movups  [rdi+rdx-0x40], xmm7 ; ret ; (1 found)
0x451bb5: movups  [rdi-0x10], xmm0 ; ret ; (1 found)
0x451bb1: movups  [rdi-0x20], xmm0 ; movups  [rdi-0x10], xmm0 ; ret ; (1 found)
0x4504b3: movups  [rdi], xmm0 ; movups  [rdi+rdx-0x10], xmm1 ; ret ; (2 found)
0x451b31: movups  [rdi], xmm0 ; ret ; (1 found)
0x45077b: movups  [rdx+rdi-0x10], xmm0 ; ret ; (1 found)
0x45077a: movups  [rdx+rdi-0x10], xmm8 ; ret ; (1 found)
0x450708: movups  [rdx], xmm0 ; movups  [rcx], xmm0 ; ret ; (1 found)
0x450707: movups  [rdx], xmm8 ; movups  [rcx], xmm0 ; ret ; (1 found)
0x4b943d: movups xmm0,  [0x00000000004D7968] ; divss xmm0,  [0x00000000004DEEC0] ; ret ; (1 found)
0x4a1b25: movzx eax, al ; add rsp, 0x58 ; ret ; (1 found)
0x454dd8: movzx eax, byte [rax+0x60] ; sub eax, ecx ; ret ; (1 found)
0x424153: movzx eax, byte [rax] ; ret ; (1 found)
0x435430: movzx eax, byte [rdi+rax+0x20] ; sub eax, ecx ; ret ; (2 found)
0x454cc7: movzx eax, byte [rdi+rax+0x40] ; sub eax, ecx ; ret ; (2 found)
0x43546d: movzx eax, byte [rdi+rax-0x10] ; sub eax, ecx ; ret ; (1 found)
0x454e37: movzx eax, byte [rdi+rax-0x20] ; sub eax, ecx ; ret ; (1 found)
0x454e24: movzx eax, byte [rdi+rax-0x40] ; sub eax, ecx ; ret ; (1 found)
0x48ae86: movzx eax, byte [rdi+rax] ; jmp qword [rsi+rax*8] ; (1 found)
0x416cfc: movzx eax, byte [rdi+rax] ; lea rdi, qword [0x00000000004EE7C0] ; jmp qword [rdi+rax*8] ; (1 found)
0x43544f: movzx eax, byte [rdi+rax] ; sub eax, ecx ; ret ; (2 found)
0x42e938: movzx eax, byte [rdi+rdx] ; sub eax, ecx ; ret ; (5 found)
0x42e953: movzx eax, byte [rdi] ; sub eax, ecx ; ret ; (8 found)
0x454ca0: movzx ecx, byte [rsi+rcx+0x60] ; sub eax, ecx ; ret ; (1 found)
0x435bf8: movzx ecx, byte [rsi+rcx] ; sub eax, ecx ; ret ; (1 found)
0x435418: movzx ecx, byte [rsi] ; sub eax, ecx ; ret ; (1 found)
0x419829: movzx edx, byte [rax+rdx] ; jmp qword [rcx+rdx*8] ; (2 found)
0x48dbae: movzx edx, byte [rax+rdx] ; lea rsi, qword [0x00000000004EFAA0] ; jmp qword [rsi+rdx*8] ; (1 found)
0x48dc47: movzx edx, byte [rax+rdx] ; lea rsi, qword [0x00000000004EFBA0] ; jmp qword [rsi+rdx*8] ; (1 found)
0x418b42: movzx edx, byte [rax+rdx] ; mov rdx, qword [r11+rdx*8] ; jmp rdx ; (3 found)
0x41994d: movzx edx, byte [rax+rdx] ; mov rdx, qword [rcx+rdx*8] ; jmp rdx ; (1 found)
0x419684: movzx edx, byte [rax+rdx] ; mov rdx, qword [rdi+rdx*8] ; jmp rdx ; (4 found)
0x419642: movzx edx, byte [rax+rdx] ; mov rdx, qword [rsi+rdx*8] ; jmp rdx ; (5 found)
0x45666d: movzx edx, byte [rdx+rcx+0x40] ; sub eax, edx ; ret ; (2 found)
0x45657c: movzx edx, byte [rdx+rcx+0x60] ; sub eax, edx ; ret ; (1 found)
0x42eb11: movzx edx, byte [rdx+rcx] ; sub eax, edx ; ret ; (8 found)
0x45651e: movzx edx, byte [rdx+rdi+0x20] ; sub eax, edx ; ret ; (1 found)
0x45654d: movzx edx, byte [rdx+rdi+0x40] ; sub eax, edx ; ret ; (2 found)
0x456fd4: movzx edx, byte [rdx+rdi] ; sub eax, edx ; ret ; (2 found)
0x4333f8: movzx edx, byte [rsi+rcx] ; sub eax, edx ; ret ; (1 found)
0x456393: movzx edx, byte [rsi+rdx+0x20] ; sub eax, edx ; ret ; (1 found)
0x4563a3: movzx edx, byte [rsi+rdx+0x40] ; sub eax, edx ; ret ; (2 found)
0x4563b5: movzx edx, byte [rsi+rdx+0x60] ; sub eax, edx ; ret ; (1 found)
0x42e9a7: movzx edx, byte [rsi+rdx] ; sub eax, edx ; ret ; (8 found)
0x43d5b0: movzx edx, byte [rsi-0x01] ; mov byte [rdi-0x01], dl ; ret ; (2 found)
0x44f5cb: movzx edx, byte [rsi-0x09] ; sub eax, edx ; ret ; (2 found)
0x44f644: movzx edx, byte [rsi-0x0A] ; sub eax, edx ; ret ; (1 found)
0x44f634: movzx edx, byte [rsi-0x0B] ; sub eax, edx ; ret ; (1 found)
0x44f624: movzx edx, byte [rsi-0x0C] ; sub eax, edx ; ret ; (1 found)
0x44f612: movzx edx, byte [rsi-0x0D] ; sub eax, edx ; ret ; (3 found)
0x44f602: movzx edx, byte [rsi-0x0E] ; sub eax, edx ; ret ; (3 found)
0x44f5f4: movzx edx, byte [rsi-0x0F] ; sub eax, edx ; ret ; (1 found)
0x44f5e4: movzx edx, byte [rsi-0x10] ; sub eax, edx ; ret ; (1 found)
0x43dc90: movzx edx, byte [rsi] ; mov byte [rdi], dl ; ret ; (2 found)
0x434bf4: movzx edx, byte [rsi] ; sub eax, edx ; ret ; (1 found)
0x434c1a: movzx edx, dl ; sub eax, edx ; ret ; (1 found)
0x43d530: movzx edx, word [rsi-0x02] ; mov word [rdi-0x02], dx ; ret ; (2 found)
0x43dc20: movzx edx, word [rsi] ; mov word [rdi], dx ; ret ; (3 found)
0x49e16b: movzx esi, bl ; call rbp ; (1 found)
0x49227a: neg eax ; ret ; (3 found)
0x4bae8a: nop ; add rdx, r8 ; jmp rdx ; (1 found)
0x49338f: nop ; add rsp, 0x18 ; ret ; (2 found)
0x47cccf: nop ; clc ; jmp qword [rsi+0x66] ; (1 found)
0x475881: nop ; jmp rdx ; (1 found)
0x44e2ef: nop ; lea rax, qword [rdi+0x01] ; ret ; (1 found)
0x44e2df: nop ; lea rax, qword [rdi] ; ret ; (1 found)
0x401f7f: nop ; leave ; ret ; (1 found)
0x425bf7: nop ; mov  [0x00000000004F9414], eax ; ret ; (1 found)
0x491b8e: nop ; mov eax, 0xFFFFFFFF ; ret ; (2 found)
0x425907: nop ; mov qword [0x00000000004F2878], rax ; ret ; (1 found)
0x4258f7: nop ; mov qword [0x00000000004F2880], rax ; ret ; (1 found)
0x425960: nop ; mov qword [0x00000000004F28D8], rax ; ret ; (1 found)
0x425977: nop ; mov qword [0x00000000004F28E0], rax ; ret ; (1 found)
0x4bb81e: nop ; mov qword [rdi+rsi*8], rdx ; ret ; (2 found)
0x49ef6f: nop ; mov rax, 0x0000000000000001 ; ret ; (1 found)
0x401bb8: nop ; pop rbp ; ret ; (1 found)
0x44ffae: nop ; rep ret ; (2 found)
0x401abe: nop ; ret ; (9 found)
0x493f5f: nop ; retn 0xC031 ; (1 found)
0x41ad8e: nop ; xor eax, eax ; ret ; (14 found)
0x49eaae: nop ; xor rax, rax ; ret ; (2 found)
0x40c431: nop  [rax+0x00000000] ; call qword [rbx] ; (2 found)
0x4b3d91: nop  [rax+0x00000000] ; mov  [fs:0x00000048], r8d ; ret ; (1 found)
0x45e8e1: nop  [rax+0x00000000] ; mov eax, 0x000000E4 ; syscall ; (1 found)
0x4581f1: nop  [rax+0x00000000] ; pop rbp ; ret ; (1 found)
0x425cc9: nop  [rax+0x00000000] ; ret ; (5 found)
0x40b821: nop  [rax+0x00000000] ; xor eax, eax ; ret ; (4 found)
0x49ef3c: nop  [rax+0x00] ; add rax, 0x01 ; ret ; (1 found)
0x4b2a5c: nop  [rax+0x00] ; call rax ; (2 found)
0x46665c: nop  [rax+0x00] ; endbr64 ; ret ; (2 found)
0x4758dc: nop  [rax+0x00] ; mov rax, 0x000000000000000F ; syscall ; (1 found)
0x49de04: nop  [rax+0x00] ; mov rax, qword [0x00000000004F9ED8] ; ret ; (1 found)
0x42a164: nop  [rax+0x00] ; ret ; (4 found)
0x4352dc: nop  [rax+0x00] ; xor eax, eax ; ret ; (3 found)
0x49ef47: nop  [rax+rax+0x00000000] ; add rax, 0x03 ; ret ; (2 found)
0x4049d8: nop  [rax+rax+0x00000000] ; call qword [rbx+0x10] ; (1 found)
0x401a87: nop  [rax+rax+0x00000000] ; endbr64 ; ret ; (2 found)
0x44e2f7: nop  [rax+rax+0x00000000] ; lea rax, qword [rdi+0x02] ; ret ; (2 found)
0x44e307: nop  [rax+rax+0x00000000] ; lea rax, qword [rdi+0x03] ; ret ; (2 found)
0x44e317: nop  [rax+rax+0x00000000] ; lea rax, qword [rdi+0x04] ; ret ; (2 found)
0x44e327: nop  [rax+rax+0x00000000] ; lea rax, qword [rdi+0x05] ; ret ; (2 found)
0x44e337: nop  [rax+rax+0x00000000] ; lea rax, qword [rdi+0x06] ; ret ; (2 found)
0x44e347: nop  [rax+rax+0x00000000] ; lea rax, qword [rdi+0x08] ; ret ; (2 found)
0x44e357: nop  [rax+rax+0x00000000] ; lea rax, qword [rdi+0x09] ; ret ; (2 found)
0x44e367: nop  [rax+rax+0x00000000] ; lea rax, qword [rdi+0x0A] ; ret ; (2 found)
0x44e377: nop  [rax+rax+0x00000000] ; lea rax, qword [rdi+0x0B] ; ret ; (2 found)
0x44e387: nop  [rax+rax+0x00000000] ; lea rax, qword [rdi+0x0C] ; ret ; (2 found)
0x44e397: nop  [rax+rax+0x00000000] ; lea rax, qword [rdi+0x0D] ; ret ; (2 found)
0x44e3a7: nop  [rax+rax+0x00000000] ; lea rax, qword [rdi+0x0E] ; ret ; (2 found)
0x44d358: nop  [rax+rax+0x00000000] ; mov byte [rdi], dh ; ret ; (1 found)
0x41e6e8: nop  [rax+rax+0x00000000] ; mov eax, 0xFFFFFFFF ; ret ; (2 found)
0x45f8b8: nop  [rax+rax+0x00000000] ; mov eax, edx ; syscall ; (1 found)
0x49ef78: nop  [rax+rax+0x00000000] ; mov rax, 0x0000000000000002 ; ret ; (1 found)
0x49ef88: nop  [rax+rax+0x00000000] ; mov rax, 0x0000000000000003 ; ret ; (1 found)
0x49ef98: nop  [rax+rax+0x00000000] ; mov rax, 0x0000000000000004 ; ret ; (1 found)
0x49efa8: nop  [rax+rax+0x00000000] ; mov rax, 0x0000000000000005 ; ret ; (1 found)
0x49efb8: nop  [rax+rax+0x00000000] ; mov rax, 0x0000000000000006 ; ret ; (1 found)
0x49efc8: nop  [rax+rax+0x00000000] ; mov rax, 0x0000000000000007 ; ret ; (1 found)
0x49deb8: nop  [rax+rax+0x00000000] ; mov rax, 0xFFFFFFFFFFFFFFFF ; ret ; (1 found)
0x49de18: nop  [rax+rax+0x00000000] ; mov rax, qword [0x00000000004F9E88] ; ret ; (1 found)
0x49de28: nop  [rax+rax+0x00000000] ; mov rax, qword [0x00000000004F9E90] ; ret ; (1 found)
0x49de38: nop  [rax+rax+0x00000000] ; mov rax, qword [0x00000000004F9E98] ; ret ; (1 found)
0x49de48: nop  [rax+rax+0x00000000] ; mov rax, qword [0x00000000004F9EA0] ; ret ; (1 found)
0x49de58: nop  [rax+rax+0x00000000] ; mov rax, qword [0x00000000004F9EA8] ; ret ; (1 found)
0x49de68: nop  [rax+rax+0x00000000] ; mov rax, qword [0x00000000004F9EB0] ; ret ; (1 found)
0x49de78: nop  [rax+rax+0x00000000] ; mov rax, qword [0x00000000004F9EB8] ; ret ; (1 found)
0x49de88: nop  [rax+rax+0x00000000] ; mov rax, qword [0x00000000004F9EC0] ; ret ; (1 found)
0x49de98: nop  [rax+rax+0x00000000] ; mov rax, qword [0x00000000004F9EC8] ; ret ; (1 found)
0x49dea8: nop  [rax+rax+0x00000000] ; mov rax, qword [0x00000000004F9ED0] ; ret ; (1 found)
0x4b5068: nop  [rax+rax+0x00000000] ; mov rax, r8 ; ret ; (1 found)
0x492417: nop  [rax+rax+0x00000000] ; neg eax ; ret ; (2 found)
0x409d08: nop  [rax+rax+0x00000000] ; ret ; (10 found)
0x422a18: nop  [rax+rax+0x00000000] ; xor eax, eax ; ret ; (4 found)
0x44e118: nop  [rax+rax+0x00000000] ; xor rax, rax ; ret ; (3 found)
0x42401b: nop  [rax+rax+0x00] ; endbr64 ; ret ; (1 found)
0x492423: nop  [rax+rax+0x00] ; mov eax, 0x00000016 ; ret ; (1 found)
0x424f1b: nop  [rax+rax+0x00] ; mov eax, 0x000000BA ; syscall ; (2 found)
0x41f2fb: nop  [rax+rax+0x00] ; mov eax, 0xFFFFFFFF ; ret ; (3 found)
0x45f073: nop  [rax+rax+0x00] ; pop rbp ; ret ; (1 found)
0x401b43: nop  [rax+rax+0x00] ; ret ; (8 found)
0x41e29b: nop  [rax+rax+0x00] ; xor eax, eax ; ret ; (6 found)
0x403435: nop  [rax] ; call qword [rbp+rbx*8+0x00] ; (1 found)
0x4b2ccd: nop  [rax] ; call r13 ; (1 found)
0x4639dd: nop  [rax] ; endbr64 ; ret ; (1 found)
0x49227d: nop  [rax] ; mov eax, 0x00000016 ; ret ; (1 found)
0x4b07ed: nop  [rax] ; mov qword [rsi+0x18], 0x0000000000000000 ; ret ; (1 found)
0x4a1d35: nop  [rax] ; ret ; (2 found)
0x44ffbd: nop  [rax] ; xor eax, eax ; ret ; (2 found)
0x49ef45: nop word [rax+rax+0x00000000] ; add rax, 0x03 ; ret ; (2 found)
0x401a86: nop word [rax+rax+0x00000000] ; endbr64 ; ret ; (1 found)
0x44e2f5: nop word [rax+rax+0x00000000] ; lea rax, qword [rdi+0x02] ; ret ; (2 found)
0x44e305: nop word [rax+rax+0x00000000] ; lea rax, qword [rdi+0x03] ; ret ; (2 found)
0x44e315: nop word [rax+rax+0x00000000] ; lea rax, qword [rdi+0x04] ; ret ; (2 found)
0x44e325: nop word [rax+rax+0x00000000] ; lea rax, qword [rdi+0x05] ; ret ; (2 found)
0x44e335: nop word [rax+rax+0x00000000] ; lea rax, qword [rdi+0x06] ; ret ; (2 found)
0x44e345: nop word [rax+rax+0x00000000] ; lea rax, qword [rdi+0x08] ; ret ; (2 found)
0x44e355: nop word [rax+rax+0x00000000] ; lea rax, qword [rdi+0x09] ; ret ; (2 found)
0x44e365: nop word [rax+rax+0x00000000] ; lea rax, qword [rdi+0x0A] ; ret ; (2 found)
0x44e375: nop word [rax+rax+0x00000000] ; lea rax, qword [rdi+0x0B] ; ret ; (2 found)
0x44e385: nop word [rax+rax+0x00000000] ; lea rax, qword [rdi+0x0C] ; ret ; (2 found)
0x44e395: nop word [rax+rax+0x00000000] ; lea rax, qword [rdi+0x0D] ; ret ; (2 found)
0x44e3a5: nop word [rax+rax+0x00000000] ; lea rax, qword [rdi+0x0E] ; ret ; (2 found)
0x44d357: nop word [rax+rax+0x00000000] ; mov byte [rdi], dh ; ret ; (1 found)
0x423db7: nop word [rax+rax+0x00000000] ; mov eax, 0xFFFFFFFF ; ret ; (1 found)
0x45f8b7: nop word [rax+rax+0x00000000] ; mov eax, edx ; syscall ; (1 found)
0x4b5067: nop word [rax+rax+0x00000000] ; mov rax, r8 ; ret ; (1 found)
0x492416: nop word [rax+rax+0x00000000] ; neg eax ; ret ; (1 found)
0x465376: nop word [rax+rax+0x00000000] ; ret ; (6 found)
0x457197: nop word [rax+rax+0x00000000] ; xor eax, eax ; ret ; (2 found)
0x49ef55: nop word [rax+rax+0x00000000] ; xor rax, rax ; ret ; (2 found)
0x42401a: nop word [rax+rax+0x00] ; endbr64 ; ret ; (1 found)
0x424f1a: nop word [rax+rax+0x00] ; mov eax, 0x000000BA ; syscall ; (2 found)
0x41f2fa: nop word [rax+rax+0x00] ; mov eax, 0xFFFFFFFF ; ret ; (1 found)
0x45f072: nop word [rax+rax+0x00] ; pop rbp ; ret ; (1 found)
0x4626aa: nop word [rax+rax+0x00] ; ret ; (3 found)
0x41e29a: nop word [rax+rax+0x00] ; xor eax, eax ; ret ; (2 found)
0x492743: not esi ; and esi, 0x00000080 ; syscall ; (1 found)
0x4666db: or  [rax+0x01], 0xFFFFFFD8 ; jmp rax ; (1 found)
0x40b718: or  [rax+rax*8-0x38B78D8C], eax ; retn 0xFFF0 ; (2 found)
0x449f3e: or  [rax-0x01], ecx ; retn 0xC148 ; (2 found)
0x45bc13: or  [rax-0x7D], ecx ; ret ; (2 found)
0x475006: or  [rax-0x7D], ecx ; retn 0x4101 ; (1 found)
0x40cccf: or  [rax-0x7D], ecx ; retn 0x4801 ; (2 found)
0x472482: or  [rax], eax ; add byte [rax-0x77], cl ; retn 0x8948 ; (1 found)
0x433937: or  [rax], eax ; add byte [rax-0x7D], cl ; retn 0x4910 ; (3 found)
0x447aff: or  [rax], eax ; add byte [rax-0x7D], cl ; retn 0xE910 ; (2 found)
0x433875: or  [rax], eax ; add byte [rax-0x7D], cl ; retn 0xEB10 ; (1 found)
0x4920d5: or  [rax], eax ; add byte [rax], al ; ret ; (1 found)
0x4616c1: or  [rax], eax ; add byte [rax], al ; syscall ; (1 found)
0x424ba9: or  [rax], eax ; add byte [rbx+0x077401F8], al ; ret ; (1 found)
0x463ac8: or  [rax], eax ; lea rax, qword [0x00000000004F9BE8] ; ret ; (1 found)
0x424e6e: or  [rax], eax ; mov eax, 0x0000000E ; syscall ; (1 found)
0x463dc3: or  [rax], eax ; mov qword [rsi], rax ; ret ; (1 found)
0x463d52: or  [rax], eax ; mov rax, r8 ; ret ; (1 found)
0x467244: or  [rax], eax ; or al, 0x5B ; ret ; (1 found)
0x467161: or  [rax], eax ; pop rbx ; ret ; (2 found)
0x463a97: or  [rax], eax ; ret ; (7 found)
0x424fe0: or  [rax], eax ; syscall ; (2 found)
0x427df3: or  [rbx+0x3948000C], ebp ; ret ; (1 found)
0x48970f: or  [rbx-0x76BEF791], ecx ; ret ; (2 found)
0x49209c: or  [rcx+0x00000308], 0x10 ; mov rdi, qword [fs:0x00000300] ; call 0x00000000 ; (1 found)
0x415094: or  [rcx-0x39], 0xFFFFA0C2 ; jmp qword [rcx+rax*2-0x75] ; (1 found)
0x401ab6: or  [rdi+0x004F3C00], edi ; jmp rax ; (1 found)
0x4842ab: or  [rdi-0x2E], esi ; mov rax, r8 ; ret ; (1 found)
0x43628c: or  [rdi], ecx ; sub  [rdi], esp ; jmp r9 ; (30 found)
0x4b3d83: or  [rdi], edx ; sti ; jmp qword [rsi+0x0F] ; (1 found)
0x4258d6: or  [rdx+0x00000308], 0x10 ; mov rdi, qword [fs:0x00000300] ; call 0x00000000 ; (1 found)
0x45bde3: or  [rdx+0x03], esp ; add byte [rax+0x39], cl ; ret ; (1 found)
0x417e44: or  [rdx-0x04], 0x69E9FFFF ; out 0xFF, al ; jmp qword [rsi-0x70] ; (1 found)
0x458197: or al, 0x00 ; add byte [rax-0x468AFB1B], al ; ret ; (1 found)
0x433577: or al, 0x00 ; add byte [rax-0x7D], cl ; retn 0x4910 ; (5 found)
0x44785e: or al, 0x00 ; add byte [rax-0x7D], cl ; retn 0xE910 ; (4 found)
0x4335a5: or al, 0x00 ; add byte [rax-0x7D], cl ; retn 0xEB10 ; (1 found)
0x461555: or al, 0x00 ; add byte [rax], al ; syscall ; (1 found)
0x429bb8: or al, 0x00 ; add byte [rbp+0x03], dh ; ret ; (1 found)
0x42cf84: or al, 0x00 ; add dh, byte [rdi+rax*2-0x0A] ; retn 0x7520 ; (3 found)
0x424039: or al, 0x00 ; ret ; (10 found)
0x435cb1: or al, 0x0B ; jmp r9 ; (4 found)
0x44d21f: or al, 0x0B ; jmp rcx ; (16 found)
0x435bfa: or al, 0x0E ; sub eax, ecx ; ret ; (1 found)
0x416655: or al, 0x13 ; add rdx, r12 ; call qword [r10+rax*8] ; (2 found)
0x429b8b: or al, 0x48 ; add esp, 0x08 ; ret ; (1 found)
0x460aa2: or al, 0x48 ; add esp, 0x18 ; ret ; (1 found)
0x4634f6: or al, 0x48 ; add esp, 0x28 ; ret ; (1 found)
0x467246: or al, 0x5B ; ret ; (1 found)
0x45f99b: or al, 0x5D ; pop r12 ; ret ; (1 found)
0x461348: or al, 0x75 ; retn 0xD8F7 ; (1 found)
0x4169d4: or al, 0x83 ; ret ; (2 found)
0x4862ea: or al, 0x89 ; sal dh, 1 ; retn 0x0F40 ; (1 found)
0x4166d1: or al, 0x8A ; add rcx, rdx ; jmp rcx ; (2 found)
0x42d5a3: or al, 0x8A ; lea r10, qword [r10+r9] ; jmp r10 ; (8 found)
0x43b25d: or al, 0x8B ; add r9, r11 ; jmp r9 ; (4 found)
0x435cad: or al, 0x8B ; lea r9, qword [r11+r9] ; jmp r9 ; (4 found)
0x4636d7: or al, 0x8E ; add eax,  [rcx+rdx] ; ret ; (1 found)
0x47496e: or al, 0x8F ; add rcx, rdi ; jmp rcx ; (1 found)
0x44d21b: or al, 0x93 ; lea rcx, qword [r11+rcx] ; jmp rcx ; (16 found)
0x42339c: or al, 0xEB ; retn 0xF390 ; (1 found)
0x43d7b2: or al, 0xF3 ; movq qword [rdi], mm1 ; ret ; (4 found)
0x42552d: or al, 0xF6 ; retn 0x7501 ; (2 found)
0x484cd9: or al, 0xF6 ; retn 0x7540 ; (1 found)
0x49df21: or al, byte [rax] ; add byte [rax+0x0F], cl ; retn 0x0FC3 ; (1 found)
0x45816a: or al, byte [rax] ; add byte [rax+0x0F], cl ; retn 0x66C3 ; (1 found)
0x4133eb: or al, byte [rax] ; add byte [rax-0x7D], cl ; ret ; (1 found)
0x433757: or al, byte [rax] ; add byte [rax-0x7D], cl ; retn 0x4910 ; (6 found)
0x4463e1: or al, byte [rax] ; add byte [rax-0x7D], cl ; retn 0xE910 ; (3 found)
0x433785: or al, byte [rax] ; add byte [rax-0x7D], cl ; retn 0xEB10 ; (1 found)
0x461745: or al, byte [rax] ; add byte [rax], al ; syscall ; (1 found)
0x41ad88: or al, byte [rax] ; add rax, rdx ; ret ; (1 found)
0x46dc42: or al, byte [rdx+0x00] ; add byte [rcx-0x77], al ; retn 0x5A58 ; (1 found)
0x427bf7: or al, ch ; ret ; (1 found)
0x4a70d8: or al, ch ; xchg eax, edx ; ret ; (1 found)
0x42d5a8: or bh, byte [rsi] ; jmp r10 ; (13 found)
0x42ce94: or bh, dh ; retn 0x0000 ; (1 found)
0x4aa35e: or bl, al ; mov eax, 0xFFFFFFFF ; ret ; (1 found)
0x43d973: or bl, dh ; movq qword [rdi], mm1 ; ret ; (2 found)
0x4671b0: or byte [0x00000000004F9EE0], 0x03 ; pop rbx ; ret ; (1 found)
0x467240: or byte [0x00000000004F9EE0], 0x0C ; pop rbx ; ret ; (1 found)
0x4ab2f7: or byte [0xFFFFFFFF83939171], ah ; ret ; (1 found)
0x420246: or byte [r11+0x5D], bl ; pop r12 ; ret ; (1 found)
0x459c65: or byte [r8+0x39], r9L ; ret ; (3 found)
0x422388: or byte [r8+0x39], r9L ; retn 0x870F ; (1 found)
0x48f620: or byte [r8-0x77], cl ; retn 0x008B ; (1 found)
0x48ae46: or byte [r8-0x77], r9L ; or cl, r13L ; retn 0xFFFE ; (1 found)
0x4a3842: or byte [r8-0x7B], cl ; sal byte [rdi+0x48], 0x89 ; ret ; (1 found)
0x4a3705: or byte [r8-0x7D], cl ; ret ; (1 found)
0x49cc72: or byte [r8], al ; add byte [rax-0x7D], cl ; retn 0xE910 ; (1 found)
0x44b787: or byte [r9-0x76B7F7BE], cl ; clc ; ret ; (1 found)
0x4608c7: or byte [rax+0x00000001], bh ; syscall ; (1 found)
0x4ae8eb: or byte [rax+0x00000002], bh ; ret ; (1 found)
0x4ae8ea: or byte [rax+0x00000002], r15L ; ret ; (1 found)
0x460a0f: or byte [rax+0x00000048], bh ; syscall ; (1 found)
0x476d77: or byte [rax+0x0000013E], bh ; syscall ; (1 found)
0x448d97: or byte [rax+0x01], 0xF8 ; vzeroupper ; ret ; (1 found)
0x4946c7: or byte [rax+0x0F], cl ; ret ; (1 found)
0x428dbd: or byte [rax+0x39], cl ; ret ; (5 found)
0x4a7cf4: or byte [rax+0x39], cl ; retn 0x2074 ; (1 found)
0x422389: or byte [rax+0x39], cl ; retn 0x870F ; (1 found)
0x425919: or byte [rax+rax], al ; add byte [rsi+0x01], dh ; ret ; (1 found)
0x461bff: or byte [rax-0x09], cl ; retn 0xFFFE ; (1 found)
0x477247: or byte [rax-0x39], cl ; ret ; (3 found)
0x4659a2: or byte [rax-0x75], cl ; adc byte [rax-0x7D], cl ; retn 0x8310 ; (6 found)
0x4259cb: or byte [rax-0x75], cl ; adc byte [rcx-0x7D], al ; ret ; (1 found)
0x41edb3: or byte [rax-0x75], cl ; xor ecx,  [rax-0x7D] ; ret ; (1 found)
0x44b6cc: or byte [rax-0x77], cl ; clc ; ret ; (4 found)
0x48ce38: or byte [rax-0x77], cl ; fimul  [rcx+rcx*4-0x19] ; call qword [rbp+0x38] ; (1 found)
0x4aee89: or byte [rax-0x77], cl ; mov qword [0x00000000004F9C48], 0x0000000000000000 ; ret ; (1 found)
0x48e5ae: or byte [rax-0x77], cl ; or cl, r13L ; ret ; (2 found)
0x48ae47: or byte [rax-0x77], cl ; or cl, r13L ; retn 0xFFFE ; (1 found)
0x41f853: or byte [rax-0x77], cl ; out dx, eax ; call rax ; (1 found)
0x4bc4cd: or byte [rax-0x77], cl ; ret ; (2 found)
0x48f621: or byte [rax-0x77], cl ; retn 0x008B ; (1 found)
0x41d234: or byte [rax-0x77], cl ; retn 0x3948 ; (1 found)
0x4a3843: or byte [rax-0x7B], cl ; sal byte [rdi+0x48], 0x89 ; ret ; (1 found)
0x40736a: or byte [rax-0x7D], cl ; ret ; (10 found)
0x41b009: or byte [rax-0x7D], cl ; retn 0x0F01 ; (2 found)
0x46588a: or byte [rax-0x7D], cl ; retn 0x4110 ; (10 found)
0x47709d: or byte [rax-0x7D], cl ; retn 0x4801 ; (4 found)
0x4af894: or byte [rax-0x7D], cl ; retn 0x4808 ; (3 found)
0x4b51e1: or byte [rax-0x7D], cl ; retn 0x4918 ; (1 found)
0x4b50ad: or byte [rax-0x7D], cl ; retn 0x4C08 ; (1 found)
0x48de3a: or byte [rax-0x7D], cl ; retn 0x8D08 ; (1 found)
0x4658d9: or byte [rax-0x7D], cl ; retn 0xBB10 ; (2 found)
0x465862: or byte [rax-0x7D], cl ; retn 0xBD10 ; (2 found)
0x46597a: or byte [rax-0x7D], cl ; retn 0xC610 ; (6 found)
0x4ac401: or byte [rax], 0x03 ; add byte [rax], al ; ret ; (1 found)
0x494118: or byte [rax], al ; add byte [rax+0x0F], cl ; retn 0x81C3 ; (1 found)
0x433a27: or byte [rax], al ; add byte [rax-0x7D], cl ; retn 0x4910 ; (4 found)
0x446581: or byte [rax], al ; add byte [rax-0x7D], cl ; retn 0xE910 ; (4 found)
0x433965: or byte [rax], al ; add byte [rax-0x7D], cl ; retn 0xEB10 ; (1 found)
0x460925: or byte [rax], al ; add byte [rax], al ; syscall ; (1 found)
0x48de35: or byte [rax], al ; add byte [rbx-0x7CB7F7A6], cl ; retn 0x8D08 ; (1 found)
0x46738e: or byte [rax], al ; pop rbx ; ret ; (1 found)
0x466659: or byte [rax], al ; ret ; (2 found)
0x447c4e: or byte [rax], r8L ; add byte [rax-0x7D], cl ; retn 0xE910 ; (1 found)
0x481987: or byte [rbp+0x31], al ; ror byte [rax-0x39], cl ; ret ; (1 found)
0x4af5a2: or byte [rbp+0x41], bl ; pop rsp ; jmp rax ; (2 found)
0x46259b: or byte [rbp+0x41], bl ; pop rsp ; ret ; (1 found)
0x42b7c5: or byte [rbx+0x0F4801E0], al ; retn 0x66C3 ; (1 found)
0x420247: or byte [rbx+0x5D], bl ; pop r12 ; ret ; (1 found)
0x405ff9: or byte [rbx+0x5D], bl ; ret ; (33 found)
0x404d6a: or byte [rbx+rbx-0x09], dh ; retn 0x0000 ; (1 found)
0x49138e: or byte [rbx-0x3B7CB7FE], cl ; or byte [rbx+0x5D], bl ; ret ; (1 found)
0x41bd01: or byte [rbx-0x76FEFBB9], al ; retn 0xE281 ; (1 found)
0x412acd: or byte [rbx-0x7AF0FE02], al ; retn 0xFEEB ; (1 found)
0x41b32d: or byte [rbx-0x7BF00002], al ; ret ; (1 found)
0x4ac402: or byte [rbx], al ; add byte [rax], al ; ret ; (1 found)
0x465dcf: or byte [rcx+0x0003F095], cl ; add dh, dh ; retn 0x7402 ; (1 found)
0x4ae0bb: or byte [rcx+0x01], cl ; retn 0x894C ; (1 found)
0x480261: or byte [rcx+0x01], cl ; retn 0x8D48 ; (1 found)
0x40350d: or byte [rcx+0x0F68041D], cl ; add byte [rbx+0x0D890FE2], al ; jmp qword [rdi+0x0F] ; (1 found)
0x480fcb: or byte [rcx+0x29], cl ; retn 0x894C ; (1 found)
0x426c27: or byte [rcx+0x39], cl ; retn 0x850F ; (1 found)
0x428798: or byte [rcx+rcx*4+0x62], cl ; or byte [rcx-0x7D], al ; retn 0x4901 ; (1 found)
0x41d22a: or byte [rcx+rcx*4-0x01], cl ; call rax ; (1 found)
0x461b66: or byte [rcx-0x0A], al ; ret ; (3 found)
0x48144c: or byte [rcx-0x39], cl ; retn 0xC001 ; (1 found)
0x44b788: or byte [rcx-0x76B7F7BE], cl ; clc ; ret ; (1 found)
0x489712: or byte [rcx-0x77], al ; ret ; (2 found)
0x42879c: or byte [rcx-0x7D], al ; retn 0x4901 ; (1 found)
0x40d379: or byte [rcx-0x7D], cl ; ret ; (2 found)
0x415cef: or byte [rcx], bh ; retn 0xEF72 ; (2 found)
0x463d51: or byte [rcx], cl ; add byte [rcx+rcx*4-0x40], cl ; ret ; (1 found)
0x4271cd: or byte [rcx], dh ; ret ; (1 found)
0x465b0c: or byte [rcx], dh ; rol byte [rax-0x6AF0FFC8], cl ; retn 0x8348 ; (1 found)
0x466248: or byte [rcx], dh ; rol byte [rax-0x6AF0FFC8], cl ; retn 0x8D48 ; (1 found)
0x466227: or byte [rcx], dh ; rol byte [rax-0x6BF0FFC8], cl ; retn 0x8D48 ; (2 found)
0x4271ec: or byte [rcx], dh ; ror byte [rax+0x09], 1 ; ret ; (1 found)
0x4aa3fa: or byte [rdi+0x0000031D], 0x40 ; ret ; (1 found)
0x4aa33c: or byte [rdi+0x0000031D], 0x40 ; xor eax, eax ; ret ; (1 found)
0x452003: or byte [rdi+0x00], bh ; vmovdqu64  [rax+rdx-0x01], xmm16 ; ret ; (2 found)
0x4bc3e0: or byte [rdi+0x02], dh ; sbb eax, eax ; ret ; (1 found)
0x4bc3df: or byte [rdi+0x02], r14L ; sbb eax, eax ; ret ; (1 found)
0x456ba4: or byte [rdi+0x17], bh ; vmovdqu64  [rdi+rdx-0x0000000F], xmm19 ; ret ; (1 found)
0x452009: or byte [rdi+0x44], bh ; adc bh, bh ; ret ; (2 found)
0x41b5cb: or byte [rdi+rcx-0x4A], al ; add byte [rax-0x77], cl ; retn 0x8945 ; (1 found)
0x41b579: or byte [rdi+rcx-0x4A], al ; add eax,  [rbp-0x77] ; retn 0x8341 ; (1 found)
0x493f84: or byte [rdx+0x09], dh ; mov qword [r8], rsi ; ret ; (1 found)
0x463b54: or byte [rdx-0x04], ah ; dec  [rax-0x77] ; ret ; (1 found)
0x46132c: or byte [rsi+0x00000010], bh ; mov eax, 0x00000048 ; syscall ; (1 found)
0x41cb56: or cl, byte [rax+0x01] ; retn 0x8948 ; (3 found)
0x41fc36: or cl, byte [rax+0x01] ; retn 0x8949 ; (1 found)
0x41c64d: or cl, byte [rax-0x7D] ; ret ; (2 found)
0x4ac3e2: or cl, byte [rax-0x7D] ; retn 0x6608 ; (1 found)
0x464e0a: or cl, byte [rbx+rcx*4+0x50] ; cmp byte [rbp-0x6AF0BE37], al ; ret ; (1 found)
0x4a1d2f: or cl, ch ; imul eax,  [rbx+0x1F0FFFF8], 0x00 ; ret ; (1 found)
0x4062a1: or cl, ch ; imul edi, edi, 0xFF ; jmp qword [rsi+0x0F] ; (1 found)
0x48e5b3: or cl, ch ; ret ; (1 found)
0x48ae4b: or cl, ch ; retn 0xFFFE ; (1 found)
0x48e5b2: or cl, r13L ; ret ; (1 found)
0x48ae4a: or cl, r13L ; retn 0xFFFE ; (1 found)
0x43d893: or dh, bl ; movq qword [rdi], mm1 ; ret ; (2 found)
0x433667: or eax,  [rax] ; add byte [rax-0x7D], cl ; retn 0x4910 ; (3 found)
0x446241: or eax,  [rax] ; add byte [rax-0x7D], cl ; retn 0xE910 ; (2 found)
0x433695: or eax,  [rax] ; add byte [rax-0x7D], cl ; retn 0xEB10 ; (1 found)
0x461715: or eax,  [rax] ; add byte [rax], al ; syscall ; (1 found)
0x4b72b2: or eax,  [rax] ; add byte [rbx-0x70F08B06], al ; retn 0x0006 ; (1 found)
0x402ddc: or eax,  [rsi] ; add cl, cl ; ret ; (1 found)
0x467241: or eax, 0x00092C99 ; or al, 0x5B ; ret ; (1 found)
0x435359: or eax, 0x01 ; ret ; (2 found)
0x41ee69: or eax, 0x01740000 ; ret ; (1 found)
0x46718b: or eax, 0x02 ; mov byte [0x00000000004F9EE0], al ; ret ; (1 found)
0x41ad56: or eax, 0x048B4800 ; clc ; ret ; (1 found)
0x44d5b8: or eax, 0x077F0FF3 ; movdqu  [rdi+0x0D], xmm2 ; ret ; (1 found)
0x46721a: or eax, 0x08 ; mov byte [0x00000000004F9EE0], al ; ret ; (2 found)
0x42cf9c: or eax, 0x0F480001 ; retn 0x0FC3 ; (1 found)
0x43d743: or eax, 0x0F7F0FF3 ; ret ; (2 found)
0x44dc81: or eax, 0x1C478D48 ; ret ; (1 found)
0x433487: or eax, 0x83480000 ; retn 0x4910 ; (5 found)
0x4460a1: or eax, 0x83480000 ; retn 0xE910 ; (2 found)
0x4334b5: or eax, 0x83480000 ; retn 0xEB10 ; (1 found)
0x492fa8: or eax, 0xA30F4800 ; retn 0x820F ; (1 found)
0x458d42: or eax, 0xC2BC0F48 ; shr rax, 0x02 ; ret ; (1 found)
0x403e7a: or eax, 0xFFFFFFFF ; ret ; (18 found)
0x4353be: or eax, ecx ; ret ; (2 found)
0x481040: or eax, esi ; movq xmm0, xmm0 ; ret ; (1 found)
0x429c8c: or ebx,  [rbx+0x5D] ; pop r12 ; ret ; (1 found)
0x43d903: or ebx, esi ; movq qword [rdi], mm1 ; ret ; (2 found)
0x4b8b04: or ecx,  [rcx-0x7D] ; ret ; (1 found)
0x491d50: or ecx, edi ; jmp qword [rsi+0x0F] ; (1 found)
0x435273: or ecx, esi ; sub eax, ecx ; ret ; (3 found)
0x435cb2: or edi,  [rsi] ; jmp r9 ; (4 found)
0x44d220: or edi,  [rsi] ; jmp rcx ; (16 found)
0x4a8d31: or edx, eax ; cmc ; jmp qword [rsi+0x2E] ; (1 found)
0x4bb532: or esi, 0x02 ; mov edi, 0x00000001 ; call rax ; (1 found)
0x43d823: or esi, ebx ; movq qword [rdi], mm1 ; ret ; (2 found)
0x480ffb: or esi, edx ; movd xmm0, xmm6 ; ret ; (1 found)
0x43d972: or r11L, r14L ; movq qword [rdi], mm1 ; ret ; (2 found)
0x43d902: or r11d, r14d ; movq qword [rdi], mm1 ; ret ; (2 found)
0x43d892: or r14L, r11L ; movq qword [rdi], mm1 ; ret ; (2 found)
0x43d822: or r14d, r11d ; movq qword [rdi], mm1 ; ret ; (2 found)
0x41ad55: or r8d, 0x048B4800 ; clc ; ret ; (1 found)
0x43d742: or r8d, 0x0F7F0FF3 ; ret ; (2 found)
0x403e79: or rax, 0xFFFFFFFFFFFFFFFF ; ret ; (18 found)
0x49c972: or rax, qword [r8] ; add byte [rax-0x7D], cl ; retn 0xE910 ; (1 found)
0x48103f: or rax, rsi ; movq xmm0, xmm0 ; ret ; (1 found)
0x4a1364: out 0x00, al ; add byte [rax], al ; syscall ; (4 found)
0x42524e: out 0x07, al ; xor sil, 0x81 ; syscall ; (1 found)
0x45adb3: out 0x09, eax ; add byte [rbp+0x29], al ; retn 0x8D45 ; (1 found)
0x41c628: out 0x41, al ; call qword [rbp+0x38] ; (1 found)
0x48df65: out 0x41, eax ; call qword [rdi+0x38] ; (1 found)
0x48d807: out 0x41, eax ; call qword [rsi+0x38] ; (2 found)
0x4bd73f: out 0x42, al ; hlt ; jmp qword [rsi+0x66] ; (1 found)
0x404cf8: out 0x43, eax ; call qword [rsi+rdi*8] ; (2 found)
0x42064f: out 0x48, al ; mov edi, ebp ; call qword [r12+0x00000090] ; (2 found)
0x41f439: out 0x48, al ; mov edi, ebp ; call qword [r14+0x00000090] ; (1 found)
0x41f8db: out 0x48, al ; mov edi, ebp ; call qword [r15+0x00000080] ; (1 found)
0x48fdba: out 0x48, al ; mov edi, ebp ; call qword [rbx+0x00000090] ; (1 found)
0x415ea5: out 0x48, al ; mov edi, ebp ; call qword [rcx+0x38] ; (4 found)
0x420d58: out 0x48, al ; mov edi, ebx ; call qword [r14+0x78] ; (1 found)
0x475c55: out 0x4C, al ; mov edi, ebp ; call rbx ; (1 found)
0x417049: out 0x4C, al ; mov edi, esi ; call qword [rax+0x38] ; (1 found)
0x4180be: out 0x4C, al ; mov edi, esi ; call qword [rcx+0x38] ; (1 found)
0x485f1f: out 0x4C, eax ; mov  [rbp-0x000000E8], eax ; call rax ; (1 found)
0x475d45: out 0x4C, eax ; mov edx, esi ; call rbp ; (1 found)
0x4b9d01: out 0x83, al ; call qword [rcx] ; (1 found)
0x416a72: out 0x83, al ; ret ; (1 found)
0x4b63c9: out 0x89, al ; out dx, eax ; call qword [rax] ; (2 found)
0x4b6385: out 0x89, al ; out dx, eax ; call rax ; (1 found)
0x4af536: out 0xA6, al ; add al, 0x00 ; ret ; (1 found)
0x424a65: out 0xC5, eax ; std ; jmp qword [rsi+0x0F] ; (1 found)
0x40178b: out 0xE8, eax ; jmp qword [rdi-0x08BEFFF5] ; (1 found)
0x420bc7: out 0xE8, eax ; ret ; (3 found)
0x4bf0d8: out 0xE8, eax ; retn 0xF6AF ; (1 found)
0x42b435: out 0xE8, eax ; retn 0xFFFF ; (1 found)
0x43d109: out 0xF3, al ; movq qword [rdi-0x10], mm1 ; ret ; (4 found)
0x43d189: out 0xF3, eax ; movq qword [rdi-0x10], mm1 ; ret ; (4 found)
0x4799a8: out 0xFF, al ; dec  [rax-0x39] ; retn 0xFFFF ; (1 found)
0x402ae2: out 0xFF, al ; dec  [rax-0x77] ; retn 0x8D48 ; (1 found)
0x417e89: out 0xFF, al ; inc  [rcx] ; ret ; (2 found)
0x41412b: out 0xFF, al ; jmp qword [rsi+0x0F] ; (4 found)
0x417dbb: out 0xFF, al ; jmp qword [rsi-0x70] ; (3 found)
0x483c06: out 0xFF, eax ; dec  [rax-0x39] ; retn 0xFFFF ; (1 found)
0x413396: out 0xFF, eax ; dec  [rax-0x7D] ; ret ; (1 found)
0x41a87e: out 0xFF, eax ; dec  [rax-0x7D] ; retn 0x0F03 ; (1 found)
0x417da8: out 0xFF, eax ; inc  [rcx] ; ret ; (1 found)
0x40f6df: out 0xFF, eax ; jmp qword [rsi+0x0F] ; (1 found)
0x41a20b: out 0xFF, eax ; jmp qword [rsi-0x70] ; (1 found)
0x48b565: out dx, al ; add  [rax-0x0008E343], eax ; jmp qword [rax] ; (1 found)
0x40136e: out dx, al ; add cl, byte [rax-0x7D] ; retn 0x4810 ; (6 found)
0x415056: out dx, al ; add eax, ebp ; ret ; (1 found)
0x41ede2: out dx, al ; and edi, esi ; jmp qword [rsi+0x2E] ; (1 found)
0x42a61e: out dx, al ; mov ah, 0xFF ; jmp qword [rsi+0x0F] ; (1 found)
0x4a1362: out dx, al ; mov eax, 0x000000E6 ; syscall ; (2 found)
0x425073: out dx, al ; mov eax, 0x000000EA ; syscall ; (1 found)
0x404cf5: out dx, al ; mov edi, r12d ; call qword [r14+r15*8] ; (2 found)
0x4a0e9c: out dx, al ; mov qword [rsp+0x000000D0], rax ; call r12 ; (1 found)
0x48d804: out dx, al ; mov rdi, r12 ; call qword [r14+0x38] ; (2 found)
0x48df62: out dx, al ; mov rdi, r12 ; call qword [r15+0x38] ; (1 found)
0x48e61b: out dx, al ; mov rdi, r12 ; call qword [rax+0x38] ; (1 found)
0x40ba09: out dx, al ; mov rdi, r12 ; call rax ; (3 found)
0x40c372: out dx, al ; mov rdi, r13 ; call r15 ; (1 found)
0x416417: out dx, al ; mov rdi, r14 ; call qword [rax+0x38] ; (1 found)
0x41d3db: out dx, al ; mov rdi, r15 ; call qword [r14+0x00000080] ; (1 found)
0x41c4b7: out dx, al ; mov rdi, r15 ; call qword [r14+0x38] ; (2 found)
0x41c51d: out dx, al ; mov rdi, r15 ; call qword [rbp+0x38] ; (2 found)
0x41e7cb: out dx, al ; mov rdi, r15 ; call rbx ; (1 found)
0x420495: out dx, al ; mov rdi, rbp ; call qword [rax+0x78] ; (1 found)
0x4a0a4f: out dx, al ; mov rdi, rbp ; call rbx ; (1 found)
0x4201fd: out dx, al ; mov rdi, rbx ; call qword [r12+0x00000080] ; (1 found)
0x48ff66: out dx, al ; mov rdi, rbx ; call qword [r13+0x38] ; (1 found)
0x4aeba8: out dx, al ; mov rdi, rbx ; call qword [r14+0x48] ; (1 found)
0x4bc30a: out dx, al ; mov rdi, rbx ; call r14 ; (1 found)
0x43d519: out dx, al ; movdqu  [rdi-0x10], xmm1 ; ret ; (4 found)
0x46e527: out dx, al ; retn 0x0000 ; (1 found)
0x479a4e: out dx, al ; retn 0xFFF8 ; (1 found)
0x4a6621: out dx, al ; sti ; jmp qword [rsi-0x007F] ; (1 found)
0x4a8c10: out dx, al ; syscall ; (1 found)
0x4864f2: out dx, eax ; add  [rax+0x39], ecx ; ret ; (1 found)
0x420652: out dx, eax ; call qword [r12+0x00000090] ; (2 found)
0x4188ce: out dx, eax ; call qword [r12+0x38] ; (1 found)
0x41fce3: out dx, eax ; call qword [r13+0x00000090] ; (1 found)
0x419b65: out dx, eax ; call qword [r13+0x38] ; (1 found)
0x41f43c: out dx, eax ; call qword [r14+0x00000090] ; (1 found)
0x4203a2: out dx, eax ; call qword [r14+0x18] ; (3 found)
0x4916b0: out dx, eax ; call qword [r14+0x20] ; (1 found)
0x41f8de: out dx, eax ; call qword [r15+0x00000080] ; (1 found)
0x418de8: out dx, eax ; call qword [r15+0x38] ; (3 found)
0x41f806: out dx, eax ; call qword [rax+0x00000080] ; (1 found)
0x41f698: out dx, eax ; call qword [rax+0x00000090] ; (1 found)
0x420498: out dx, eax ; call qword [rax+0x78] ; (1 found)
0x4b63cb: out dx, eax ; call qword [rax] ; (2 found)
0x41bfaf: out dx, eax ; call qword [rbx+0x00000080] ; (4 found)
0x4216f4: out dx, eax ; call qword [rbx+0x00000088] ; (1 found)
0x48fdbd: out dx, eax ; call qword [rbx+0x00000090] ; (1 found)
0x41bc5e: out dx, eax ; call qword [rbx+0x10] ; (1 found)
0x422459: out dx, eax ; call qword [rbx+0x18] ; (2 found)
0x419432: out dx, eax ; call qword [rbx+0x38] ; (2 found)
0x415ea8: out dx, eax ; call qword [rcx+0x38] ; (4 found)
0x461ee7: out dx, eax ; call r12 ; (2 found)
0x40c319: out dx, eax ; call r15 ; (2 found)
0x41f856: out dx, eax ; call rax ; (4 found)
0x458ae9: out dx, eax ; call rbx ; (3 found)
0x46164d: out dx, eax ; cli ; jmp qword [rsi+0x2E] ; (1 found)
0x4019e1: out dx, eax ; idiv edi ; call qword [rax-0x18] ; (1 found)
0x4578b0: out dx, eax ; jmp qword [rsi+0x66] ; (1 found)
0x41e55d: out dx, eax ; lea r9, qword [rsp+0x28] ; call rbp ; (2 found)
0x457f26: out dx, eax ; lea r9, qword [rsp+0x30] ; call rbx ; (1 found)
0x456069: out dx, eax ; lea rax, qword [rdi+rax] ; ret ; (1 found)
0x4936a8: out dx, eax ; mov eax, 0x000000CA ; syscall ; (1 found)
0x492876: out dx, eax ; mov eax, r13d ; syscall ; (1 found)
0x493612: out dx, eax ; mov eax, r8d ; syscall ; (1 found)
0x420459: out dx, eax ; mov edx, 0x00000001 ; call qword [rax+0x00000080] ; (1 found)
0x458071: out dx, eax ; mov rsi, qword [rsp+0x18] ; call rbx ; (1 found)
0x43d599: out dx, eax ; movdqu  [rdi-0x10], xmm1 ; ret ; (4 found)
0x404913: out dx, eax ; push rsi ; retn 0x0F02 ; (1 found)
0x4595c7: out dx, eax ; ret ; (1 found)
0x44fd63: out dx, eax ; retn 0x0F66 ; (1 found)
0x41ff05: out dx, eax ; sub r12, r14 ; call qword [r13+0x40] ; (1 found)
0x4b91d9: out dx, eax ; xor byte [rax+0x21], cl ; retn 0x8949 ; (1 found)
0x4a8464: out dx, eax ; xor eax, eax ; ret ; (1 found)
0x4617c6: out dx, eax ; xor esi, esi ; call r12 ; (4 found)
0x4b43ef: outsb ; int 0x80 ; (1 found)
0x4aa41e: outsb ; mov al, 0xFB ; jmp qword [rsi+0x66] ; (1 found)
0x403f43: outsb ; ret ; (10 found)
0x409f55: outsb ; retn 0x0F66 ; (5 found)
0x4b4b5a: outsb ; retn 0x160F ; (1 found)
0x46948e: outsb ; retn 0x4166 ; (1 found)
0x4264f7: outsb ; retn 0x4866 ; (2 found)
0x421897: outsb ; retn 0x8948 ; (6 found)
0x4076ca: outsb ; retn 0x8B41 ; (1 found)
0x4aa69e: outsb ; retn 0x8B49 ; (1 found)
0x401ebb: outsb ; retn 0x8D48 ; (3 found)
0x4ae921: outsb ; retn 0xD1B8 ; (1 found)
0x4ae960: outsb ; retn 0xD348 ; (1 found)
0x425aa3: outsb ; shl byte [rsi+0x0F], 0x6C ; retn 0x0F41 ; (1 found)
0x48496f: outsd ; adc  [rax-0x0000DF6B], ecx ; jmp qword [rsi+0x0F] ; (1 found)
0x481475: outsd ; add eax, 0xC7480000 ; retn 0xFFA0 ; (1 found)
0x4841d1: outsd ; and al, 0xE8 ; ret ; (1 found)
0x44131e: outsd ; fmul qword [rcx-0x7D] ; retn 0x0F10 ; (60 found)
0x42d6f8: outsd ; fmul qword [rcx-0x7D] ; retn 0x7F10 ; (60 found)
0x4870f3: outsd ; in eax, 0xFF ; jmp qword [rsi+0x0F] ; (1 found)
0x437727: outsd ; iretq ; (2 found)
0x4776d8: outsd ; jmp qword [rsi+0x0F] ; (2 found)
0x481adc: outsd ; jmp qword [rsi-0x70] ; (1 found)
0x4361e5: outsd ; lock jmp r9 ; (30 found)
0x489711: outsd ; or byte [rcx-0x77], al ; ret ; (2 found)
0x440ee7: outsd ; pop rcx ; jmp qword [rdx-0x2F] ; (2 found)
0x437e47: outsd ; ret ; (9 found)
0x405595: outsd ; retn 0x000B ; (1 found)
0x485725: outsd ; retn 0x02BE ; (1 found)
0x448f7a: outsd ; retn 0x0F66 ; (2 found)
0x48497d: outsd ; retn 0x290F ; (2 found)
0x438047: outsd ; retn 0x8B4C ; (4 found)
0x433342: pcmpeqb mm0, mm1 ; lea r10, qword [r10+r9] ; jmp r10 ; (3 found)
0x49ef34: pcmpeqb mm3, qword [rcx] ; add rax, 0x02 ; ret ; (1 found)
0x49ef1f: pcmpeqb mm3, qword [rsi] ; ret ; (1 found)
0x433341: pcmpeqb xmm0, xmm1 ; lea r10, qword [r10+r9] ; jmp r10 ; (3 found)
0x47c6b9: pmaddwd mm7, mm7 ; dec  [rax-0x39] ; retn 0xFFFF ; (1 found)
0x4a1995: pop qword [rax] ; add byte [rax], al ; syscall ; (1 found)
0x4206e0: pop r12 ; jmp rax ; (6 found)
0x4209a5: pop r12 ; pop r13 ; jmp rax ; (4 found)
0x40d83a: pop r12 ; pop r13 ; ret ; (75 found)
0x4027fe: pop r12 ; pop rbp ; ret ; (2 found)
0x403b8d: pop r12 ; ret ; (116 found)
0x4672fa: pop r12 ; shl eax, cl ; ret ; (1 found)
0x4209a7: pop r13 ; jmp rax ; (4 found)
0x41f4d4: pop r13 ; pop r14 ; jmp rax ; (1 found)
0x40b7bb: pop r13 ; pop r14 ; ret ; (49 found)
0x4a59a5: pop r13 ; pop rbp ; ret ; (2 found)
0x40d83c: pop r13 ; ret ; (75 found)
0x41f4d6: pop r14 ; jmp rax ; (1 found)
0x46a4a6: pop r14 ; pop r15 ; jmp rax ; (12 found)
0x40372c: pop r14 ; pop r15 ; ret ; (211 found)
0x40b7bd: pop r14 ; ret ; (50 found)
0x46a4a8: pop r15 ; jmp rax ; (12 found)
0x406233: pop r15 ; pop rbp ; ret ; (39 found)
0x40372e: pop r15 ; ret ; (211 found)
0x40a679: pop rax ; add al, 0x5B ; ret ; (1 found)
0x460443: pop rax ; cli ; jmp qword [rsi+0x2E] ; (1 found)
0x4b047c: pop rax ; cmc ; call qword [rax-0x05E1F00D] ; (1 found)
0x4943f2: pop rax ; dec  [rcx-0x77] ; retn 0x3948 ; (1 found)
0x48ca73: pop rax ; idiv edi ; jmp qword [rsi-0x77] ; (1 found)
0x46a7a0: pop rax ; mov rax, qword [rsp+0x18] ; call rax ; (2 found)
0x46c42d: pop rax ; mov rdi, qword [rsp+0x50] ; call r13 ; (3 found)
0x461467: pop rax ; ret ; (7 found)
0x4b4cdf: pop rbp ; adc ch, dh ; jmp qword [rsi+0x2E] ; (1 found)
0x41881e: pop rbp ; add dh, dh ; ret ; (1 found)
0x4209a8: pop rbp ; jmp rax ; (8 found)
0x4b4cae: pop rbp ; jmp rdx ; (1 found)
0x45ec8e: pop rbp ; lea rax, qword [rax+rdx*8] ; ret ; (1 found)
0x4bc799: pop rbp ; mov eax, r8d ; ret ; (1 found)
0x4206df: pop rbp ; pop r12 ; jmp rax ; (5 found)
0x403b8c: pop rbp ; pop r12 ; ret ; (92 found)
0x41f4d5: pop rbp ; pop r14 ; jmp rax ; (1 found)
0x40b7bc: pop rbp ; pop r14 ; ret ; (49 found)
0x4a59a6: pop rbp ; pop rbp ; ret ; (2 found)
0x480fd8: pop rbp ; pop rbx ; ret ; (2 found)
0x401b41: pop rbp ; ret ; (207 found)
0x4adc00: pop rbp ; sti ; jmp qword [rsi+0x66] ; (1 found)
0x4222e9: pop rbx ; jmp rax ; (6 found)
0x4bee0b: pop rbx ; mov qword [0x00000000004F94B0], 0x0000000000000000 ; ret ; (1 found)
0x4aea4f: pop rbx ; pop r12 ; jmp rax ; (1 found)
0x40c756: pop rbx ; pop r12 ; ret ; (14 found)
0x4223d9: pop rbx ; pop rbp ; jmp rax ; (4 found)
0x4b4cad: pop rbx ; pop rbp ; jmp rdx ; (1 found)
0x405ffa: pop rbx ; pop rbp ; ret ; (77 found)
0x403160: pop rbx ; ret ; (75 found)
0x459a8d: pop rcx ; adc byte [rcx+0x29], al ; ret ; (1 found)
0x4b343b: pop rcx ; add eax, 0x01480000 ; ret ; (1 found)
0x4b03af: pop rcx ; cmc ; jmp qword [rsi+0x0F] ; (2 found)
0x4408bc: pop rcx ; jmp qword [rdx-0x0F] ; (1 found)
0x440ee9: pop rcx ; jmp qword [rdx-0x2F] ; (1 found)
0x4bbdac: pop rcx ; jmp rcx ; (4 found)
0x41679f: pop rdi ; add al, 0x89 ; retn 0x9D89 ; (1 found)
0x46a4a9: pop rdi ; jmp rax ; (12 found)
0x437556: pop rdi ; lock mov qword [rdi-0x08], rcx ; ret ; (4 found)
0x437594: pop rdi ; lock mov qword [rdi-0x08], rdx ; ret ; (12 found)
0x462770: pop rdi ; mov rdi, qword [r12+0x00] ; call rbx ; (1 found)
0x41bd00: pop rdi ; or byte [rbx-0x76FEFBB9], al ; retn 0xE281 ; (1 found)
0x406234: pop rdi ; pop rbp ; ret ; (39 found)
0x40372f: pop rdi ; ret ; (211 found)
0x425a78: pop rdx ; adc byte [rax+0x01], cl ; retn 0x0349 ; (1 found)
0x4b9449: pop rdx ; add al, byte [rax] ; ret ; (1 found)
0x433cf6: pop rdx ; add eax, 0x83480000 ; retn 0x4910 ; (1 found)
0x48de39: pop rdx ; or byte [rax-0x7D], cl ; retn 0x8D08 ; (1 found)
0x461b65: pop rdx ; or byte [rcx-0x0A], al ; ret ; (1 found)
0x4639cf: pop rdx ; pop r12 ; ret ; (1 found)
0x4ada3b: pop rdx ; pop rbx ; ret ; (6 found)
0x4b239a: pop rdx ; ret ; (1 found)
0x474ade: pop rsi ; adc bh, cl ; jmp qword [rsi+0x66] ; (1 found)
0x4b9446: pop rsi ; add eax, 0x00025A74 ; ret ; (1 found)
0x41f4d7: pop rsi ; jmp rax ; (1 found)
0x492fc1: pop rsi ; mov eax, 0x00000016 ; ret ; (1 found)
0x46229d: pop rsi ; or byte [rcx-0x0A], al ; ret ; (2 found)
0x46a4a7: pop rsi ; pop r15 ; jmp rax ; (12 found)
0x40372d: pop rsi ; pop r15 ; ret ; (211 found)
0x40b7be: pop rsi ; ret ; (50 found)
0x4468c0: pop rsp ; add eax, 0x83480000 ; retn 0xE910 ; (1 found)
0x464484: pop rsp ; cld ; jmp qword [rsi+0x0F] ; (1 found)
0x460114: pop rsp ; cli ; jmp qword [rsi+0x0F] ; (1 found)
0x4206e1: pop rsp ; jmp rax ; (6 found)
0x4209a6: pop rsp ; pop r13 ; jmp rax ; (4 found)
0x40d83b: pop rsp ; pop r13 ; ret ; (75 found)
0x4027ff: pop rsp ; pop rbp ; ret ; (2 found)
0x403b8e: pop rsp ; ret ; (117 found)
0x4672fb: pop rsp ; shl eax, cl ; ret ; (1 found)
0x4bbac0: popfq ; cmp ch, 0xFF ; jmp qword [rsi+0x0F] ; (1 found)
0x4888e3: psllq mm7, mm7 ; jmp qword [rsi+0x0F] ; (1 found)
0x46477f: punpcklqdq mm0, mm0 ; movups  [0x00000000004F9C60], xmm0 ; ret ; (1 found)
0x46482e: punpcklqdq mm0, mm0 ; movups  [rbx+0x000002D8], xmm0 ; syscall ; (1 found)
0x4ac3fc: punpcklqdq mm0, mm2 ; movups  [rax+0x00000308], xmm0 ; ret ; (1 found)
0x46477e: punpcklqdq xmm0, xmm0 ; movups  [0x00000000004F9C60], xmm0 ; ret ; (1 found)
0x46482d: punpcklqdq xmm0, xmm0 ; movups  [rbx+0x000002D8], xmm0 ; syscall ; (1 found)
0x4ac3fb: punpcklqdq xmm0, xmm2 ; movups  [rax+0x00000308], xmm0 ; ret ; (1 found)
0x457ad5: push 0x00000000 ; lea r9, qword [rsp+0x18] ; call r13 ; (1 found)
0x457ceb: push 0x00000001 ; lea r9, qword [rsp+0x20] ; call rbx ; (1 found)
0x4b0cd2: push 0x00000050 ; cmc ; jmp qword [rsi+0x2E] ; (1 found)
0x403433: push 0x001F0FF8 ; call qword [rbp+rbx*8+0x00] ; (1 found)
0x417945: push 0x0FFFFFF7 ; xchg eax, edx ; retn 0x3948 ; (1 found)
0x4abbaf: push 0x41FFFFFF ; call rcx ; (1 found)
0x494134: push 0x48000099 ; cmove eax, edx ; ret ; (1 found)
0x41ad54: push 0x48000D41 ; mov eax,  [rax+rdi*8] ; ret ; (1 found)
0x4abf95: push 0x4CFFFFFF ; mov  [rbp-0x00000088], ecx ; call rax ; (1 found)
0x423141: push 0x75C08548 ; lock ret ; (2 found)
0x463b0c: push 0x8948FFFC ; ret ; (1 found)
0x49329e: push 0xAB740104 ; mov eax, 0x00000083 ; ret ; (1 found)
0x44e174: push 0xF6000001 ; retn 0x7501 ; (1 found)
0x479d7f: push 0xFFF10AE9 ; jmp qword [rsi+0x66] ; (1 found)
0x42ba85: push 0xFFFFFF83 ; ret ; (1 found)
0x403422: push cs ; add byte [rax+0x29], cl ; ret ; (1 found)
0x406aa6: push cs ; add byte [rax-0x77], cl ; ret ; (2 found)
0x40cb0b: push cs ; add byte [rbx+rcx*4+0x04], cl ; retn 0x8D48 ; (1 found)
0x402328: push cs ; add cl, cl ; ret ; (1 found)
0x4144d1: push cs ; fdiv st7, st0 ; jmp qword [rsi+0x0F] ; (1 found)
0x44db9e: push cs ; lea rax, qword [rdi+0x15] ; ret ; (2 found)
0x44dca1: push cs ; lea rax, qword [rdi+0x1D] ; ret ; (1 found)
0x440975: push cs ; mov byte [rdi], cl ; ret ; (1 found)
0x4a877e: push cs ; mov rax, r8 ; ret ; (1 found)
0x43d6d2: push cs ; movdqu  [rdi], xmm1 ; ret ; (4 found)
0x4aa3f9: push cs ; or byte [rdi+0x0000031D], 0x40 ; ret ; (1 found)
0x44cff0: push cs ; ret ; (9 found)
0x4b4604: push cs ; sti ; jmp qword [rsi+0x0F] ; (1 found)
0x43541a: push cs ; sub eax, ecx ; ret ; (2 found)
0x4333fb: push cs ; sub eax, edx ; ret ; (1 found)
0x44faf7: push qword [rbp+0x1A] ; xor eax, eax ; ret ; (2 found)
0x462810: push qword [rbp+0x1D] ; mov rdi, qword [r13+0x00] ; call rbx ; (1 found)
0x462742: push qword [rbp+0x4B] ; mov rdi, qword [r12+0x00] ; call rbx ; (1 found)
0x461a00: push qword [rbp+0x4D] ; mov rdi, qword [r13+0x00] ; call rbx ; (1 found)
0x4627e4: push qword [rbp+0x69] ; mov rdi, qword [r13+0x00] ; call rbx ; (1 found)
0x491121: push qword [rbp+rax-0x0A] ; retn 0x7408 ; (1 found)
0x489dd5: push qword [rbp+rax-0x18] ; ret ; (1 found)
0x4be595: push qword [rbp+rcx*2-0x77] ; retn 0x8948 ; (1 found)
0x4232d6: push qword [rbp+rcx-0x18] ; retn 0x006D ; (1 found)
0x460460: push qword [rbx+0x01] ; ret ; (17 found)
0x42b430: push qword [rcx] ; test byte [rcx+rcx*4-0x19], 0xE8 ; retn 0xFFFF ; (1 found)
0x4a18fc: push qword [rdi+0x01] ; ret ; (1 found)
0x461529: push qword [rdi+0x04] ; ret ; (1 found)
0x460930: push qword [rdi+0x05] ; ret ; (4 found)
0x4614bd: push qword [rdi+0x08] ; ret ; (1 found)
0x4635a3: push qword [rdi+0x0A] ; ret ; (3 found)
0x460552: push qword [rdi+0x0B] ; xor eax, eax ; ret ; (1 found)
0x4616cc: push qword [rdi+0x21] ; ret ; (1 found)
0x460a6c: push qword [rdi+0x41] ; ret ; (1 found)
0x46089c: push qword [rdi+0x51] ; ret ; (3 found)
0x4607f7: push qword [rdi+0x56] ; ret ; (1 found)
0x4bc9fc: push qword [rsi-0x77] ; retn 0xE283 ; (1 found)
0x4226f5: push qword [rsp+rax-0x58] ; add  [rsp-0x77], esi ; retn 0xC883 ; (1 found)
0x429b89: push qword [rsp+rcx+0x48] ; add esp, 0x08 ; ret ; (1 found)
0x423d09: push rax ; adc byte [rbx-0x2FD6EFB9], cl ; ret ; (1 found)
0x46c432: push rax ; call r13 ; (3 found)
0x467a7f: push rax ; call rbx ; (1 found)
0x4b0cd3: push rax ; cmc ; jmp qword [rsi+0x2E] ; (1 found)
0x464e0d: push rax ; cmp byte [rbp-0x6AF0BE37], al ; ret ; (1 found)
0x42acdd: push rax ; dec  [rax-0x7B] ; retn 0x840F ; (1 found)
0x4bc9cf: push rax ; hlt ; jmp qword [rsi+0x66] ; (1 found)
0x417576: push rax ; idiv edi ; jmp qword [rsi+0x0F] ; (1 found)
0x464967: push rax ; mov byte [rax+0x50], 0x01 ; ret ; (1 found)
0x46bdbc: push rax ; mov rax, qword [rsp+0x18] ; call rax ; (1 found)
0x46a1e0: push rax ; mov rax, qword [rsp+0x28] ; call rax ; (2 found)
0x46d126: push rax ; mov rdi, qword [rsp+0x48] ; call r14 ; (1 found)
0x490ad0: push rax ; movups  [rax], xmm0 ; ret ; (1 found)
0x490a95: push rax ; movups  [rax], xmm1 ; ret ; (1 found)
0x484cd8: push rax ; or al, 0xF6 ; retn 0x7540 ; (1 found)
0x45a723: push rax ; ret ; (3 found)
0x423cfa: push rax ; sbb byte [rbx-0x2FD6EFB9], cl ; ret ; (1 found)
0x4bef0b: push rbp ; adc byte [rax-0x7D], cl ; ret ; (1 found)
0x4a1f08: push rbp ; add  [rax+0x01], ecx ; ret ; (1 found)
0x48e10e: push rbp ; add byte [rax-0x77], cl ; retn 0xC148 ; (2 found)
0x4a5bf0: push rbp ; add byte [rbp-0x36], dh ; ret ; (3 found)
0x429a9d: push rbp ; and byte [rax+0x39], cl ; retn 0x4473 ; (1 found)
0x456c2a: push rbp ; bsf eax, eax ; ret ; (2 found)
0x47fcad: push rbp ; call qword [rax+0x48068B48] ; (1 found)
0x41c62b: push rbp ; cmp byte [rax+0x39], cl ; ret ; (2 found)
0x469442: push rbp ; mov byte [rax-0x7D], cl ; ret ; (1 found)
0x41cdd9: push rbx ; adc byte [rax+0x01], cl ; retn 0x2B48 ; (1 found)
0x4049e1: push rbx ; adc byte [rax-0x7D], cl ; ret ; (1 found)
0x4bc75c: push rbx ; add  [rax-0x7D], ecx ; ret ; (1 found)
0x456d6e: push rbx ; bsf eax, eax ; ret ; (2 found)
0x49e5dc: push rbx ; lea rax, qword [rdi+rax+0x10] ; ret ; (1 found)
0x461eca: push rbx ; or byte [rax-0x7D], cl ; ret ; (2 found)
0x45fa0d: push rcx ; cld ; jmp qword [rsi+0x0F] ; (1 found)
0x4a07e4: push rcx ; mov eax, 0x0148051E ; retn 0xB848 ; (1 found)
0x46089e: push rcx ; ret ; (3 found)
0x474ed3: push rcx ; sti ; jmp qword [rsi+0x2E] ; (1 found)
0x44da9c: push rdi ; add eax, 0x0C478D48 ; ret ; (1 found)
0x4b9aee: push rdi ; add ecx,  [rax+0x63] ; ret ; (1 found)
0x437598: push rdi ; clc ; ret ; (70 found)
0x437710: push rdi ; cld ; ret ; (70 found)
0x417a13: push rdi ; idiv edi ; jmp qword [rsi+0x0F] ; (1 found)
0x43cf0a: push rdi ; mov qword [rdi-0x08], rcx ; ret ; (4 found)
0x4ae0ba: push rdi ; or byte [rcx+0x01], cl ; retn 0x894C ; (1 found)
0x480fca: push rdi ; or byte [rcx+0x29], cl ; retn 0x894C ; (1 found)
0x44dc80: push rdi ; or eax, 0x1C478D48 ; ret ; (1 found)
0x44d5e0: push rdi ; push cs ; ret ; (1 found)
0x4042aa: push rdi ; retn 0x0000 ; (1 found)
0x4601a8: push rdi ; retn 0x4000 ; (1 found)
0x4afce4: push rdi ; sti ; jmp qword [rsi+0x0F] ; (1 found)
0x494c28: push rdi ; xor eax, eax ; ret ; (1 found)
0x426016: push rdx ; adc byte [rcx+0x01], cl ; retn 0x3948 ; (1 found)
0x4bee4a: push rdx ; mov dl, 0xF6 ; jmp qword [rsi+0x0F] ; (1 found)
0x426c26: push rdx ; or byte [rcx+0x39], cl ; retn 0x850F ; (1 found)
0x436189: push rdx ; sar byte [rsi], 0x41 ; jmp rcx ; (60 found)
0x44d3c3: push rsi ; add ecx,  [rcx+0x0357890F] ; ret ; (1 found)
0x49e27b: push rsi ; cld ; jmp qword [rsi-0x70] ; (1 found)
0x4b7e16: push rsi ; idiv edi ; jmp qword [rsi+0x0F] ; (1 found)
0x44f5e6: push rsi ; lock sub eax, edx ; ret ; (1 found)
0x4607f9: push rsi ; ret ; (1 found)
0x404914: push rsi ; retn 0x0F02 ; (2 found)
0x485c5f: push rsi ; retn 0x0F20 ; (1 found)
0x49e060: push rsi ; retn 0x7420 ; (1 found)
0x484d43: push rsi ; retn 0x7440 ; (1 found)
0x44f606: push rsi ; sub eax, edx ; ret ; (2 found)
0x4a1138: push rsp ; and al, 0x38 ; call r12 ; (2 found)
0x464786: push rsp ; or  [rax], eax ; ret ; (1 found)
0x428f22: push rsp ; ret ; (4 found)
0x408c70: push rsp ; retn 0x000E ; (1 found)
0x429843: push rsp ; retn 0xE8F0 ; (2 found)
0x4bdf7a: push rsp ; std ; jmp qword [rsi-0x70] ; (2 found)
0x445880: pushfq ; adc eax, 0x83480000 ; retn 0xE910 ; (1 found)
0x401a34: pushfq ; idiv edi ; call qword [rax-0x18] ; (1 found)
0x4334b4: pushfq ; or eax, 0x83480000 ; retn 0xEB10 ; (1 found)
0x45a8b7: pushfq ; retn 0x394C ; (1 found)
0x45b161: pushfq ; retn 0xD089 ; (1 found)
0x427cb2: rcl  [0x00000000004F289D], 0xFFFFFF83 ; retn 0x8B01 ; (1 found)
0x475676: rcl byte [rax+0x48FFFFFF], 0x63 ; jmp qword [rax+rcx*2-0x75] ; (1 found)
0x425173: rcl byte [rax-0x3F76BBA5], 0x5D ; pop r12 ; ret ; (1 found)
0x44657c: rcr  [rdx], 0x0F ; xchg byte [rax+rcx-0x7CB80000], bl ; retn 0xE910 ; (1 found)
0x445d5c: rcr  [rdx], 0x0F ; xchg byte [rax+rdx-0x7CB80000], bh ; retn 0xE910 ; (1 found)
0x44587c: rcr  [rdx], 0x0F ; xchg byte [rbp+rdx-0x7CB80000], bl ; retn 0xE910 ; (1 found)
0x446a5c: rcr  [rdx], 0x0F ; xchg byte [rbx+rax-0x7CB80000], bh ; retn 0xE910 ; (1 found)
0x4bf770: rcr byte [rax+0x48FFFFFF], 0xC7 ; retn 0xFE20 ; (1 found)
0x42adc5: rcr byte [rbp+0x41], 0x5C ; pop r13 ; ret ; (2 found)
0x409781: rcr byte [rbp+0x41], 0x5C ; ret ; (11 found)
0x420292: rcr byte [rbp+0x41], 1 ; pop rsp ; ret ; (1 found)
0x480fd7: rcr byte [rbp+0x5B], 1 ; ret ; (2 found)
0x403b8a: rcr byte [rbx+0x5D], 0x41 ; pop rsp ; ret ; (4 found)
0x48cb3b: rcr edx, 0xFFFFFFFF ; call qword [rax+0x48BD8B48] ; (1 found)
0x45052d: rep movsb ; cld ; ret ; (1 found)
0x45051f: rep movsb ; ret ; (2 found)
0x45163f: rep movsb ; vmovdqu64  [r8], zmm16 ; ret ; (2 found)
0x44ffb0: rep ret ; (1 found)
0x451b67: rep stosb ; mov rax, rdx ; ret ; (6 found)
0x40101a: ret ; (3689 found)
0x4042ac: retn 0x0000 ; (48 found)
0x42c265: retn 0x0001 ; (5 found)
0x40a28c: retn 0x0002 ; (4 found)
0x47a12b: retn 0x0003 ; (6 found)
0x433d8e: retn 0x0004 ; (8 found)
0x403031: retn 0x0005 ; (6 found)
0x4b72ba: retn 0x0006 ; (1 found)
0x433a4a: retn 0x0007 ; (1 found)
0x434ba9: retn 0x0008 ; (6 found)
0x4045d7: retn 0x0009 ; (6 found)
0x40f80f: retn 0x000A ; (1 found)
0x405596: retn 0x000B ; (2 found)
0x408c6a: retn 0x000E ; (3 found)
0x418df2: retn 0x000F ; (2 found)
0x48d771: retn 0x0012 ; (1 found)
0x4137ce: retn 0x001C ; (1 found)
0x48ea4a: retn 0x0023 ; (1 found)
0x421f8a: retn 0x002B ; (1 found)
0x40ebde: retn 0x0038 ; (1 found)
0x4bf7c9: retn 0x0060 ; (1 found)
0x46019e: retn 0x0067 ; (1 found)
0x4232da: retn 0x006D ; (1 found)
0x42ffc8: retn 0x0080 ; (78 found)
0x48f624: retn 0x008B ; (1 found)
0x45cc14: retn 0x00B8 ; (5 found)
0x4a8b01: retn 0x00C6 ; (2 found)
0x485991: retn 0x00F8 ; (1 found)
0x48f7cf: retn 0x0107 ; (1 found)
0x428f5a: retn 0x0110 ; (2 found)
0x4015e7: retn 0x011E ; (1 found)
0x45aaf8: retn 0x0144 ; (5 found)
0x423426: retn 0x0148 ; (5 found)
0x477c38: retn 0x0149 ; (8 found)
0x40371c: retn 0x014D ; (12 found)
0x45ca95: retn 0x017E ; (3 found)
0x404bd2: retn 0x01A8 ; (1 found)
0x41903d: retn 0x01B8 ; (2 found)
0x4ab12a: retn 0x01C8 ; (1 found)
0x47562b: retn 0x0200 ; (1 found)
0x4018ca: retn 0x0233 ; (1 found)
0x4b8702: retn 0x0240 ; (1 found)
0x42a4d5: retn 0x02A8 ; (2 found)
0x485726: retn 0x02BE ; (1 found)
0x4beada: retn 0x0347 ; (1 found)
0x40ff14: retn 0x0348 ; (3 found)
0x425a7c: retn 0x0349 ; (1 found)
0x4a9d32: retn 0x0373 ; (1 found)
0x48a339: retn 0x0385 ; (1 found)
0x42270b: retn 0x0389 ; (2 found)
0x4b0c1a: retn 0x0426 ; (1 found)
0x4b4812: retn 0x0453 ; (1 found)
0x4a5996: retn 0x04C4 ; (1 found)
0x4ab052: retn 0x04EE ; (1 found)
0x4b86fa: retn 0x0530 ; (1 found)
0x4821ba: retn 0x055C ; (1 found)
0x466b5f: retn 0x0589 ; (2 found)
0x403f08: retn 0x058B ; (1 found)
0x4bf81b: retn 0x05A0 ; (1 found)
0x41b320: retn 0x05B8 ; (1 found)
0x46ceaa: retn 0x05B9 ; (1 found)
0x479d53: retn 0x05D7 ; (1 found)
0x46886d: retn 0x05F8 ; (1 found)
0x4bf844: retn 0x0600 ; (1 found)
0x49d9a8: retn 0x0676 ; (4 found)
0x4bf86d: retn 0x0680 ; (1 found)
0x41921a: retn 0x06AF ; (1 found)
0x458b36: retn 0x06DE ; (1 found)
0x4bf896: retn 0x0740 ; (1 found)
0x45aa4d: retn 0x076B ; (1 found)
0x4a23cb: retn 0x0774 ; (1 found)
0x4bf8bf: retn 0x07C0 ; (1 found)
0x4bf8e8: retn 0x0820 ; (1 found)
0x46f740: retn 0x0876 ; (2 found)
0x4a4384: retn 0x08A8 ; (1 found)
0x4bf728: retn 0x08E0 ; (1 found)
0x4817b8: retn 0x0941 ; (1 found)
0x4657da: retn 0x0944 ; (1 found)
0x47d1aa: retn 0x0948 ; (1 found)
0x448fc8: retn 0x094C ; (1 found)
0x4b5b3c: retn 0x0974 ; (1 found)
0x4b40b8: retn 0x0990 ; (1 found)
0x42959a: retn 0x09C0 ; (1 found)
0x4b00b7: retn 0x09EB ; (1 found)
0x45a106: retn 0x09F3 ; (1 found)
0x427cc2: retn 0x0A7E ; (1 found)
0x462952: retn 0x0ABE ; (2 found)
0x4aa168: retn 0x0C74 ; (1 found)
0x49ea71: retn 0x0C75 ; (1 found)
0x42b23a: retn 0x0C76 ; (1 found)
0x408283: retn 0x0C8B ; (1 found)
0x427ff9: retn 0x0CA8 ; (1 found)
0x4239d2: retn 0x0D19 ; (1 found)
0x4af324: retn 0x0D8B ; (1 found)
0x46001c: retn 0x0DEB ; (2 found)
0x4af243: retn 0x0E7F ; (1 found)
0x4afec8: retn 0x0F00 ; (1 found)
0x403c96: retn 0x0F01 ; (12 found)
0x404916: retn 0x0F02 ; (7 found)
0x41a66b: retn 0x0F03 ; (2 found)
0x4302a7: retn 0x0F04 ; (4 found)
0x48ecf9: retn 0x0F0C ; (1 found)
0x4288e5: retn 0x0F0F ; (2 found)
0x42d6b2: retn 0x0F10 ; (244 found)
0x40c655: retn 0x0F11 ; (1 found)
0x404d9d: retn 0x0F20 ; (2 found)
0x401246: retn 0x0F3C ; (1 found)
0x450119: retn 0x0F40 ; (15 found)
0x41b0f9: retn 0x0F41 ; (9 found)
0x45adac: retn 0x0F44 ; (5 found)
0x45ab72: retn 0x0F47 ; (1 found)
0x41b437: retn 0x0F48 ; (12 found)
0x460e0f: retn 0x0F49 ; (1 found)
0x47848f: retn 0x0F4D ; (3 found)
0x484d29: retn 0x0F50 ; (2 found)
0x40421e: retn 0x0F5B ; (1 found)
0x404042: retn 0x0F5D ; (1 found)
0x409f56: retn 0x0F66 ; (71 found)
0x424137: retn 0x0F8B ; (1 found)
0x4508e7: retn 0x0FC0 ; (2 found)
0x42c271: retn 0x0FC3 ; (38 found)
0x43ced0: retn 0x0FF2 ; (4 found)
0x42ea7a: retn 0x0FF3 ; (9 found)
0x40bf43: retn 0x110F ; (8 found)
0x480fac: retn 0x114D ; (2 found)
0x40c9e9: retn 0x13EB ; (2 found)
0x494ec8: retn 0x1576 ; (4 found)
0x4b4b5b: retn 0x160F ; (1 found)
0x46cc4c: retn 0x1676 ; (1 found)
0x493f76: retn 0x1774 ; (1 found)
0x46daf9: retn 0x1776 ; (4 found)
0x440dd0: retn 0x180F ; (1 found)
0x494c95: retn 0x1876 ; (1 found)
0x417e5c: retn 0x19E9 ; (2 found)
0x4a00e4: retn 0x1A76 ; (1 found)
0x47db69: retn 0x1B74 ; (1 found)
0x49dc72: retn 0x1C76 ; (1 found)
0x4a20fe: retn 0x1CE8 ; (1 found)
0x45fb3f: retn 0x1E74 ; (1 found)
0x49f8ec: retn 0x1F0F ; (1 found)
0x4a03ef: retn 0x1F76 ; (1 found)
0x478f41: retn 0x2040 ; (4 found)
0x4b78ed: retn 0x2044 ; (1 found)
0x4a7cf7: retn 0x2074 ; (1 found)
0x42a102: retn 0x2148 ; (5 found)
0x47043b: retn 0x2174 ; (2 found)
0x40b19c: retn 0x2274 ; (1 found)
0x4a98b0: retn 0x2275 ; (1 found)
0x49d98c: retn 0x2276 ; (1 found)
0x449f38: retn 0x2288 ; (2 found)
0x4b2fca: retn 0x2376 ; (1 found)
0x470f42: retn 0x2476 ; (1 found)
0x406b7c: retn 0x2548 ; (22 found)
0x4b36a5: retn 0x25E8 ; (1 found)
0x4495a6: retn 0x2774 ; (2 found)
0x437366: retn 0x280F ; (34 found)
0x494c85: retn 0x2876 ; (1 found)
0x4a08b5: retn 0x287F ; (1 found)
0x4a058f: retn 0x28F5 ; (7 found)
0x48497e: retn 0x290F ; (3 found)
0x449d67: retn 0x2920 ; (6 found)
0x486add: retn 0x2941 ; (1 found)
0x45ab28: retn 0x2944 ; (2 found)
0x45ad72: retn 0x2945 ; (1 found)
0x41d379: retn 0x2948 ; (3 found)
0x4163fb: retn 0x2949 ; (4 found)
0x41cb18: retn 0x294C ; (14 found)
0x49ea54: retn 0x2975 ; (1 found)
0x46bbfb: retn 0x29E9 ; (1 found)
0x41cddd: retn 0x2B48 ; (4 found)
0x4b0163: retn 0x2B49 ; (1 found)
0x48f585: retn 0x2E66 ; (1 found)
0x403272: retn 0x3145 ; (7 found)
0x4a6ec3: retn 0x314C ; (1 found)
0x40929b: retn 0x3325 ; (1 found)
0x47dcbe: retn 0x3489 ; (1 found)
0x47260f: retn 0x3673 ; (1 found)
0x46f712: retn 0x3676 ; (2 found)
0x4a0fa2: retn 0x3840 ; (3 found)
0x494c75: retn 0x3876 ; (1 found)
0x40d53b: retn 0x3948 ; (30 found)
0x4246cb: retn 0x3949 ; (8 found)
0x45a8b8: retn 0x394C ; (6 found)
0x41665d: retn 0x394D ; (4 found)
0x44fc12: retn 0x3A01 ; (3 found)
0x40327d: retn 0x3A77 ; (1 found)
0x45c5ca: retn 0x3AE9 ; (1 found)
0x426501: retn 0x3B48 ; (1 found)
0x40f630: retn 0x3C01 ; (1 found)
0x4bd239: retn 0x3C74 ; (1 found)
0x493601: retn 0x3C75 ; (1 found)
0x4ad720: retn 0x3D72 ; (1 found)
0x429d08: retn 0x3D74 ; (1 found)
0x4601aa: retn 0x4000 ; (1 found)
0x40b24d: retn 0x4001 ; (5 found)
0x46cc22: retn 0x4076 ; (1 found)
0x49e223: retn 0x408D ; (1 found)
0x4698cf: retn 0x4101 ; (21 found)
0x4a3b5b: retn 0x4102 ; (1 found)
0x404124: retn 0x4104 ; (4 found)
0x46588e: retn 0x4110 ; (5 found)
0x45d4d2: retn 0x4130 ; (2 found)
0x46948f: retn 0x4166 ; (1 found)
0x40d314: retn 0x4174 ; (1 found)
0x45a8dd: retn 0x4189 ; (1 found)
0x4031b6: retn 0x41C3 ; (1 found)
0x42eb4a: retn 0x4266 ; (2 found)
0x46dace: retn 0x4276 ; (3 found)
0x45b180: retn 0x4389 ; (3 found)
0x483ae0: retn 0x4402 ; (1 found)
0x4707ba: retn 0x4408 ; (4 found)
0x468450: retn 0x440F ; (1 found)
0x47915f: retn 0x4418 ; (1 found)
0x47bfaf: retn 0x4435 ; (1 found)
0x429aa1: retn 0x4473 ; (1 found)
0x41933c: retn 0x448B ; (2 found)
0x41e5c6: retn 0x44E8 ; (1 found)
0x45797a: retn 0x4501 ; (1 found)
0x42191f: retn 0x458B ; (1 found)
0x4afe5f: retn 0x45C6 ; (1 found)
0x45c3b7: retn 0x45C7 ; (1 found)
0x49ea37: retn 0x4675 ; (1 found)
0x4a3b26: retn 0x4776 ; (1 found)
0x487053: retn 0x47E8 ; (1 found)
0x4077a9: retn 0x4801 ; (36 found)
0x414ae7: retn 0x4802 ; (4 found)
0x489e14: retn 0x4803 ; (2 found)
0x4897c1: retn 0x4804 ; (3 found)
0x40137e: retn 0x4808 ; (41 found)
0x401372: retn 0x4810 ; (17 found)
0x4724f6: retn 0x4811 ; (2 found)
0x458572: retn 0x4817 ; (1 found)
0x45fb05: retn 0x4820 ; (1 found)
0x414fcd: retn 0x4830 ; (2 found)
0x4a3b89: retn 0x4838 ; (1 found)
0x42ea56: retn 0x4840 ; (1 found)
0x403ab2: retn 0x4853 ; (1 found)
0x46ccc0: retn 0x4858 ; (1 found)
0x423cc3: retn 0x4860 ; (1 found)
0x4874b3: retn 0x4864 ; (1 found)
0x424a70: retn 0x4866 ; (6 found)
0x43572b: retn 0x4880 ; (2 found)
0x4492fc: retn 0x48C3 ; (2 found)
0x41a0f0: retn 0x48E9 ; (2 found)
0x4096cc: retn 0x4901 ; (15 found)
0x46a2bc: retn 0x4902 ; (2 found)
0x45f72a: retn 0x4908 ; (4 found)
0x43348c: retn 0x4910 ; (75 found)
0x472ea7: retn 0x4911 ; (1 found)
0x4b51e4: retn 0x4918 ; (1 found)
0x4212de: retn 0x4A8D ; (1 found)
0x46ee29: retn 0x4B01 ; (1 found)
0x45dc56: retn 0x4C01 ; (3 found)
0x43476e: retn 0x4C04 ; (3 found)
0x415ce6: retn 0x4C08 ; (4 found)
0x4342e6: retn 0x4C20 ; (3 found)
0x415b4f: retn 0x4C40 ; (5 found)
0x434326: retn 0x4C60 ; (3 found)
0x485a47: retn 0x4D74 ; (1 found)
0x4bd90c: retn 0x4EE8 ; (1 found)
0x48f8b6: retn 0x4F8D ; (1 found)
0x47ff0a: retn 0x50E8 ; (1 found)
0x4a0554: retn 0x5180 ; (1 found)
0x403c86: retn 0x518D ; (1 found)
0x40df68: retn 0x5372 ; (1 found)
0x4031ac: retn 0x538D ; (1 found)
0x4a2007: retn 0x53E8 ; (1 found)
0x4a6981: retn 0x5441 ; (1 found)
0x460cb2: retn 0x5488 ; (1 found)
0x40c09f: retn 0x55BF ; (1 found)
0x4a92c4: retn 0x56E8 ; (1 found)
0x40335c: retn 0x58E9 ; (1 found)
0x458af7: retn 0x5941 ; (1 found)
0x46dc48: retn 0x5A58 ; (1 found)
0x494e80: retn 0x5D76 ; (2 found)
0x435af2: retn 0x5D77 ; (1 found)
0x455f52: retn 0x6200 ; (10 found)
0x4553c1: retn 0x6280 ; (2 found)
0x48b6ef: retn 0x6348 ; (2 found)
0x45a7e7: retn 0x634C ; (1 found)
0x49ea1a: retn 0x6375 ; (1 found)
0x424763: retn 0x63E9 ; (1 found)
0x472e7e: retn 0x6411 ; (1 found)
0x48de55: retn 0x6604 ; (1 found)
0x49e541: retn 0x6608 ; (2 found)
0x494c01: retn 0x6620 ; (1 found)
0x42b7cb: retn 0x66C3 ; (62 found)
0x459ae3: retn 0x6948 ; (4 found)
0x45a77c: retn 0x694D ; (5 found)
0x42550c: retn 0x6974 ; (1 found)
0x49e813: retn 0x6A76 ; (2 found)
0x40c0e1: retn 0x6AE9 ; (1 found)
0x4ae9ac: retn 0x6CE9 ; (1 found)
0x458560: retn 0x6DE9 ; (1 found)
0x45e1da: retn 0x6EB8 ; (1 found)
0x4657f4: retn 0x7400 ; (1 found)
0x42b2e0: retn 0x7402 ; (3 found)
0x465de3: retn 0x7404 ; (2 found)
0x491125: retn 0x7408 ; (1 found)
0x41eee1: retn 0x7420 ; (7 found)
0x484d45: retn 0x7440 ; (1 found)
0x425530: retn 0x7501 ; (7 found)
0x425528: retn 0x7502 ; (9 found)
0x41b21a: retn 0x7504 ; (3 found)
0x44f5b4: retn 0x7508 ; (1 found)
0x44e14b: retn 0x7510 ; (2 found)
0x42cf8a: retn 0x7520 ; (5 found)
0x44e165: retn 0x7540 ; (5 found)
0x4a9de5: retn 0x75E8 ; (1 found)
0x428ff6: retn 0x75E9 ; (1 found)
0x4a20a1: retn 0x79E8 ; (1 found)
0x45dc09: retn 0x7A8D ; (1 found)
0x49e4e1: retn 0x7E08 ; (3 found)
0x494ba1: retn 0x7E20 ; (7 found)
0x42d6fc: retn 0x7F10 ; (150 found)
0x42e8d9: retn 0x8000 ; (8 found)
0x4af7bb: retn 0x8001 ; (1 found)
0x4301a5: retn 0x8101 ; (6 found)
0x4041ec: retn 0x8141 ; (4 found)
0x42047f: retn 0x8148 ; (3 found)
0x484fc4: retn 0x8149 ; (1 found)
0x4bc8c1: retn 0x8166 ; (1 found)
0x4b237e: retn 0x8190 ; (1 found)
0x42d47d: retn 0x81C3 ; (6 found)
0x4a9395: retn 0x81E9 ; (1 found)
0x40e43d: retn 0x820F ; (4 found)
0x4031a5: retn 0x8301 ; (5 found)
0x419a5f: retn 0x8302 ; (1 found)
0x48ed04: retn 0x8304 ; (1 found)
0x430275: retn 0x8308 ; (6 found)
0x440982: retn 0x830F ; (4 found)
0x430240: retn 0x8310 ; (10 found)
0x430212: retn 0x8320 ; (6 found)
0x41addb: retn 0x8341 ; (13 found)
0x40c560: retn 0x8348 ; (55 found)
0x48bcb2: retn 0x8349 ; (2 found)
0x4aa18a: retn 0x8364 ; (1 found)
0x41035c: retn 0x83E9 ; (1 found)
0x408c46: retn 0x8401 ; (7 found)
0x4896f6: retn 0x8404 ; (1 found)
0x425148: retn 0x840F ; (17 found)
0x4b9d6d: retn 0x8440 ; (1 found)
0x4b8157: retn 0x8441 ; (1 found)
0x4aa2fb: retn 0x8445 ; (1 found)
0x41afe5: retn 0x8501 ; (2 found)
0x414aef: retn 0x850F ; (19 found)
0x421a75: retn 0x8548 ; (9 found)
0x47def0: retn 0x854D ; (1 found)
0x402bf0: retn 0x858B ; (1 found)
0x42c2ed: retn 0x85C3 ; (6 found)
0x486150: retn 0x85C7 ; (2 found)
0x4056f8: retn 0x860F ; (8 found)
0x47d134: retn 0x86E9 ; (1 found)
0x42238c: retn 0x870F ; (7 found)
0x4af811: retn 0x87F6 ; (2 found)
0x409731: retn 0x8801 ; (2 found)
0x40ca38: retn 0x8840 ; (1 found)
0x4060e0: retn 0x8901 ; (5 found)
0x48f6a1: retn 0x8904 ; (1 found)
0x41a75b: retn 0x8908 ; (2 found)
0x45ab01: retn 0x8941 ; (8 found)
0x45cb1a: retn 0x8944 ; (9 found)
0x41b5d2: retn 0x8945 ; (2 found)
0x40493e: retn 0x8948 ; (89 found)
0x40c2cb: retn 0x8949 ; (13 found)
0x4051c1: retn 0x894C ; (33 found)
0x4282f1: retn 0x894D ; (3 found)
0x48004b: retn 0x894E ; (1 found)
0x427cb9: retn 0x8B01 ; (1 found)
0x4636a7: retn 0x8B05 ; (1 found)
0x4076cb: retn 0x8B41 ; (3 found)
0x48bb91: retn 0x8B42 ; (1 found)
0x401c78: retn 0x8B48 ; (38 found)
0x4a7c2d: retn 0x8B49 ; (3 found)
0x47ffd2: retn 0x8B4A ; (2 found)
0x406ceb: retn 0x8B4C ; (18 found)
0x48ec84: retn 0x8D04 ; (1 found)
0x470815: retn 0x8D08 ; (2 found)
0x46e460: retn 0x8D0F ; (4 found)
0x413722: retn 0x8D41 ; (2 found)
0x45ab3f: retn 0x8D44 ; (1 found)
0x45adb8: retn 0x8D45 ; (2 found)
0x46b6dc: retn 0x8D47 ; (1 found)
0x401ebc: retn 0x8D48 ; (157 found)
0x42a561: retn 0x8D49 ; (5 found)
0x47d7f8: retn 0x8D4A ; (4 found)
0x486bc3: retn 0x8D4B ; (1 found)
0x428a13: retn 0x8D4C ; (5 found)
0x47618b: retn 0x8E0F ; (1 found)
0x47f779: retn 0x8F74 ; (1 found)
0x4a0925: retn 0x907E ; (1 found)
0x47f6ae: retn 0x9274 ; (1 found)
0x40fec8: retn 0x9575 ; (1 found)
0x4a07fb: retn 0x960F ; (1 found)
0x4167a2: retn 0x9D89 ; (1 found)
0x4bcfb8: retn 0xA2E8 ; (1 found)
0x4098be: retn 0xA801 ; (1 found)
0x46f6ae: retn 0xA8EB ; (1 found)
0x4654e1: retn 0xA9E8 ; (1 found)
0x428a2d: retn 0xB0EB ; (1 found)
0x429109: retn 0xB48B ; (2 found)
0x459b38: retn 0xB60F ; (10 found)
0x459e26: retn 0xB70F ; (5 found)
0x4299a9: retn 0xB817 ; (1 found)
0x4a07ea: retn 0xB848 ; (1 found)
0x459953: retn 0xB850 ; (5 found)
0x4a93b4: retn 0xB8EB ; (1 found)
0x4a4640: retn 0xBA41 ; (1 found)
0x4658dd: retn 0xBB10 ; (1 found)
0x4ba3a5: retn 0xBC80 ; (1 found)
0x4bd59e: retn 0xBCE8 ; (1 found)
0x465866: retn 0xBD10 ; (1 found)
0x426f8d: retn 0xBD41 ; (1 found)
0x4a3b67: retn 0xBF77 ; (1 found)
0x460161: retn 0xBF98 ; (1 found)
0x42e799: retn 0xC000 ; (8 found)
0x48144f: retn 0xC001 ; (1 found)
0x40386b: retn 0xC031 ; (9 found)
0x40d30c: retn 0xC083 ; (59 found)
0x4188f3: retn 0xC085 ; (44 found)
0x434f59: retn 0xC0FF ; (6 found)
0x403142: retn 0xC148 ; (73 found)
0x470fef: retn 0xC1E9 ; (1 found)
0x4787dc: retn 0xC220 ; (4 found)
0x425440: retn 0xC231 ; (1 found)
0x459951: retn 0xC281 ; (7 found)
0x424c68: retn 0xC372 ; (1 found)
0x40ed7c: retn 0xC389 ; (1 found)
0x4a9d89: retn 0xC475 ; (1 found)
0x4830b9: retn 0xC4EB ; (1 found)
0x455a65: retn 0xC500 ; (11 found)
0x424c03: retn 0xC572 ; (1 found)
0x451019: retn 0xC580 ; (4 found)
0x465713: retn 0xC600 ; (1 found)
0x40989f: retn 0xC602 ; (1 found)
0x46597e: retn 0xC610 ; (3 found)
0x4a08ef: retn 0xC67E ; (1 found)
0x48a8fc: retn 0xC689 ; (1 found)
0x44a294: retn 0xC748 ; (2 found)
0x45cc1b: retn 0xC801 ; (10 found)
0x4ad28b: retn 0xC829 ; (1 found)
0x4226fd: retn 0xC883 ; (2 found)
0x4353ba: retn 0xC919 ; (4 found)
0x426254: retn 0xC931 ; (4 found)
0x425514: retn 0xC983 ; (1 found)
0x42ceda: retn 0xC985 ; (2 found)
0x449e85: retn 0xC9FF ; (2 found)
0x48ed69: retn 0xCA08 ; (1 found)
0x42528b: retn 0xCA83 ; (3 found)
0x4271e9: retn 0xCAC1 ; (1 found)
0x4bd26e: retn 0xCB75 ; (1 found)
0x408abb: retn 0xCE80 ; (3 found)
0x4b19b8: retn 0xCE89 ; (1 found)
0x460357: retn 0xCFE9 ; (2 found)
0x41bc98: retn 0xD008 ; (4 found)
0x4092ab: retn 0xD089 ; (2 found)
0x473020: retn 0xD108 ; (1 found)
0x493f02: retn 0xD148 ; (1 found)
0x45d668: retn 0xD189 ; (1 found)
0x4ae922: retn 0xD1B8 ; (1 found)
0x4507e7: retn 0xD1F7 ; (5 found)
0x481536: retn 0xD348 ; (4 found)
0x4b8110: retn 0xD349 ; (2 found)
0x46d2bd: retn 0xD3E9 ; (1 found)
0x4be485: retn 0xD5E8 ; (1 found)
0x40ec8a: retn 0xD629 ; (2 found)
0x404f53: retn 0xD689 ; (1 found)
0x4114cf: retn 0xD729 ; (4 found)
0x45ca9c: retn 0xD789 ; (1 found)
0x4b7afd: retn 0xD8E9 ; (1 found)
0x46134a: retn 0xD8F7 ; (1 found)
0x403c8c: retn 0xDA89 ; (1 found)
0x4937cc: retn 0xDAF7 ; (1 found)
0x4b8793: retn 0xDB31 ; (1 found)
0x4a578d: retn 0xDBEB ; (1 found)
0x4af99c: retn 0xDE89 ; (1 found)
0x42e659: retn 0xE000 ; (8 found)
0x44e10d: retn 0xE074 ; (1 found)
0x4297a9: retn 0xE083 ; (6 found)
0x4bc21a: retn 0xE0E8 ; (1 found)
0x4b68c2: retn 0xE0E9 ; (1 found)
0x4041a5: retn 0xE281 ; (9 found)
0x40309b: retn 0xE283 ; (41 found)
0x466989: retn 0xE480 ; (2 found)
0x486e98: retn 0xE57F ; (1 found)
0x48a938: retn 0xE783 ; (6 found)
0x40921e: retn 0xE801 ; (1 found)
0x41b5f5: retn 0xE883 ; (2 found)
0x429844: retn 0xE8F0 ; (2 found)
0x4943bb: retn 0xE901 ; (2 found)
0x449f26: retn 0xE908 ; (2 found)
0x4456e6: retn 0xE910 ; (60 found)
0x42c7ec: retn 0xE975 ; (1 found)
0x487176: retn 0xE9F8 ; (2 found)
0x484904: retn 0xEAC0 ; (1 found)
0x40350a: retn 0xEAC1 ; (7 found)
0x41b139: retn 0xEB01 ; (2 found)
0x4afe80: retn 0xEB08 ; (2 found)
0x4334ba: retn 0xEB10 ; (15 found)
0x427232: retn 0xEB75 ; (1 found)
0x403c9a: retn 0xEBE9 ; (1 found)
0x40bc81: retn 0xEC75 ; (2 found)
0x422dd7: retn 0xEE75 ; (2 found)
0x4a9387: retn 0xEE7C ; (1 found)
0x415cf1: retn 0xEF72 ; (2 found)
0x42e519: retn 0xF000 ; (8 found)
0x40cec0: retn 0xF039 ; (1 found)
0x41e335: retn 0xF075 ; (1 found)
0x48c025: retn 0xF1E9 ; (1 found)
0x42521b: retn 0xF283 ; (3 found)
0x425192: retn 0xF289 ; (1 found)
0x42339e: retn 0xF390 ; (1 found)
0x4bf751: retn 0xF3A0 ; (1 found)
0x4942d1: retn 0xF475 ; (1 found)
0x4b9ff2: retn 0xF479 ; (1 found)
0x4300de: retn 0xF5C5 ; (4 found)
0x4b0322: retn 0xF631 ; (1 found)
0x4b259e: retn 0xF641 ; (1 found)
0x4bf0da: retn 0xF6AF ; (1 found)
0x4bebda: retn 0xF6B4 ; (1 found)
0x4582fa: retn 0xF70B ; (1 found)
0x468436: retn 0xF739 ; (1 found)
0x41d530: retn 0xF748 ; (9 found)
0x4558a3: retn 0xF77A ; (6 found)
0x42e3d9: retn 0xF800 ; (9 found)
0x40c980: retn 0xF839 ; (1 found)
0x45badf: retn 0xF883 ; (4 found)
0x48fe0a: retn 0xF928 ; (1 found)
0x4038e5: retn 0xF981 ; (2 found)
0x46897a: retn 0xF9D3 ; (1 found)
0x45c37a: retn 0xFA4D ; (1 found)
0x4afa2a: retn 0xFB5A ; (1 found)
0x4ade4a: retn 0xFB77 ; (1 found)
0x454c80: retn 0xFBC5 ; (3 found)
0x42e299: retn 0xFC00 ; (8 found)
0x45bb1a: retn 0xFC69 ; (1 found)
0x48a34a: retn 0xFD95 ; (1 found)
0x4bf7f2: retn 0xFDA0 ; (1 found)
0x48414a: retn 0xFDF7 ; (1 found)
0x42e159: retn 0xFE00 ; (8 found)
0x4bf777: retn 0xFE20 ; (1 found)
0x41e99a: retn 0xFE26 ; (1 found)
0x412ad3: retn 0xFEEB ; (1 found)
0x42e019: retn 0xFF00 ; (10 found)
0x43529f: retn 0xFF2D ; (8 found)
0x4bae8d: retn 0xFF3E ; (1 found)
0x415b39: retn 0xFF80 ; (11 found)
0x4653c0: retn 0xFF85 ; (2 found)
0x4072da: retn 0xFF9E ; (1 found)
0x40b862: retn 0xFFA0 ; (75 found)
0x420d26: retn 0xFFB8 ; (1 found)
0x47cd53: retn 0xFFBF ; (1 found)
0x42dd99: retn 0xFFC0 ; (8 found)
0x41159c: retn 0xFFCC ; (2 found)
0x42dc59: retn 0xFFE0 ; (13 found)
0x47beeb: retn 0xFFEE ; (1 found)
0x4111d5: retn 0xFFEF ; (2 found)
0x40b720: retn 0xFFF0 ; (10 found)
0x417302: retn 0xFFF1 ; (1 found)
0x4a4a98: retn 0xFFF2 ; (1 found)
0x45dcca: retn 0xFFF3 ; (1 found)
0x4a4e53: retn 0xFFF5 ; (2 found)
0x4bdb2a: retn 0xFFF6 ; (2 found)
0x472c1a: retn 0xFFF7 ; (1 found)
0x42d9d9: retn 0xFFF8 ; (14 found)
0x4a9c0a: retn 0xFFFA ; (1 found)
0x45898d: retn 0xFFFB ; (2 found)
0x41749a: retn 0xFFFC ; (10 found)
0x480b2b: retn 0xFFFD ; (2 found)
0x40dda6: retn 0xFFFE ; (19 found)
0x404d08: retn 0xFFFF ; (34 found)
0x49ef1c: rol  [rax+0x1E740FE1], 1 ; ret ; (1 found)
0x494c24: rol  [rbp+0x315775C0], 0xFFFFFFC0 ; ret ; (1 found)
0x49e564: rol  [rbp+0x316775C0], 0xFFFFFFC0 ; ret ; (1 found)
0x4496a4: rol  [rbp-0x0CA88B40], 0x0F ; mov esp, 0x77F8C5C0 ; ret ; (1 found)
0x494e93: rol  [rbp-0x3AA78A40], 0xFFFFFFFD ; xlatb ; retn 0xC085 ; (4 found)
0x434acf: rol  [rbp-0x3AD38A40], 0xFFFFFFFD ; xlatb ; retn 0xC085 ; (2 found)
0x4699d3: rol  [rcx+0x0F], 0x11 ; add al, ch ; ret ; (1 found)
0x404120: rol  [rcx+rcx*2], 0xFFFFFF83 ; retn 0x4104 ; (1 found)
0x4b8ac9: rol  [rcx-0x0A], cl ; ret ; (1 found)
0x46dfae: rol  [rdx+rdx*8-0x157E2A87], 1 ; retn 0x0000 ; (1 found)
0x463976: rol ax, 0x0008 ; ret ; (1 found)
0x44fcd5: rol bl, 0x48 ; mov eax, edi ; ret ; (1 found)
0x49e53e: rol bl, 0x83 ; retn 0x6608 ; (1 found)
0x494bfe: rol bl, 0x83 ; retn 0x6620 ; (1 found)
0x423d0f: rol bl, 1 ; mov eax, 0xFFFFFFFF ; ret ; (2 found)
0x434c1e: rol bl, 1 ; xor eax, eax ; ret ; (1 found)
0x4738f2: rol byte [0xFFFFFFFF898F38F8], cl ; retn 0x294C ; (1 found)
0x4bf74a: rol byte [rax+0x48FFFFFF], 0xC7 ; retn 0xF3A0 ; (1 found)
0x42ea52: rol byte [rax+0x48], 0x83 ; retn 0x4840 ; (1 found)
0x4495a2: rol byte [rax+0x49], 0x39 ; retn 0x2774 ; (2 found)
0x4720b0: rol byte [rax+rcx*2], 0x83 ; ret ; (1 found)
0x48f8c1: rol byte [rax+rcx*2], 0x89 ; retn 0x8348 ; (1 found)
0x465b0e: rol byte [rax-0x6AF0FFC8], cl ; retn 0x8348 ; (1 found)
0x46624a: rol byte [rax-0x6AF0FFC8], cl ; retn 0x8D48 ; (1 found)
0x466229: rol byte [rax-0x6BF0FFC8], cl ; retn 0x8D48 ; (2 found)
0x41f46c: rol byte [rax], 0x00 ; add byte [rbp+0x4F0F48C9], al ; retn 0x8948 ; (2 found)
0x465dde: rol byte [rax], 0x00 ; add dh, dh ; retn 0x7404 ; (2 found)
0x4a0ea1: rol byte [rax], 1 ; add byte [rax], al ; call r12 ; (1 found)
0x454c85: rol byte [rbp+0x622675C0], 0xB2 ; and byte [gs:rsi], ah ; ret ; (1 found)
0x434932: rol byte [rbp+0x664975C0], 0x0F ; xlatb ; retn 0xC085 ; (1 found)
0x45611e: rol byte [rbp-0x0C828B40], 0x0F ; mov esp, 0xF80148C0 ; ret ; (1 found)
0x455882: rol byte [rbp-0x0C868B40], 0x0F ; mov esp, 0xF80148C0 ; ret ; (2 found)
0x4558a6: rol byte [rbp-0x0CA68B40], 0x0F ; mov esp, 0xC80148C0 ; ret ; (2 found)
0x4a0435: rol byte [rbp-0x3AC98A40], 0xFB ; xchg eax, ebx ; retn 0xC085 ; (1 found)
0x457908: rol byte [rbp-0x3ACC8A40], 0xFB ; xchg eax, ebx ; retn 0xC085 ; (1 found)
0x49dcb2: rol byte [rbp-0x3AD68A40], 0xFB ; xchg eax, ebx ; retn 0xC085 ; (1 found)
0x47f867: rol byte [rbx-0x177CFD20], 0x01 ; ret ; (1 found)
0x49ef92: rol byte [rbx], 0x00 ; add byte [rax], al ; ret ; (1 found)
0x45ab2b: rol byte [rcx-0x77], cl ; ror byte [rbp+0x0F440752], 1 ; retn 0xB70F ; (1 found)
0x49ef72: rol byte [rcx], 0x00 ; add byte [rax], al ; ret ; (1 found)
0x403c82: rol byte [rcx], 0x0F ; scasd ; retn 0x518D ; (1 found)
0x4031a8: rol byte [rcx], 0x0F ; scasd ; retn 0x538D ; (1 found)
0x49efd2: rol byte [rdi], 0x00 ; add byte [rax], al ; ret ; (1 found)
0x49ef82: rol byte [rdx], 0x00 ; add byte [rax], al ; ret ; (1 found)
0x4b261e: rol byte [rdx], 0x00 ; add byte [rcx+0x248B4CE8], cl ; retn 0x0F41 ; (1 found)
0x41b31d: rol byte [rdx], 0xEB ; retn 0x05B8 ; (1 found)
0x49efc2: rol byte [rsi], 0x00 ; add byte [rax], al ; ret ; (1 found)
0x463977: rol eax, 0x08 ; ret ; (1 found)
0x4263e7: ror  [rax+0x21], cl ; ret ; (1 found)
0x402a5a: ror  [rax+0x29], cl ; ret ; (1 found)
0x4a52e6: ror  [rax+0x39], 1 ; retn 0x0F48 ; (2 found)
0x45e035: ror  [rax+0x39], 1 ; retn 0x830F ; (1 found)
0x4817bb: ror  [rax-0x39], 1 ; retn 0xFFFF ; (1 found)
0x4821b6: ror  [rax-0x73], 0x3D ; retn 0x055C ; (1 found)
0x465c7c: ror  [rax-0x75], 0x42 ; adc byte [rax-0x7D], cl ; retn 0x4810 ; (2 found)
0x4b91e0: ror  [rax-0x77], 1 ; retn 0xC148 ; (1 found)
0x40b24a: ror  [rax-0x7D], 1 ; retn 0x4001 ; (1 found)
0x4077a6: ror  [rax-0x7D], 1 ; retn 0x4801 ; (1 found)
0x4342e3: ror  [rax-0x7D], 1 ; retn 0x4C20 ; (3 found)
0x434303: ror  [rax-0x7D], 1 ; retn 0x4C40 ; (3 found)
0x434323: ror  [rax-0x7D], 1 ; retn 0x4C60 ; (3 found)
0x48de65: ror  [rax-0x7D], cl ; retn 0x4104 ; (1 found)
0x4af7b8: ror  [rax], 0xFFFFFF83 ; retn 0x8001 ; (1 found)
0x4b8902: ror  [rcx+0x09], cl ; ret ; (2 found)
0x41c51a: ror  [rcx+rcx*4-0x12], cl ; mov rdi, r15 ; call qword [rbp+0x38] ; (2 found)
0x4032b9: ror  [rcx+rcx*4-0x40], 0x5B ; ret ; (1 found)
0x4928d0: ror  [rcx-0x4EF00F30], 0x4D ; add byte [rsi+rdi-0x77], dh ; retn 0x48E9 ; (1 found)
0x4b8eb7: ror  [rcx-0x77], 1 ; ret ; (1 found)
0x4b8943: ror  [rcx-0x77], cl ; ret ; (2 found)
0x44e10b: ror  [rcx], cl ; retn 0xE074 ; (1 found)
0x433344: ror  [rdi-0x73], 0x14 ; or bh, byte [rsi] ; jmp r10 ; (5 found)
0x42254e: ror  [rdi], 0x11 ; adc byte [r8+0x39], r9L ; retn 0x870F ; (1 found)
0x422385: ror  [rdi], 0x11 ; or byte [r8+0x39], r9L ; retn 0x870F ; (1 found)
0x464b7b: ror  [rdi], 0x1F ; add byte [rax-0x77], cl ; retn 0x8348 ; (1 found)
0x45db81: ror  [rdi], 0xFFFFFF88 ; retn 0x0005 ; (1 found)
0x4b8798: ror  [rdi], 0xFFFFFF92 ; ret ; (1 found)
0x4031b3: ror  [rdi], 0xFFFFFFAF ; retn 0x41C3 ; (1 found)
0x4b87bb: ror  [rdi], 1 ; xchg eax, edx ; retn 0x0F40 ; (1 found)
0x4b16bf: ror  [rsp+rax+0x00000000], 0x00000000 ; pop rbx ; ret ; (1 found)
0x465a39: ror byte [r8-0x75], 1 ; adc byte [rax-0x7D], cl ; retn 0x4810 ; (1 found)
0x4558ae: ror byte [rax+0x01], 0xC8 ; ret ; (2 found)
0x434a0c: ror byte [rax+0x01], 0xC8 ; vzeroupper ; ret ; (1 found)
0x456334: ror byte [rax+0x01], 0xD0 ; ret ; (1 found)
0x448dde: ror byte [rax+0x01], 0xD0 ; vzeroupper ; ret ; (1 found)
0x43480c: ror byte [rax+0x01], 0xF8 ; add rax, rcx ; ret ; (1 found)
0x434982: ror byte [rax+0x01], 0xF8 ; ret ; (16 found)
0x4349de: ror byte [rax+0x01], 0xF8 ; vzeroupper ; ret ; (9 found)
0x4271ee: ror byte [rax+0x09], 1 ; ret ; (1 found)
0x46bcbd: ror byte [rax+0x0F], 0x44 ; ret ; (3 found)
0x417e59: ror byte [rax+0x0F], 0x44 ; retn 0x19E9 ; (1 found)
0x45a8ce: ror byte [rax+0x0F], 0x4F ; retn 0x8D48 ; (2 found)
0x40313e: ror byte [rax+0x0F], 0xAF ; retn 0xC148 ; (1 found)
0x460019: ror byte [rax+0x0F], 1 ; retn 0x0DEB ; (1 found)
0x424aee: ror byte [rax+0x0F], 1 ; retn 0x2B48 ; (1 found)
0x475557: ror byte [rax+0x0F], 1 ; retn 0x3949 ; (1 found)
0x4245ab: ror byte [rax+0x0F], 1 ; retn 0x8949 ; (2 found)
0x475546: ror byte [rax+0x0F], 1 ; retn 0x8B41 ; (1 found)
0x45ffd3: ror byte [rax+0x0F], 1 ; retn 0xC148 ; (1 found)
0x460354: ror byte [rax+0x0F], 1 ; retn 0xCFE9 ; (1 found)
0x457543: ror byte [rax+0x29], 0xD7 ; lea rax, qword [rdi+rax+0x20] ; ret ; (1 found)
0x457553: ror byte [rax+0x29], 0xD7 ; lea rax, qword [rdi+rax+0x40] ; ret ; (1 found)
0x449457: ror byte [rax+0x29], 1 ; clc ; ret ; (3 found)
0x4575b6: ror byte [rax+0x39], 0xC6 ; cmovb eax, esi ; ret ; (2 found)
0x424b40: ror byte [rax+0x39], 0xFA ; setnb al ; ret ; (1 found)
0x46b6d2: ror byte [rax+0x39], cl ; ret ; (1 found)
0x414aec: ror byte [rax+0x39], cl ; retn 0x850F ; (1 found)
0x4163f4: ror byte [rax+0x48004F44], 0x89 ; retn 0x2949 ; (2 found)
0x4bf799: ror byte [rax+0x48FFFFFF], 0xC7 ; retn 0xFFE0 ; (1 found)
0x4ad7cd: ror byte [rax+0x63], cl ; retn 0x8D48 ; (1 found)
0x429387: ror byte [rax+rcx*2], 0x8D ; push rsp ; ret ; (1 found)
0x48198a: ror byte [rax-0x39], cl ; ret ; (1 found)
0x42624a: ror byte [rax-0x39], cl ; retn 0x0000 ; (7 found)
0x4653b6: ror byte [rax-0x73], 0x05 ; add  [rax-0x76B7FFF9], eax ; retn 0xFF85 ; (1 found)
0x434972: ror byte [rax-0x73], 0x44 ; cmp al, dh ; ret ; (3 found)
0x4349a2: ror byte [rax-0x73], 0x44 ; cmp byte [rax], ah ; ret ; (3 found)
0x434992: ror byte [rax-0x73], 0x44 ; cmp byte [rax], dl ; ret ; (3 found)
0x49ffb3: ror byte [rax-0x73], 0x44 ; xchg  [rax], esp ; ret ; (2 found)
0x457c42: ror byte [rax-0x75], 0x05 ; ret ; (1 found)
0x465a3a: ror byte [rax-0x75], 1 ; adc byte [rax-0x7D], cl ; retn 0x4810 ; (1 found)
0x4a1c3f: ror byte [rax-0x77], 0xE2 ; mov eax, 0x00000010 ; syscall ; (1 found)
0x462c9d: ror byte [rax-0x77], 0xE2 ; mov eax, 0x000000CC ; syscall ; (1 found)
0x458ae6: ror byte [rax-0x77], 0xEF ; call rbx ; (1 found)
0x457f23: ror byte [rax-0x77], 0xEF ; lea r9, qword [rsp+0x30] ; call rbx ; (1 found)
0x41d879: ror byte [rax-0x77], 1 ; ret ; (1 found)
0x4a0da7: ror byte [rax-0x77], 1 ; retn 0xC148 ; (9 found)
0x40b802: ror byte [rax-0x77], 1 ; retn 0xE281 ; (1 found)
0x41f803: ror byte [rax-0x77], cl ; out dx, eax ; call qword [rax+0x00000080] ; (1 found)
0x41faed: ror byte [rax-0x77], cl ; out dx, eax ; call qword [rbx+0x00000080] ; (1 found)
0x427ff5: ror byte [rax-0x7D], 0x3D ; retn 0x0CA8 ; (1 found)
0x46f739: ror byte [rax-0x7D], 0xC0 ; add ecx,  [rax+0x39] ; retn 0x0876 ; (1 found)
0x46cc45: ror byte [rax-0x7D], 0xC0 ; add ecx,  [rax+0x39] ; retn 0x1676 ; (1 found)
0x46daf2: ror byte [rax-0x7D], 0xC0 ; add ecx,  [rax+0x39] ; retn 0x1776 ; (3 found)
0x42222a: ror byte [rax-0x7D], 0xC4 ; or byte [rbx+0x5D], bl ; ret ; (2 found)
0x4a1b27: ror byte [rax-0x7D], 0xC4 ; pop rax ; ret ; (1 found)
0x4219ed: ror byte [rax-0x7D], 0xC4 ; sbb byte [rbx+0x5D], bl ; ret ; (1 found)
0x4677fe: ror byte [rax-0x7D], 1 ; ret ; (2 found)
0x4bc5c5: ror byte [rax], 0x49 ; mov  [rax], edx ; ret ; (2 found)
0x45ab2e: ror byte [rbp+0x0F440752], 1 ; retn 0xB70F ; (1 found)
0x4a444f: ror byte [rbp+rcx*4+0x34], 1 ; ret ; (1 found)
0x4afe7d: ror byte [rbp-0x73], 1 ; retn 0xEB08 ; (1 found)
0x460823: ror byte [rbx+0x3108247C], 0xC0 ; syscall ; (1 found)
0x4283f1: ror byte [rbx+rcx*4+0x44], 0x24 ; sbb byte [rax-0x77], cl ; retn 0x850F ; (1 found)
0x489e5c: ror byte [rbx-0x76BF29AC], cl ; adc  [rax+0x39], ecx ; ret ; (1 found)
0x4b2e02: ror byte [rcx+0x046E8705], 0x00 ; add rsp, 0x18 ; ret ; (1 found)
0x4ae737: ror byte [rcx+0x0F486611], 0x7E ; retn 0xC148 ; (1 found)
0x464e82: ror byte [rcx+0x0F], 1 ; retn 0x3948 ; (1 found)
0x41b431: ror byte [rcx+0x39482C4B], cl ; retn 0x0F48 ; (1 found)
0x4707d1: ror byte [rcx+0x3948FC51], cl ; ret ; (2 found)
0x41d1d1: ror byte [rcx+rcx*4-0x01], cl ; call qword [r14+0x00000080] ; (1 found)
0x41d78d: ror byte [rcx+rcx*4-0x01], cl ; call qword [rbx+0x00000080] ; (1 found)
0x4932fb: ror byte [rcx+rcx*4-0x39], cl ; mov eax, 0x000000CA ; syscall ; (1 found)
0x40c5e6: ror byte [rcx+rcx*4-0x40], 0x5B ; pop rbp ; ret ; (2 found)
0x4842ad: ror byte [rcx+rcx*4-0x40], cl ; ret ; (1 found)
0x48d0ac: ror byte [rcx-0x75], cl ; adc al, 0xD0 ; jmp rdx ; (1 found)
0x493f9b: ror byte [rcx-0x77], 0x30 ; ret ; (1 found)
0x41838b: ror byte [rcx-0x77], cl ; ret ; (1 found)
0x4b0d02: ror byte [rcx-0x7D], 1 ; retn 0x4901 ; (1 found)
0x46ee26: ror byte [rcx-0x7D], cl ; retn 0x4B01 ; (1 found)
0x4758e2: ror byte [rdi], 0x00 ; add byte [rax], al ; syscall ; (2 found)
0x464781: ror byte [rdi], 0x11 ; add eax, 0x000954D7 ; ret ; (1 found)
0x423e28: ror byte [rdi], 0x11 ; pop rbx ; ret ; (1 found)
0x4613db: ror byte [rdi], 0x1F ; add byte [rax-0x39], cl ; retn 0xFFA0 ; (1 found)
0x42722c: ror byte [rdi], 0x29 ; add byte [rax+0x39], cl ; retn 0xEB75 ; (1 found)
0x4b3e14: ror byte [rdi], 0x44 ; lock mov eax, 0x0000009E ; syscall ; (1 found)
0x462f60: ror byte [rdi], 0x44 ; retn 0x66C3 ; (1 found)
0x462d24: ror byte [rdi], 0x44 ; retn 0x8348 ; (1 found)
0x472eb8: ror byte [rdi], 0x48 ; retn 0xC083 ; (1 found)
0x41c241: ror byte [rdi], 0x84 ; mov  [rax], 0x89480000 ; ret ; (1 found)
0x42956c: ror byte [rdi], 0x84 ; ret ; (2 found)
0x4be1d7: ror byte [rdi], 0x84 ; retn 0x0000 ; (1 found)
0x40f80c: ror byte [rdi], 0x84 ; retn 0x000A ; (1 found)
0x48d76e: ror byte [rdi], 0x84 ; retn 0x0012 ; (1 found)
0x480b28: ror byte [rdi], 0x84 ; retn 0xFFFD ; (1 found)
0x4738ef: ror byte [rdi], 0x84 ; rol byte [0xFFFFFFFF898F38F8], cl ; retn 0x294C ; (1 found)
0x4b1c55: ror byte [rdi], 0x85 ; retn 0x0000 ; (1 found)
0x4137cb: ror byte [rdi], 0x8E ; retn 0x001C ; (1 found)
0x463f0d: ror byte [rdi], 0x94 ; ret ; (3 found)
0x4a0f9f: ror byte [rdi], 0x94 ; retn 0x3840 ; (3 found)
0x476355: ror byte [rdi], 0x9E ; retn 0xD008 ; (1 found)
0x450669: ror byte [rdi], 1 ; adc  [rdi+rdx-0x40], edi ; ret ; (1 found)
0x459e24: ror byte [rdi], 1 ; retn 0xB70F ; (1 found)
0x477cb7: ror byte [rdi], 1 ; retn 0xC801 ; (4 found)
0x434b66: ror byte [rdi], 1 ; test  [rax+rax-0x08B70000], ecx ; retn 0x0002 ; (1 found)
0x45d82e: ror byte [rdi], cl ; retn 0xC083 ; (2 found)
0x4b7391: ror byte [rdi], cl ; xchg eax, ebp ; retn 0xD348 ; (1 found)
0x4b466e: sahf ; cli ; jmp qword [rsi+0x2E] ; (1 found)
0x455f12: sahf ; lea rax, qword [rdi+rax+0x40] ; ret ; (1 found)
0x4b414e: sahf ; ret ; (1 found)
0x4a0e73: sahf ; retn 0x2148 ; (1 found)
0x476357: sahf ; retn 0xD008 ; (1 found)
0x489a90: sahf ; std ; jmp qword [rsi+0x2E] ; (1 found)
0x4a867f: sal  [rbp-0x2A], 1 ; mov eax,  [rcx] ; ret ; (1 found)
0x4566f1: sal  [rbp-0x44], 0xFFFFFF83 ; retn 0x8320 ; (2 found)
0x4c00f6: sal  [rcx+rcx*4+0x48], 0xFFFFFF89 ; retn 0xC148 ; (1 found)
0x4bfc9e: sal  [rdi+rax*4+0x48], 0xFFFFFF89 ; retn 0xC148 ; (1 found)
0x4bfdf6: sal  [rdx+rcx*4+0x48], 0xFFFFFF89 ; retn 0xC148 ; (1 found)
0x464936: sal  [rsi+0x24], 1 ; ret ; (1 found)
0x4bbd1c: sal bh, 0xFF ; inc  [rbx-0x7AF0F808] ; retn 0xFFFE ; (1 found)
0x42e8d7: sal bh, 1 ; retn 0x8000 ; (8 found)
0x42e797: sal bh, 1 ; retn 0xC000 ; (8 found)
0x42e657: sal bh, 1 ; retn 0xE000 ; (8 found)
0x42e517: sal bh, 1 ; retn 0xF000 ; (8 found)
0x42e3d7: sal bh, 1 ; retn 0xF800 ; (8 found)
0x42e297: sal bh, 1 ; retn 0xFC00 ; (8 found)
0x42e157: sal bh, 1 ; retn 0xFE00 ; (8 found)
0x42e017: sal bh, 1 ; retn 0xFF00 ; (8 found)
0x42ded7: sal bh, 1 ; retn 0xFF80 ; (8 found)
0x42dd97: sal bh, 1 ; retn 0xFFC0 ; (8 found)
0x42dc57: sal bh, 1 ; retn 0xFFE0 ; (8 found)
0x42db17: sal bh, 1 ; retn 0xFFF0 ; (8 found)
0x42d9d7: sal bh, 1 ; retn 0xFFF8 ; (8 found)
0x42d897: sal bh, 1 ; retn 0xFFFC ; (8 found)
0x42d757: sal bh, 1 ; retn 0xFFFE ; (8 found)
0x49d855: sal byte [rax+rcx*2-0x0D], 0x0F ; mov esp, 0xF80148C0 ; ret ; (2 found)
0x4ab7d5: sal byte [rbp+0x02], cl ; call rax ; (1 found)
0x451b56: sal byte [rbp+0x04], cl ; mov rax, rdi ; ret ; (1 found)
0x45f2f8: sal byte [rbp+0x05], 0x48 ; add esp, 0x08 ; ret ; (1 found)
0x420cb8: sal byte [rbp+0x05], cl ; ret ; (1 found)
0x40b857: sal byte [rbp+0x06], 0x5D ; ret ; (1 found)
0x4636c2: sal byte [rbp+0x0B], cl ; ret ; (1 found)
0x475ade: sal byte [rbp+0x0F], 0x48 ; add esp, 0x08 ; ret ; (1 found)
0x4aaffe: sal byte [rbp+0x10], cl ; mov qword [rbp-0x000000B0], r10 ; call rax ; (1 found)
0x4b23e6: sal byte [rbp+0x27], 0xE9 ; retn 0xFFFE ; (1 found)
0x4a00c2: sal byte [rbp+0x2B], 0x83 ; retn 0x0F10 ; (1 found)
0x49dc50: sal byte [rbp+0x2D], 0x83 ; retn 0x0F40 ; (1 found)
0x4a03cd: sal byte [rbp+0x30], 0x83 ; retn 0x0F10 ; (1 found)
0x49d96a: sal byte [rbp+0x33], 0x83 ; retn 0x0F40 ; (1 found)
0x494e61: sal byte [rbp+0x5C], 0x83 ; retn 0x0F40 ; (2 found)
0x49e7f4: sal byte [rbp+0x69], 0x83 ; retn 0x0F40 ; (2 found)
0x41d660: sal byte [rbp+rbp*2+0x49], 0x2B ; and byte [r8+0x01], r9L ; ret ; (1 found)
0x456120: sal byte [rbp+rdi*2-0x0D], 0x0F ; mov esp, 0xF80148C0 ; ret ; (1 found)
0x49ef18: sal byte [rbp+rdx-0x78], cl ; rol  [rax+0x1E740FE1], 1 ; ret ; (1 found)
0x49e29c: sal byte [rbp-0x0F], cl ; ret ; (1 found)
0x44fe40: sal byte [rbp-0x13], cl ; lea rax, qword [rcx-0x01] ; ret ; (1 found)
0x422138: sal byte [rbp-0x13], cl ; ret ; (2 found)
0x4b15c4: sal byte [rbp-0x17], cl ; ret ; (1 found)
0x42ebfb: sal byte [rbp-0x1E], 0x31 ; shr byte [rcx], 0xC8 ; ret ; (1 found)
0x4301bc: sal byte [rbp-0x1F], 0x29 ; enter 0xF8C5, 0x77 ; ret ; (1 found)
0x434651: sal byte [rbp-0x24], 0x29 ; enter 0xF8C5, 0x77 ; ret ; (1 found)
0x40b81c: sal byte [rbp-0x27], cl ; ret ; (1 found)
0x494f21: sal byte [rbp-0x64], 0x83 ; retn 0x0F40 ; (2 found)
0x49e8c4: sal byte [rbp-0x67], 0x83 ; retn 0x0F40 ; (2 found)
0x424150: sal byte [rbx+0x25], 1 ; movzx eax, byte [rax] ; ret ; (1 found)
0x45ece6: sal byte [rbx+rbp+0x5B], 0x5D ; pop r12 ; ret ; (1 found)
0x449834: sal byte [rcx+rbp*2-0x0D], 0x0F ; mov esp, 0x77F8C5C0 ; ret ; (1 found)
0x45f56b: sal byte [rcx+rbx*2+0x48], 0x89 ; retn 0x8348 ; (1 found)
0x4558a8: sal byte [rcx+rbx*2-0x0D], 0x0F ; mov esp, 0xC80148C0 ; ret ; (2 found)
0x455884: sal byte [rcx+rdi*2-0x0D], 0x0F ; mov esp, 0xF80148C0 ; ret ; (2 found)
0x44939c: sal byte [rcx+rdx+0x48], cl ; bsf eax, edx ; ret ; (2 found)
0x46536c: sal byte [rcx+rdx+0x48], cl ; lea edi,  [rcx+rax+0x48] ; jmp rdx ; (1 found)
0x423817: sal byte [rcx], cl ; test byte [rax-0x77], 0xDF ; call qword [rcx+0x58] ; (1 found)
0x4a3846: sal byte [rdi+0x48], 0x89 ; ret ; (1 found)
0x4a8462: sal byte [rdi+rbp*8+0x31], 0xC0 ; ret ; (1 found)
0x4496a6: sal byte [rdi+rdx*2-0x0D], 0x0F ; mov esp, 0x77F8C5C0 ; ret ; (1 found)
0x457336: sal byte [rdi-0x0D], 0x0F ; mov esp, 0xC031C3C0 ; ret ; (2 found)
0x44956b: sal byte [rdx+0x48], cl ; bsf eax, edx ; ret ; (1 found)
0x401011: sal byte [rdx+rax-0x01], 0xD0 ; add rsp, 0x08 ; ret ; (1 found)
0x449f33: sal byte [rdx+rdx+0x48], 0xFF ; retn 0x2288 ; (2 found)
0x40b71b: sal byte [rdx+rsi*2+0x48], 0xC7 ; retn 0xFFF0 ; (1 found)
0x42283e: sal byte [rsi+0x27], 1 ; mov rdi, rbx ; call qword [rbp+0x20] ; (1 found)
0x491933: sal byte [rsi+0x2A], 1 ; mov rdi, rbx ; call qword [rbp+0x30] ; (1 found)
0x42335e: sal byte [rsi+0x2F], 1 ; mov rdi, rbx ; call qword [rbp+0x30] ; (1 found)
0x4216ef: sal byte [rsi+0x36], 1 ; mov rdi, rbp ; call qword [rbx+0x00000088] ; (1 found)
0x490dbe: sal byte [rsi+0x3F], 1 ; mov rdi, rbx ; call qword [rbp+0x20] ; (1 found)
0x41c142: sal byte [rsi+0x4B], 1 ; mov rdi, rbx ; call qword [rbp+0x60] ; (1 found)
0x422788: sal byte [rsi+0x65], 1 ; mov rdi, rbx ; call qword [rbp+0x68] ; (1 found)
0x44933f: sal byte [rsi+rdi*2+0x48], cl ; bsf eax, edx ; ret ; (1 found)
0x428a0e: sal byte [rsp+rdi+0x48], 0x89 ; retn 0x8D4C ; (1 found)
0x488dca: sal ch, 0xFF ; jmp qword [rsi-0x70] ; (2 found)
0x4a8d32: sal ch, 1 ; jmp qword [rsi+0x2E] ; (1 found)
0x4862ec: sal dh, 1 ; retn 0x0F40 ; (1 found)
0x450797: sal ebx, 1 ; movsb ; ret ; (1 found)
0x4ad208: sal edi, 0xFFFFFFD8 ; ret ; (1 found)
0x492744: salc ; and esi, 0x00000080 ; syscall ; (1 found)
0x48c5a4: salc ; call qword [r14+0x38] ; (1 found)
0x48a550: salc ; call qword [r15+0x38] ; (1 found)
0x45029e: salc ; clc ; ret ; (1 found)
0x419649: salc ; jmp rdx ; (5 found)
0x4a8681: salc ; mov eax,  [rcx] ; ret ; (1 found)
0x4190be: salc ; mov rdi, rbp ; call qword [r15+0x38] ; (1 found)
0x41a511: salc ; mov rdi, rbp ; call qword [rbx+0x38] ; (1 found)
0x480ffc: salc ; movd xmm0, xmm6 ; ret ; (1 found)
0x480e36: salc ; sub bh, dh ; jmp qword [rsi+0x0F] ; (1 found)
0x440d21: sar  [rax+rcx*2+0x11], 1 ; jmp qword [r10-0x2F] ; (1 found)
0x464f08: sar  [rbp-0x73], 0xFFFFFFC3 ; nop  [rax+0x00] ; ret ; (1 found)
0x485a45: sar  [rcx], cl ; retn 0x4D74 ; (1 found)
0x44092f: sar  [rdx+0x7F], 0x49 ; lock ret ; (1 found)
0x4166d5: sar  [rsi], 1 ; jmp rcx ; (2 found)
0x4bba94: sar ah, 0xFF ; jmp qword [rsi+0x0F] ; (2 found)
0x4ae865: sar bh, 0xFF ; ret ; (1 found)
0x4049bd: sar bh, 1 ; dec  [rax-0x39] ; ret ; (1 found)
0x4be7b9: sar bh, 1 ; dec  [rax-0x77] ; ret ; (1 found)
0x4be5bf: sar bh, cl ; jmp qword [rsi+0x0F] ; (1 found)
0x42868a: sar bh, cl ; jmp qword [rsi-0x70] ; (2 found)
0x4021c0: sar bl, 0xFF ; call qword [rcx+0x48] ; (1 found)
0x4a18ee: sar byte [r8+0x000000D9], 1 ; syscall ; (1 found)
0x4923df: sar byte [rax+0x000000CA], cl ; syscall ; (1 found)
0x4a18ef: sar byte [rax+0x000000D9], 1 ; syscall ; (1 found)
0x4a1d8a: sar byte [rdi-0x08], cl ; dec  [rax-0x77] ; ret ; (1 found)
0x424cba: sar byte [rdx+0x00000001], cl ; mov eax, 0x000000CA ; syscall ; (1 found)
0x4625d1: sar byte [rsi+0x00000001], cl ; call r12 ; (1 found)
0x43618a: sar byte [rsi], 0x41 ; jmp rcx ; (60 found)
0x40dffa: sar byte [rsi], 1 ; jmp rax ; (22 found)
0x440ecb: sar ch, 0xFF ; jmp qword [rdx-0x0F] ; (1 found)
0x40e1ee: sar cl, 0xFF ; jmp qword [rsi+0x0F] ; (1 found)
0x4b4c1e: sar dh, 1 ; jmp qword [rax+rcx*2-0x75] ; (1 found)
0x466543: sar dl, 0xFF ; jmp qword [rsi+0x0F] ; (1 found)
0x491a1c: sar eax, 0x02 ; sub eax, 0x01 ; ret ; (1 found)
0x4a35ea: sar ebp, 0xFFFFFFFF ; jmp qword [rsi-0x70] ; (1 found)
0x46897b: sar ecx, cl ; jmp qword [rsi-0x70] ; (1 found)
0x49fdb6: sar edi, 0x02 ; lea eax,  [rdi+rax+0x08] ; ret ; (1 found)
0x49fdc6: sar edi, 0x02 ; lea eax,  [rdi+rax+0x10] ; ret ; (1 found)
0x49fdd6: sar edi, 0x02 ; lea eax,  [rdi+rax+0x18] ; ret ; (1 found)
0x49fde6: sar edi, 0x02 ; lea eax,  [rdi+rax+0x20] ; ret ; (1 found)
0x459745: sar edi, 0x02 ; lea rax, qword [rdi+rax+0x08] ; ret ; (2 found)
0x459704: sar edi, 0x02 ; lea rax, qword [rdi+rax+0x10] ; ret ; (2 found)
0x4597ef: sar edi, 0x02 ; lea rax, qword [rdi+rax+0x18] ; ret ; (1 found)
0x459794: sar edi, 0x02 ; lea rax, qword [rdi+rax+0x20] ; ret ; (1 found)
0x491ac6: sar edx, 0x02 ; sub eax, edx ; ret ; (2 found)
0x4a405b: sar edx, 0xFFFFFFFF ; call qword [rax-0x01077A3A] ; (1 found)
0x458b43: sar edx, 1 ; jmp qword [rsi+0x2E] ; (1 found)
0x457dae: sar esi, 0xFFFFFFFF ; jmp qword [rsi+0x0F] ; (2 found)
0x47676c: sar esi, 1 ; call qword [rax-0x05E1F00D] ; (1 found)
0x491a1b: sar rax, 0x02 ; sub eax, 0x01 ; ret ; (1 found)
0x459744: sar rdi, 0x02 ; lea rax, qword [rdi+rax+0x08] ; ret ; (2 found)
0x459703: sar rdi, 0x02 ; lea rax, qword [rdi+rax+0x10] ; ret ; (2 found)
0x4597ee: sar rdi, 0x02 ; lea rax, qword [rdi+rax+0x18] ; ret ; (1 found)
0x459793: sar rdi, 0x02 ; lea rax, qword [rdi+rax+0x20] ; ret ; (1 found)
0x491ac5: sar rdx, 0x02 ; sub eax, edx ; ret ; (2 found)
0x49a1b8: sbb  [r8], r8d ; add byte [rax-0x7D], cl ; retn 0xE910 ; (1 found)
0x41b136: sbb  [rax-0x7D], ecx ; retn 0xEB01 ; (1 found)
0x49a141: sbb  [rax], eax ; add byte [rax-0x7D], cl ; retn 0x4910 ; (1 found)
0x49a1b9: sbb  [rax], eax ; add byte [rax-0x7D], cl ; retn 0xE910 ; (1 found)
0x462ff9: sbb  [rax], eax ; add byte [rax], al ; syscall ; (1 found)
0x45fd83: sbb  [rdx+rdi*8], edx ; dec  [rax-0x77] ; ret ; (1 found)
0x461775: sbb al, 0x00 ; add byte [rax], al ; syscall ; (1 found)
0x4ad026: sbb al, 0x24 ; add rsp, 0x18 ; jmp r11 ; (3 found)
0x4ac914: sbb al, 0x24 ; add rsp, 0x30 ; jmp r11 ; (3 found)
0x4aca02: sbb al, 0x24 ; add rsp, 0x30 ; ret ; (3 found)
0x4a0985: sbb al, 0x24 ; call rbx ; (1 found)
0x49dc74: sbb al, 0x48 ; lea eax,  [rdi+rax+0x40] ; ret ; (1 found)
0x4bfa20: sbb al, 0x63 ; hlt ; jmp qword [rsi+0x2E] ; (1 found)
0x492303: sbb al, 0x83 ; ret ; (1 found)
0x493e20: sbb al, 0xB0 ; clc ; jmp qword [rsi+0x2E] ; (1 found)
0x4b21a0: sbb al, 0xE9 ; retn 0x0005 ; (1 found)
0x45f8cb: sbb al, 0xF4 ; mov eax, esi ; syscall ; (1 found)
0x4b40f2: sbb al, 0xF5 ; jmp qword [rsi+0x2E] ; (2 found)
0x484087: sbb al, 0xF8 ; jmp qword [rsi+0x0F] ; (1 found)
0x41db08: sbb al, ch ; retn 0x0009 ; (1 found)
0x491e80: sbb bh, ch ; jmp qword [rsi+0x66] ; (1 found)
0x48fff3: sbb bh, dh ; jmp qword [rsi+0x2E] ; (1 found)
0x464304: sbb bh, dl ; jmp qword [rsi+0x0F] ; (1 found)
0x4597f6: sbb bl, al ; mov rax, r8 ; ret ; (1 found)
0x4b0862: sbb bl, byte [rbx-0x7CB6FFFC] ; retn 0x4801 ; (1 found)
0x4864ed: sbb byte [0xFFFFFFFFEFCBA5F3], al ; add  [rax+0x39], ecx ; ret ; (1 found)
0x4844e1: sbb byte [r8+0x2B], cl ; sub byte [r9+r9*4+0x04], cl ; retn 0x8B4C ; (1 found)
0x4ada38: sbb byte [r8+0x5A], bl ; pop rbx ; ret ; (2 found)
0x42216a: sbb byte [r8-0x77], r9L ; movups  [rdi+0x08], xmm1 ; ret ; (1 found)
0x46077b: sbb byte [rax+0x00000101], bh ; syscall ; (1 found)
0x4844e2: sbb byte [rax+0x2B], cl ; sub byte [r9+r9*4+0x04], cl ; retn 0x8B4C ; (1 found)
0x4b1218: sbb byte [rax+0x39], cl ; ret ; (2 found)
0x4b1217: sbb byte [rax+0x39], r9L ; ret ; (2 found)
0x4ada39: sbb byte [rax+0x5A], bl ; pop rbx ; ret ; (2 found)
0x45d1a5: sbb byte [rax+0x63], cl ; retn 0x8944 ; (1 found)
0x42a0b6: sbb byte [rax-0x39], cl ; ret ; (1 found)
0x4b4169: sbb byte [rax-0x39], cl ; retn 0xFFF8 ; (1 found)
0x4034b2: sbb byte [rax-0x75], cl ; and al, 0x08 ; call rax ; (1 found)
0x4bc4ca: sbb byte [rax-0x75], cl ; or byte [rax-0x77], cl ; ret ; (1 found)
0x47d675: sbb byte [rax-0x76B7CF05], al ; mov byte [rcx+0x0F], 0x95 ; ret ; (1 found)
0x4221a6: sbb byte [rax-0x77], cl ; movups  [rdi+0x08], xmm0 ; ret ; (1 found)
0x42216b: sbb byte [rax-0x77], cl ; movups  [rdi+0x08], xmm1 ; ret ; (1 found)
0x45ed37: sbb byte [rax-0x77], cl ; ret ; (1 found)
0x406bfb: sbb byte [rax-0x77], cl ; retn 0x2548 ; (4 found)
0x4283f6: sbb byte [rax-0x77], cl ; retn 0x850F ; (1 found)
0x4bd5a8: sbb byte [rax-0x77], cl ; retn 0x8548 ; (1 found)
0x4064bd: sbb byte [rax-0x77], cl ; retn 0x8948 ; (2 found)
0x4bd59b: sbb byte [rax-0x77], cl ; retn 0xBCE8 ; (1 found)
0x46a2f0: sbb byte [rax-0x7D], cl ; ret ; (2 found)
0x460455: sbb byte [rax], al ; add byte [rax], al ; syscall ; (1 found)
0x462cce: sbb byte [rax], dl ; add byte [rax], al ; ret ; (1 found)
0x458ae3: sbb byte [rbp+0x31], al ; ror byte [rax-0x77], 0xEF ; call rbx ; (1 found)
0x427ba8: sbb byte [rbp+0x41], bl ; pop rsp ; ret ; (3 found)
0x4a0e2a: sbb byte [rbx+0x0F40244C], cl ; xchg eax, ebp ; retn 0xC985 ; (1 found)
0x4bc797: sbb byte [rbx+0x5D], bl ; mov eax, r8d ; ret ; (1 found)
0x41d9d9: sbb byte [rbx+0x5D], bl ; ret ; (14 found)
0x423cfb: sbb byte [rbx-0x2FD6EFB9], cl ; ret ; (1 found)
0x4bcfb2: sbb byte [rbx-0x76B7F019], al ; retn 0xA2E8 ; (1 found)
0x41e55a: sbb byte [rcx+rcx*4-0x11], cl ; lea r9, qword [rsp+0x28] ; call rbp ; (2 found)
0x429faf: sbb byte [rcx], dh ; rcr byte [rbp+0x41], 0x5C ; ret ; (2 found)
0x479157: sbb byte [rdi], cl ; mov ds, word [0xFFFFFFFF8347916B] ; retn 0x4418 ; (1 found)
0x474312: sbb cl, byte [rax-0x77] ; retn 0x2548 ; (2 found)
0x467549: sbb cl, byte [rax-0x77] ; retn 0x8948 ; (4 found)
0x44657d: sbb cl, byte [rdi] ; xchg byte [rax+rcx-0x7CB80000], bl ; retn 0xE910 ; (1 found)
0x445d5d: sbb cl, byte [rdi] ; xchg byte [rax+rdx-0x7CB80000], bh ; retn 0xE910 ; (1 found)
0x44587d: sbb cl, byte [rdi] ; xchg byte [rbp+rdx-0x7CB80000], bl ; retn 0xE910 ; (1 found)
0x446a5d: sbb cl, byte [rdi] ; xchg byte [rbx+rax-0x7CB80000], bh ; retn 0xE910 ; (1 found)
0x49df34: sbb eax,  [rax] ; add bh, dh ; retn 0x0000 ; (1 found)
0x40f62b: sbb eax,  [rax] ; add byte [rax-0x7D], cl ; retn 0x3C01 ; (1 found)
0x499f61: sbb eax,  [rax] ; add byte [rax-0x7D], cl ; retn 0x4910 ; (1 found)
0x499fd9: sbb eax,  [rax] ; add byte [rax-0x7D], cl ; retn 0xE910 ; (1 found)
0x413b10: sbb eax,  [rax] ; add byte [rcx-0x39], cl ; retn 0xFFA0 ; (1 found)
0x457334: sbb eax,  [rbp-0x0C988B40] ; bsf eax, eax ; ret ; (2 found)
0x401e02: sbb eax,  [rsi] ; add cl, cl ; ret ; (1 found)
0x462812: sbb eax, 0x007D8B49 ; call rbx ; (1 found)
0x464833: sbb eax, 0x02 ; add byte [rax], al ; syscall ; (1 found)
0x4aa3fc: sbb eax, 0x40000003 ; ret ; (1 found)
0x4aa33e: sbb eax, 0x40000003 ; xor eax, eax ; ret ; (1 found)
0x4bb7c4: sbb eax, 0x48FFF462 ; mov eax,  [rax] ; ret ; (1 found)
0x46196f: sbb eax, 0x49000001 ; mov edi,  [rbp+0x00] ; call rbx ; (1 found)
0x45e8f2: sbb eax, 0x74DAF883 ; and byte [rax-0x39], cl ; retn 0xFFA0 ; (1 found)
0x47915a: sbb eax, 0x8300000C ; retn 0x4418 ; (1 found)
0x420bc2: sbb eax, 0x8944DC74 ; out 0xE8, eax ; ret ; (1 found)
0x419038: sbb eax, 0x89490000 ; retn 0x01B8 ; (1 found)
0x401500: sbb eax, 0xEE830001 ; add cl, byte [rax-0x7D] ; retn 0x4810 ; (1 found)
0x44fb17: sbb eax, 0xFFFFFFFF ; ret ; (1 found)
0x4b4159: sbb eax, eax ; add rsp, 0x08 ; ret ; (1 found)
0x435357: sbb eax, eax ; or eax, 0x01 ; ret ; (2 found)
0x4bc3e3: sbb eax, eax ; ret ; (1 found)
0x44fb15: sbb eax, eax ; sbb eax, 0xFFFFFFFF ; ret ; (1 found)
0x4b206a: sbb ebx, edi ; call qword [rax-0x376974BF] ; (1 found)
0x41affd: sbb ecx,  [rax-0x7D] ; retn 0x4801 ; (2 found)
0x4353bc: sbb ecx, ecx ; or eax, ecx ; ret ; (2 found)
0x4695e0: sbb edi, esp ; dec  [rax-0x77] ; ret ; (1 found)
0x404d6c: sbb esi, edi ; retn 0x0000 ; (1 found)
0x447eee: scasb ; add eax, 0x83480000 ; retn 0xE910 ; (1 found)
0x4ab571: scasb ; add rax, rsi ; jmp rax ; (1 found)
0x493fde: scasb ; clc ; jmp qword [rsi+0x2E] ; (1 found)
0x45ad46: scasd ; ret ; (3 found)
0x41d378: scasd ; retn 0x2948 ; (1 found)
0x4031b5: scasd ; retn 0x41C3 ; (1 found)
0x403ab1: scasd ; retn 0x4853 ; (1 found)
0x403c85: scasd ; retn 0x518D ; (1 found)
0x4031ab: scasd ; retn 0x538D ; (1 found)
0x4a87dd: scasd ; retn 0x8348 ; (1 found)
0x403141: scasd ; retn 0xC148 ; (1 found)
0x403c8b: scasd ; retn 0xDA89 ; (1 found)
0x403c99: scasd ; retn 0xEBE9 ; (1 found)
0x41d52f: scasd ; retn 0xF748 ; (1 found)
0x4031b2: scasd ; ror  [rdi], 0xFFFFFFAF ; retn 0x41C3 ; (1 found)
0x4aa492: scasd ; sti ; jmp qword [rsi+0x66] ; (1 found)
0x424b44: setnb al ; ret ; (1 found)
0x42ce91: shl  [rax], 0x74 ; or bh, dh ; retn 0x0000 ; (1 found)
0x44fbbf: shl  [rsi+0x0F], 0xFFFFFFDA ; ret ; (2 found)
0x4264fd: shl  [rsi+0x0F], 1 ; insb ; retn 0x3B48 ; (1 found)
0x43484c: shl  [rsi+0x0F], 1 ; xlatb ; retn 0xC085 ; (8 found)
0x4ae95c: shl  [rsi+0x49], 0x0F ; outsb ; retn 0xD348 ; (1 found)
0x494e5d: shl  [rsi-0x70], 0xFFFFFF85 ; sal byte [rbp+0x5C], 0x83 ; retn 0x0F40 ; (2 found)
0x40dd9f: shl byte [rax+0x48FFFFFF], 0xC7 ; retn 0xFFFE ; (2 found)
0x405bd6: shl byte [rax+0x64FFFFFF], 0x48 ; add eax,  [0x00000000] ; ret ; (1 found)
0x425aa4: shl byte [rsi+0x0F], 0x6C ; retn 0x0F41 ; (1 found)
0x4ae97a: shl byte [rsi+0x0F], 0x6C ; retn 0x110F ; (1 found)
0x44e107: shl byte [rsi+0x0F], 0xD7 ; ror  [rcx], cl ; retn 0xE074 ; (1 found)
0x448725: shl byte [rsi+0x0F], 0xEB ; retn 0x0F66 ; (2 found)
0x4a7c98: shl byte [rsi+0x0F], 1 ; insb ; retn 0x3948 ; (1 found)
0x448f66: shl byte [rsi+0x0F], 1 ; outsd ; ret ; (1 found)
0x448f77: shl byte [rsi+0x0F], 1 ; outsd ; retn 0x0F66 ; (1 found)
0x4ab541: shl byte [rsi+0x0F], cl ; insb ; retn 0x0F41 ; (1 found)
0x41cdef: shl byte [rsi+0x0F], cl ; insb ; retn 0x110F ; (1 found)
0x44fd5f: shl byte [rsi+0x44], 0x0F ; out dx, eax ; retn 0x0F66 ; (1 found)
0x4672fc: shl eax, cl ; ret ; (1 found)
0x4a7587: shl ebp, 0x05 ; add r13, rax ; call qword [r13+0x68] ; (1 found)
0x47f90b: shl ecx, cl ; mov qword [rdi-0x08], r9 ; ret ; (1 found)
0x47f98c: shl ecx, cl ; mov qword [rdi-0x10], r9 ; ret ; (1 found)
0x47f8da: shl ecx, cl ; mov qword [rdi], r9 ; ret ; (1 found)
0x42524d: shl esi, 0x07 ; xor sil, 0x81 ; syscall ; (1 found)
0x4a7586: shl r13, 0x05 ; add r13, rax ; call qword [r13+0x68] ; (1 found)
0x47f90a: shl r9, cl ; mov qword [rdi-0x08], r9 ; ret ; (1 found)
0x47f98b: shl r9, cl ; mov qword [rdi-0x10], r9 ; ret ; (1 found)
0x47f8d9: shl r9, cl ; mov qword [rdi], r9 ; ret ; (1 found)
0x427ce1: shr  [rbx+0x3948000C], cl ; ret ; (1 found)
0x402550: shr bh, 0xFF ; jmp qword [rax+rcx*2-0x75] ; (1 found)
0x4b2a59: shr bl, 0x9F ; nop  [rax+0x00] ; call rax ; (1 found)
0x47788d: shr bl, cl ; adc  [rax-0x7D], ecx ; retn 0x4101 ; (4 found)
0x40cccd: shr bl, cl ; or  [rax-0x7D], ecx ; retn 0x4801 ; (2 found)
0x42ebff: shr byte [rcx], 0xC8 ; ret ; (2 found)
0x4351cf: shr byte [rcx], 0xC8 ; vzeroupper ; ret ; (1 found)
0x456c63: shr byte [rcx], 0xD7 ; lea eax,  [rdi+rax+0x00000080] ; ret ; (1 found)
0x456c33: shr byte [rcx], 0xD7 ; lea eax,  [rdi+rax+0x20] ; ret ; (1 found)
0x456c43: shr byte [rcx], 0xD7 ; lea eax,  [rdi+rax+0x40] ; ret ; (1 found)
0x456c53: shr byte [rcx], 0xD7 ; lea eax,  [rdi+rax+0x60] ; ret ; (1 found)
0x483763: shr byte [rcx], 1 ; ret ; (1 found)
0x457ad4: shr byte [rdx+0x00], 0x4C ; lea ecx,  [rsp+0x18] ; call r13 ; (1 found)
0x457cea: shr byte [rdx+0x01], cl ; lea r9, qword [rsp+0x20] ; call rbx ; (1 found)
0x40f6dc: shr cl, 1 ; ret ; (1 found)
0x4b4107: shr cl, cl ; ret ; (1 found)
0x458ccc: shr eax, 0x02 ; ret ; (9 found)
0x458e7f: shr eax, 0x02 ; vzeroupper ; ret ; (25 found)
0x4031d3: shr eax, 0x16 ; add eax, 0x01 ; ret ; (1 found)
0x49d54f: shr ebx, 0x3A ; xor eax, eax ; ret ; (2 found)
0x47fa25: shr ecx, cl ; mov qword [rdi+0x08], r9 ; ret ; (1 found)
0x47fa9c: shr ecx, cl ; mov qword [rdi+0x10], r9 ; ret ; (1 found)
0x47f9f4: shr ecx, cl ; mov qword [rdi], r9 ; ret ; (1 found)
0x47fa24: shr r9, cl ; mov qword [rdi+0x08], r9 ; ret ; (1 found)
0x47fa9b: shr r9, cl ; mov qword [rdi+0x10], r9 ; ret ; (1 found)
0x47f9f3: shr r9, cl ; mov qword [rdi], r9 ; ret ; (1 found)
0x458ccb: shr rax, 0x02 ; ret ; (9 found)
0x458fdf: shr rax, 0x02 ; vzeroupper ; ret ; (12 found)
0x49d54e: shr rbx, 0x3A ; xor eax, eax ; ret ; (2 found)
0x455d75: shufps xmm0,  [rdi+0x02], 0x00 ; lea rax, qword [rdi+0x02] ; ret ; (1 found)
0x456b45: shufps xmm0,  [rdi+0x02], 0x00 ; ret ; (1 found)
0x449dd5: shufps xmm0,  [rdi+0x02], 0x00 ; vzeroupper ; ret ; (1 found)
0x4ae991: sldt word [rax] ; add byte [rax-0x77], cl ; retn 0x2944 ; (1 found)
0x403512: sldt word [rbx+0x0D890FE2] ; jmp qword [rdi+0x0F] ; (1 found)
0x403efe: sldt word [rcx-0x73FCE71E] ; and  [rcx+0x09], eax ; retn 0x058B ; (1 found)
0x401b3e: sldt word [rcx] ; pop rbp ; ret ; (1 found)
0x467b8d: stc ; call qword [rax-0x05E1F00D] ; (1 found)
0x493acc: stc ; dec  [rax-0x77] ; ret ; (1 found)
0x46f818: stc ; dec  [rbp-0x77] ; ret ; (2 found)
0x46f89f: stc ; inc  [rcx-0x77] ; ret ; (2 found)
0x46bbf7: stc ; inc  [rcx-0x77] ; retn 0x29E9 ; (1 found)
0x467bc0: stc ; jmp qword [rsi+0x0F] ; (12 found)
0x467b10: stc ; jmp qword [rsi+0x2E] ; (5 found)
0x468620: stc ; jmp qword [rsi+0x49] ; (1 found)
0x4691b1: stc ; jmp qword [rsi+0x66] ; (2 found)
0x46897c: stc ; jmp qword [rsi-0x70] ; (3 found)
0x474972: stc ; jmp rcx ; (1 found)
0x455dbf: stc ; lea rax, qword [rdi+rdx] ; ret ; (1 found)
0x438438: stc ; mov  [rdi-0x04], ecx ; ret ; (4 found)
0x417dba: stc ; out 0xFF, al ; jmp qword [rsi-0x70] ; (1 found)
0x456b7f: stc ; ret ; (1 found)
0x440d98: stc ; vmovups  [rdi-0x0200], zmm15 ; ret ; (1 found)
0x449e0f: stc ; vzeroupper ; ret ; (1 found)
0x43529d: stc ; xlatb ; retn 0xFF2D ; (8 found)
0x41cf5e: std ; add  [rsi+rbp-0x77], esi ; retn 0xC085 ; (1 found)
0x40bc16: std ; add r15, r14 ; call rax ; (1 found)
0x4924ad: std ; call qword [rax+0x56415741] ; (1 found)
0x48f3cb: std ; call qword [rax-0x05E1F00D] ; (4 found)
0x42123c: std ; dec  [rax-0x77] ; ret ; (2 found)
0x424a67: std ; jmp qword [rsi+0x0F] ; (4 found)
0x489a91: std ; jmp qword [rsi+0x2E] ; (3 found)
0x425b62: std ; jmp qword [rsi+0x66] ; (3 found)
0x48414c: std ; jmp qword [rsi-0x70] ; (3 found)
0x455d9b: std ; lea rax, qword [rdi+rdx] ; ret ; (1 found)
0x456b67: std ; mov  [rdi+rdx-0x03], ecx ; ret ; (1 found)
0x437c5b: std ; mov word [rdi-0x02], cx ; ret ; (4 found)
0x456b6b: std ; ret ; (1 found)
0x455006: std ; vmovdqu64  [rdi+rdx-0x04], ymm23 ; ret ; (1 found)
0x451486: std ; vmovdqu64  [rdi+rdx-0x04], zmm23 ; ret ; (1 found)
0x449dfb: std ; vzeroupper ; ret ; (1 found)
0x434add: std ; xlatb ; ret ; (41 found)
0x434ad5: std ; xlatb ; retn 0xC085 ; (23 found)
0x434f57: std ; xlatb ; retn 0xC0FF ; (6 found)
0x4afe00: sti ; call qword [rax+0x44B84D8B] ; (1 found)
0x4aa40b: sti ; call qword [rax+0x48] ; (1 found)
0x4b0057: sti ; call qword [rax-0x00043517] ; (1 found)
0x4a4951: sti ; call qword [rax-0x00083817] ; (1 found)
0x4af52c: sti ; call qword [rax-0x05E1F00D] ; (2 found)
0x4b206b: sti ; call qword [rax-0x376974BF] ; (1 found)
0x49e090: sti ; dec  [rax+0x0F] ; retn 0x66C3 ; (2 found)
0x4a83af: sti ; dec  [rax-0x77] ; retn 0x8348 ; (1 found)
0x45b31e: sti ; dec  [rax-0x77] ; retn 0x8548 ; (1 found)
0x4a4b32: sti ; dec  [rcx-0x77] ; retn 0x8348 ; (1 found)
0x46657a: sti ; idiv bh ; jmp qword [rsi-0x70] ; (1 found)
0x48bcce: sti ; idiv edi ; jmp qword [rsi+0x0F] ; (1 found)
0x460063: sti ; jmp qword [rbx+0x0001FFDE] ; (1 found)
0x473418: sti ; jmp qword [rsi+0x0F] ; (6 found)
0x474ed4: sti ; jmp qword [rsi+0x2E] ; (2 found)
0x4aa420: sti ; jmp qword [rsi+0x66] ; (3 found)
0x4a6622: sti ; jmp qword [rsi-0x007F] ; (1 found)
0x472f3c: sti ; jmp qword [rsi-0x70] ; (2 found)
0x438038: sti ; mov  [rdi-0x04], ecx ; ret ; (4 found)
0x49373e: sti ; mov rdi, qword [rdi+0x08] ; call qword [rbx] ; (1 found)
0x49e05f: sti ; push rsi ; retn 0x7420 ; (1 found)
0x47cd52: sti ; retn 0xFFBF ; (1 found)
0x457916: sti ; xchg eax, ebx ; ret ; (3 found)
0x45790e: sti ; xchg eax, ebx ; retn 0xC085 ; (3 found)
0x45ff9e: stosb ; add rax, rdx ; jmp rax ; (3 found)
0x451b68: stosb ; mov rax, rdx ; ret ; (6 found)
0x457352: stosd ; lock bsf eax, eax ; ret ; (2 found)
0x4932a2: stosd ; mov eax, 0x00000083 ; ret ; (1 found)
0x41197f: stosd ; ret ; (1 found)
0x4ae759: str word [rax+0x21] ; retn 0xC148 ; (1 found)
0x47f6ab: str word [rcx] ; retn 0x9274 ; (1 found)
0x4671b2: sub  [0x000000005B4971C1], ebp ; ret ; (1 found)
0x426a3c: sub  [rax+0x39], ecx ; retn 0x840F ; (1 found)
0x46294f: sub  [rax-0x77], ecx ; retn 0x0ABE ; (1 found)
0x42c2e8: sub  [rax], eax ; add byte [rax+0x0F], cl ; retn 0x85C3 ; (1 found)
0x4635d5: sub  [rax], eax ; add byte [rax], al ; syscall ; (1 found)
0x48ea13: sub  [rcx+rdi*8], eax ; jmp qword [rsi+0x0F] ; (1 found)
0x401696: sub  [rcx], eax ; add byte [rbx-0x7CB7FD12], al ; retn 0x4810 ; (1 found)
0x455763: sub  [rdi+0x00], edi ; ret ; (1 found)
0x4361e4: sub  [rdi-0x10], ebp ; jmp r9 ; (30 found)
0x4361e0: sub  [rdi-0x20], esp ; movaps  [rdi-0x10], xmm5 ; jmp r9 ; (30 found)
0x43628e: sub  [rdi], esp ; jmp r9 ; (30 found)
0x4a0984: sub  [rsp+0x00], ebx ; call rbx ; (1 found)
0x48a5ea: sub  [rsp+rdx-0x38B80000], 0xFFFFA0C0 ; jmp qword [rdi+rax*8+0x00] ; (1 found)
0x4bf5e2: sub ah, byte [rcx] ; cli ; jmp qword [rsi+0x2E] ; (1 found)
0x42ce76: sub al, 0x02 ; add byte [rax+0x0F], cl ; retn 0x66C3 ; (1 found)
0x467243: sub al, 0x09 ; add byte [rbx+rbx*2], cl ; ret ; (1 found)
0x47301d: sub al, 0x0F ; xchg eax, esp ; retn 0xD108 ; (1 found)
0x4aecd3: sub al, 0xF5 ; jmp qword [rsi+0x2E] ; (1 found)
0x47cf8a: sub al, byte [rax] ; add byte [rax-0x7D], cl ; ret ; (1 found)
0x48ea48: sub al, ch ; retn 0x0023 ; (1 found)
0x4612fd: sub bh, byte [rax+0x00000048] ; syscall ; (1 found)
0x4b18f2: sub bh, byte [rbx-0x01] ; jmp qword [rsi+0x2E] ; (1 found)
0x480e37: sub bh, dh ; jmp qword [rsi+0x0F] ; (2 found)
0x479d4c: sub bl, ch ; add eax, 0x3D8D4800 ; retn 0x05D7 ; (1 found)
0x4a47c7: sub byte [r8+0x39], r9L ; retn 0x870F ; (1 found)
0x4844e5: sub byte [r9+r9*4+0x04], cl ; retn 0x8B4C ; (1 found)
0x423266: sub byte [rax+0x00000000], 0x00 ; add byte [rax], al ; ret ; (2 found)
0x419b10: sub byte [rax+0x39], cl ; retn 0x850F ; (4 found)
0x4a47c8: sub byte [rax+0x39], cl ; retn 0x870F ; (1 found)
0x424aeb: sub byte [rax+0x39], cl ; ror byte [rax+0x0F], 1 ; retn 0x2B48 ; (1 found)
0x41a6b4: sub byte [rax-0x0080], al ; jmp qword [rdi+rcx] ; (1 found)
0x45f279: sub byte [rax-0x39], cl ; ret ; (1 found)
0x42cef4: sub byte [rax-0x5C8B0000], al ; ret ; (1 found)
0x4a47c4: sub byte [rax-0x75], cl ; sub byte [r8+0x39], r9L ; retn 0x870F ; (1 found)
0x4be2d4: sub byte [rax-0x77], cl ; adc al, ch ; ret ; (1 found)
0x48fe64: sub byte [rax-0x77], cl ; retn 0xC148 ; (1 found)
0x419bc3: sub byte [rax], al ; add byte [rax+0x39], cl ; ret ; (1 found)
0x461268: sub byte [rax], al ; add byte [rax], al ; syscall ; (1 found)
0x48d6b0: sub byte [rbp+0x29], al ; ret ; (2 found)
0x42d494: sub byte [rbx+0x0F480002], ah ; retn 0x0FC3 ; (1 found)
0x41b8b9: sub byte [rbx+0x5D], bl ; ret ; (5 found)
0x41378a: sub byte [rbx-0x00063B7B], cl ; jmp qword [rdi+rdi*2] ; (1 found)
0x4b3ff8: sub byte [rbx-0x1B], dh ; mov eax, 0x00000001 ; ret ; (1 found)
0x4b3ff7: sub byte [rbx-0x1B], sil ; mov eax, 0x00000001 ; ret ; (1 found)
0x40b179: sub byte [rcx+0x01], cl ; retn 0x894C ; (1 found)
0x4844e6: sub byte [rcx+rcx*4+0x04], cl ; retn 0x8B4C ; (1 found)
0x4b27b1: sub byte [rcx-0x77], cl ; ret ; (1 found)
0x40b199: sub byte [rcx-0x77], cl ; retn 0x2274 ; (1 found)
0x419082: sub byte [rcx], ch ; ret ; (1 found)
0x4551b2: sub byte [rdi+0x00], bh ; vmovdqu64  [r8+0x01], ymm17 ; ret ; (2 found)
0x451ff3: sub byte [rdi+0x00], bh ; vmovdqu64  [rax+rdx-0x01], ymm16 ; ret ; (2 found)
0x4550e1: sub byte [rdi+0x01], bh ; ret ; (1 found)
0x4550db: sub byte [rdi+0x02], bh ; vmovdqu64  [rcx], ymm16 ; ret ; (1 found)
0x4556cc: sub byte [rdi+0x07], bh ; ret ; (1 found)
0x4513a6: sub byte [rdi+0x07], bh ; vmovdqu64  [rdi+rdx-0x01], ymm17 ; ret ; (3 found)
0x456bd4: sub byte [rdi+0x17], bh ; vmovdqu64  [rdi+rdx-0x0000001F], ymm19 ; ret ; (1 found)
0x451ff9: sub byte [rdi+0x44], bh ; adc bh, bh ; ret ; (2 found)
0x455181: sub byte [rdi+0x44], bh ; cmp bh, bh ; ret ; (1 found)
0x455bca: sub byte [rdi+0x7F], bh ; jmp qword [rdx-0x1F] ; (2 found)
0x460d73: sub byte [rdi], cl ; xchg eax, esp ; retn 0x3948 ; (1 found)
0x468432: sub byte [rdi], cl ; xchg eax, esp ; retn 0xF739 ; (2 found)
0x49dca7: sub byte [rdx-0x4D], ah ; and byte [r15], r15L ; retn 0xC500 ; (1 found)
0x47f285: sub cl, ch ; ret ; (1 found)
0x492412: sub cl, dl ; clc ; jmp qword [rsi+0x2E] ; (1 found)
0x488b55: sub dh, al ; add byte [0x0000000000419A46], ch ; jmp qword [rsi-0x70] ; (1 found)
0x416a20: sub dh, al ; add byte [rcx-0x7D], cl ; ret ; (1 found)
0x4ad9ea: sub eax,  [0x00000000] ; ret ; (1 found)
0x4634a1: sub eax,  [rax] ; add byte [rax], al ; syscall ; (2 found)
0x424af4: sub eax,  [rdi+0x18] ; ret ; (1 found)
0x423cd7: sub eax,  [rsi+0x10] ; ret ; (1 found)
0x42344b: sub eax, 0x01 ; ret ; (4 found)
0x4a960f: sub eax, 0x48FFFFF7 ; add esp, 0x000000D8 ; ret ; (1 found)
0x4adca6: sub eax, 0x58C48348 ; ret ; (2 found)
0x4671b3: sub eax, 0x5B030009 ; ret ; (1 found)
0x488b58: sub eax, 0xFFF90EE9 ; jmp qword [rsi-0x70] ; (1 found)
0x42e93c: sub eax, ecx ; ret ; (51 found)
0x423449: sub eax, ecx ; sub eax, 0x01 ; ret ; (1 found)
0x4301bf: sub eax, ecx ; vzeroupper ; ret ; (13 found)
0x449459: sub eax, edi ; ret ; (6 found)
0x458dde: sub eax, edi ; shr rax, 0x02 ; ret ; (3 found)
0x423cff: sub eax, edx ; ret ; (57 found)
0x42fec2: sub eax, edx ; vzeroupper ; ret ; (25 found)
0x4ad280: sub eax, esi ; ret ; (1 found)
0x45ece8: sub ebx,  [rbx+0x5D] ; pop r12 ; ret ; (1 found)
0x41cf2b: sub ecx,  [rax-0x02] ; call qword [rax-0x76AAABBF] ; (1 found)
0x46138c: sub edi,  [rax+0x00000048] ; syscall ; (1 found)
0x49ea9c: sub edi, 0x10 ; add rax, rdi ; ret ; (1 found)
0x456c64: sub edi, edx ; lea eax,  [rdi+rax+0x00000080] ; ret ; (1 found)
0x456c34: sub edi, edx ; lea eax,  [rdi+rax+0x20] ; ret ; (1 found)
0x456c44: sub edi, edx ; lea eax,  [rdi+rax+0x40] ; ret ; (1 found)
0x456c54: sub edi, edx ; lea eax,  [rdi+rax+0x60] ; ret ; (1 found)
0x457531: sub edi, edx ; lea rax, qword [rdi+rax+0x00000080] ; ret ; (1 found)
0x4574e5: sub edi, edx ; lea rax, qword [rdi+rax+0x20] ; ret ; (2 found)
0x4574b3: sub edi, edx ; lea rax, qword [rdi+rax+0x40] ; ret ; (2 found)
0x45756c: sub edi, edx ; lea rax, qword [rdi+rax+0x60] ; ret ; (1 found)
0x4ac4fa: sub edi, esi ; jmp qword [rsi-0x70] ; (2 found)
0x41f1ba: sub edx, esi ; call qword [r12+0x70] ; (1 found)
0x41cb31: sub edx, esi ; call qword [rax+0x70] ; (1 found)
0x420d18: sub esi, eax ; mov rdi, rbx ; call qword [r14+0x00000080] ; (1 found)
0x4c0115: sub esp, 0x08 ; add rsp, 0x08 ; ret ; (1 found)
0x45e8d1: sub esp, 0x08 ; call rax ; (1 found)
0x41ff07: sub esp, esi ; call qword [r13+0x40] ; (1 found)
0x41ff06: sub r12, r14 ; call qword [r13+0x40] ; (1 found)
0x44ff93: sub rax, 0x01 ; ret ; (1 found)
0x4ad9e9: sub rax, qword [0x00000000] ; ret ; (1 found)
0x4ad9e8: sub rax, qword [fs:0x00000000] ; ret ; (1 found)
0x424af3: sub rax, qword [rdi+0x18] ; ret ; (1 found)
0x423448: sub rax, rcx ; sub eax, 0x01 ; ret ; (1 found)
0x449458: sub rax, rdi ; ret ; (6 found)
0x458ddd: sub rax, rdi ; shr rax, 0x02 ; ret ; (3 found)
0x450073: sub rax, rdx ; ret ; (2 found)
0x49ea9b: sub rdi, 0x10 ; add rax, rdi ; ret ; (1 found)
0x45752f: sub rdi, rdx ; lea rax, qword [rdi+rax+0x00000080] ; ret ; (2 found)
0x4574e4: sub rdi, rdx ; lea rax, qword [rdi+rax+0x20] ; ret ; (2 found)
0x4574b2: sub rdi, rdx ; lea rax, qword [rdi+rax+0x40] ; ret ; (2 found)
0x45756b: sub rdi, rdx ; lea rax, qword [rdi+rax+0x60] ; ret ; (1 found)
0x41f1b9: sub rdx, rsi ; call qword [r12+0x70] ; (1 found)
0x41cb30: sub rdx, rsi ; call qword [rax+0x70] ; (1 found)
0x420d17: sub rsi, rax ; mov rdi, rbx ; call qword [r14+0x00000080] ; (1 found)
0x4c0114: sub rsp, 0x08 ; add rsp, 0x08 ; ret ; (1 found)
0x45e8d0: sub rsp, 0x08 ; call rax ; (1 found)
0x45f870: syscall ; mov eax, r8d ; ret ; (1 found)
0x424ca6: syscall ; ret ; (7 found)
0x4034e4: syscall ; (130 found)
0x46196e: test  [0x0000000049461975], ebx ; mov edi,  [rbp+0x00] ; call rbx ; (1 found)
0x4bb7c3: test  [0x00000000494BAC2B], ebx ; mov eax,  [rax] ; ret ; (1 found)
0x449143: test  [0xFFFFFFFF8944914A], edi ; retn 0x8948 ; (1 found)
0x42d1d5: test  [rax+0x02], 0x440F4800 ; retn 0x66C3 ; (1 found)
0x434b68: test  [rax+rax-0x08B70000], ecx ; retn 0x0002 ; (1 found)
0x4175c2: test  [rax+rcx*4-0x73], 0xFFFFF714 ; mov byte [rbp-0x000008E8], r8L ; call rax ; (1 found)
0x461fad: test  [rax-0x75], 0x8945A845 ; out dx, eax ; call rax ; (1 found)
0x414fc7: test  [rax-0x7C000005], edx ; retn 0x4830 ; (1 found)
0x46698c: test  [rax-0x7FBEF732], 0x450F2DFF ; retn 0x014D ; (1 found)
0x4773ea: test  [rax], eax ; add byte [rax-0x7D], cl ; ret ; (1 found)
0x4b994a: test  [rax], eax ; add rax, rbp ; jmp rax ; (1 found)
0x48b3d0: test  [rax], ecx ; idiv edi ; call qword [rax] ; (4 found)
0x4173cd: test  [rax], edx ; idiv edi ; call qword [rax] ; (4 found)
0x4b9949: test  [rax], r8d ; add rax, rbp ; jmp rax ; (1 found)
0x460711: test  [rbp+0x48000000], edi ; add esp, 0x78 ; ret ; (1 found)
0x4619d6: test  [rbp+0x49000000], edx ; mov edi,  [rbp+0x00] ; call rbx ; (1 found)
0x4627b6: test  [rbp+0x49000000], esi ; mov edi,  [rbp+0x00] ; call rbx ; (1 found)
0x435850: test  [rbx+0x03], ebp ; add byte [rax], al ; ret ; (1 found)
0x494bf8: test  [rbx+0x31000000], esp ; rol bl, 0x83 ; retn 0x6620 ; (1 found)
0x48cb35: test  [rbx-0x16000020], ebp ; rcr edx, 0xFFFFFFFF ; call qword [rax+0x48BD8B48] ; (1 found)
0x437883: test  [rbx-0x76B703AA], 0x5789F74F ; cld ; ret ; (2 found)
0x43d1a3: test  [rbx-0x76B703B2], 0x4F89F757 ; cld ; ret ; (2 found)
0x46685a: test  [rbx-0x7FBEF736], 0x450F2DFF ; retn 0x014D ; (1 found)
0x468438: test  [rcx+0x0F], 0x2144C09C ; retn 0xF283 ; (1 found)
0x47d0d9: test  [rcx+rcx-0x01], 0xFFFD6AE9 ; jmp qword [rsi+0x0F] ; (1 found)
0x4609a7: test  [rdi+0x48000000], ebx ; add esp, 0x68 ; ret ; (1 found)
0x48535a: test  [rdi+rdi*8-0x01], esp ; jmp qword [rsi+0x00] ; (2 found)
0x493215: test  [rdi], 0xFFFD7384 ; call qword [rax+0x48] ; (1 found)
0x4619a1: test  [rdx+0x49000000], ecx ; mov edi,  [rbp+0x00] ; call rbx ; (1 found)
0x412f26: test  [rdx+rbp*8-0x38B60001], ebp ; retn 0xFFA0 ; (1 found)
0x41bc01: test  [rdx-0x77000000], edi ; retn 0xE281 ; (1 found)
0x48389b: test  [rdx-0x7CFFFFFC], eax ; ret ; (1 found)
0x42d119: test  [rdx], eax ; add byte [rax+0x0F], cl ; retn 0x66C3 ; (1 found)
0x43478d: test  [rsi+0x29FFFFFE], ebx ; enter 0xF8C5, 0x77 ; ret ; (1 found)
0x4ade94: test  [rsi+0x48000000], ebp ; add esp, 0x68 ; ret ; (1 found)
0x48c905: test  [rsi+rbp*8-0x0E160001], edx ; fdiv st7, st0 ; call qword [rax+0x087E8B48] ; (1 found)
0x4104a5: test  [rsi-0x76000020], ecx ; ret ; (1 found)
0x4bb8d7: test al, 0x00 ; add byte [rax], al ; ret ; (1 found)
0x461fb0: test al, 0x45 ; mov edi, ebp ; call rax ; (2 found)
0x46d201: test byte [0xFFFFFFFFF746D20B], dh ; retn 0x0000 ; (1 found)
0x46d20d: test byte [0xFFFFFFFFF746D218], dl ; retn 0x0000 ; (1 found)
0x4affd3: test byte [rax+rax-0x76B40000], bh ; dec  [rax-0x7D] ; ret ; (1 found)
0x448ee7: test byte [rax-0x73], 0x04 ; aaa ; ret ; (1 found)
0x4ab126: test byte [rax-0x73], 0x05 ; retn 0x01C8 ; (1 found)
0x41668b: test byte [rax-0x73], 0x15 ; ret ; (1 found)
0x4b241a: test byte [rax-0x75], 0x3C ; retn 0xB60F ; (1 found)
0x4bd86e: test byte [rax-0x76FFFFFE], dl ; retn 0xE283 ; (1 found)
0x490140: test byte [rax-0x77], 0xDF ; call qword [r15+0x38] ; (1 found)
0x420078: test byte [rax-0x77], 0xDF ; call qword [rbp+0x70] ; (1 found)
0x423819: test byte [rax-0x77], 0xDF ; call qword [rcx+0x58] ; (1 found)
0x418e80: test byte [rax-0x77], 0xEF ; call qword [r15+0x38] ; (1 found)
0x41bc5b: test byte [rax-0x77], 0xEF ; call qword [rbx+0x10] ; (1 found)
0x492873: test byte [rax-0x77], 0xEF ; mov eax, r13d ; syscall ; (1 found)
0x41ff02: test byte [rax-0x77], 0xEF ; sub r12, r14 ; call qword [r13+0x40] ; (1 found)
0x459c06: test byte [rax], 0x00 ; add byte [rax-0x7D], cl ; retn 0x0F01 ; (1 found)
0x42cea1: test byte [rax], al ; add bh, dh ; retn 0x0000 ; (1 found)
0x4698f4: test byte [rax], cl ; add byte [rax-0x7D], cl ; retn 0x4901 ; (1 found)
0x45f75e: test byte [rbp+0x48FFFFFD], ah ; lea edi,  [rsp+0x20] ; call 0x00000000 ; (1 found)
0x425386: test byte [rcx+0x0000CAB8], 0x00 ; syscall ; (5 found)
0x4b8da3: test byte [rcx+0x0F], 0x95 ; ret ; (1 found)
0x4bff40: test byte [rcx+rax-0x76B80000], al ; retn 0xC148 ; (1 found)
0x485f1c: test byte [rcx+rcx*4-0x19], 0x4C ; mov  [rbp-0x000000E8], eax ; call rax ; (1 found)
0x42b432: test byte [rcx+rcx*4-0x19], 0xE8 ; retn 0xFFFF ; (1 found)
0x40c862: test byte [rcx-0x7CFFFFFF], cl ; jmp qword [rdi+rcx] ; (1 found)
0x49fb95: test byte [rdi+0x00000080], al ; ret ; (6 found)
0x4a0476: test byte [rdi+0x000000A0], al ; ret ; (1 found)
0x4a0486: test byte [rdi+0x000000C0], al ; ret ; (1 found)
0x4a044c: test byte [rdi+0x000000E0], al ; ret ; (1 found)
0x45770f: test byte [rdi+rdi*8-0x01], ch ; jmp qword [rsi+0x66] ; (1 found)
0x4564d7: test byte [rdi+rdi*8-0x01], dh ; jmp qword [rdx-0x4E] ; (1 found)
0x418830: test byte [rdi-0x09FFFFDF], ah ; ret ; (1 found)
0x45d7cb: test byte [rdi], 0x84 ; ret ; (1 found)
0x40ebdb: test byte [rdi], 0x8E ; retn 0x0038 ; (1 found)
0x4b8ac0: test byte [rdi], 0x95 ; retn 0xD349 ; (1 found)
0x403868: test byte [rdi], 0x9F ; retn 0xC031 ; (1 found)
0x40ec87: test byte [rdi], 0x9F ; retn 0xD629 ; (2 found)
0x4057a9: test byte [rdx+0x48000000], ah ; add esp, 0x00000098 ; ret ; (1 found)
0x4494fd: test byte [rsi+0x48000000], bl ; bsf eax, edx ; ret ; (1 found)
0x4738f1: test dl, dl ; add eax, 0x89480000 ; retn 0x294C ; (1 found)
0x4bf5de: test eax, 0x2AE90003 ; and edx, edi ; jmp qword [rsi+0x2E] ; (1 found)
0x42aacf: test eax, 0x39E80009 ; mov al, 0xFF ; jmp qword [rsi+0x0F] ; (1 found)
0x4aad33: test eax, 0x3EC80148 ; jmp rax ; (1 found)
0x42d353: test eax, 0x48000251 ; cmove eax, edx ; ret ; (1 found)
0x43b346: test eax, 0x7F0F41F3 ; add byte [rax-0x007F], cl ; retn 0x0080 ; (2 found)
0x429567: test eax, 0x85000CFE ; ror byte [rdi], 0x84 ; ret ; (1 found)
0x473493: test eax, 0x85FFF8DC ; ror byte [rdi], 0x94 ; ret ; (1 found)
0x47d116: test eax, 0xC7480005 ; retn 0xFFA0 ; (1 found)
0x4ad33c: test eax, 0xFCE80001 ; cmp eax, 0xC748FFF5 ; retn 0xFFFF ; (1 found)
0x44ffa8: test eax, 0xFFFD3BE9 ; jmp qword [rsi-0x70] ; (1 found)
0x462f5f: test eax, eax ; cmove eax, edx ; ret ; (1 found)
0x416256: test eax, esp ; idiv bh ; jmp qword [rax+rcx*2-0x75] ; (1 found)
0x437882: test qword [rbx-0x76B703AA], 0x000000005789F74F ; cld ; ret ; (2 found)
0x491026: ud0 edi, edi ; jmp qword [rsi+0x0F] ; (1 found)
0x403f3f: verr word [rsi+0x0F] ; outsb ; ret ; (2 found)
0x450e2b: vmovdqu  [r8+0x20], ymm1 ; vzeroupper ; ret ; (2 found)
0x44092e: vmovdqu  [r9-0x10], xmm1 ; ret ; (1 found)
0x44091a: vmovdqu  [r9-0x20], ymm1 ; ret ; (1 found)
0x440901: vmovdqu  [r9-0x20], ymm3 ; ret ; (1 found)
0x4408fb: vmovdqu  [r9-0x40], ymm2 ; vmovdqu  [r9-0x20], ymm3 ; ret ; (1 found)
0x451e06: vmovdqu  [rax+rdx-0x10], xmm0 ; vzeroupper ; ret ; (1 found)
0x451d24: vmovdqu  [rax+rdx-0x20], ymm0 ; vzeroupper ; ret ; (1 found)
0x450d66: vmovdqu  [rcx], ymm0 ; vzeroupper ; ret ; (1 found)
0x451dac: vmovdqu  [rdi+0x60], ymm0 ; vzeroupper ; ret ; (3 found)
0x450cab: vmovdqu  [rdi+rdx-0x0080], ymm7 ; vzeroupper ; ret ; (1 found)
0x449e2e: vmovdqu  [rdi+rdx-0x0F], xmm3 ; vzeroupper ; ret ; (1 found)
0x450bf0: vmovdqu  [rdi+rdx-0x10], xmm1 ; ret ; (4 found)
0x449e4e: vmovdqu  [rdi+rdx-0x1F], ymm3 ; vzeroupper ; ret ; (1 found)
0x450b39: vmovdqu  [rdi+rdx-0x20], ymm1 ; vzeroupper ; ret ; (2 found)
0x451064: vmovdqu  [rdi+rdx-0x20], ymm3 ; vzeroupper ; ret ; (2 found)
0x450c2c: vmovdqu  [rdi+rdx-0x40], ymm3 ; vzeroupper ; ret ; (1 found)
0x451d35: vmovdqu  [rdi-0x20], ymm0 ; vzeroupper ; ret ; (1 found)
0x44092a: vmovdqu  [rdi], xmm0 ; vmovdqu  [r9-0x10], xmm1 ; ret ; (1 found)
0x450bec: vmovdqu  [rdi], xmm0 ; vmovdqu  [rdi+rdx-0x10], xmm1 ; ret ; (4 found)
0x450289: vmovdqu  [rdi], xmm0 ; vmovdqu  [rsi-0x10], xmm0 ; ret ; (1 found)
0x440916: vmovdqu  [rdi], ymm0 ; vmovdqu  [r9-0x20], ymm1 ; ret ; (1 found)
0x451cca: vmovdqu  [rdi], ymm0 ; vzeroupper ; ret ; (1 found)
0x45027f: vmovdqu  [rdi], ymm2 ; vmovdqu  [rsi-0x20], ymm2 ; ret ; (1 found)
0x450de6: vmovdqu  [rdx+rdi-0x20], ymm8 ; vzeroupper ; ret ; (1 found)
0x45028d: vmovdqu  [rsi-0x10], xmm0 ; ret ; (1 found)
0x450283: vmovdqu  [rsi-0x20], ymm2 ; ret ; (1 found)
0x455718: vmovdqu64  [eax], ymm16 ; vmovdqu64  [rax+rdx-0x01], ymm16 ; ret ; (1 found)
0x451edb: vmovdqu64  [fs:rax], zmm16 ; vmovdqu64  [rax+rdx-0x01], zmm16 ; ret ; (1 found)
0x4551b5: vmovdqu64  [r8+0x01], ymm17 ; ret ; (2 found)
0x4551af: vmovdqu64  [r8], ymm16 ; vmovdqu64  [r8+0x01], ymm17 ; ret ; (2 found)
0x451641: vmovdqu64  [r8], zmm16 ; ret ; (2 found)
0x452006: vmovdqu64  [rax+rdx-0x01], xmm16 ; ret ; (2 found)
0x451ff6: vmovdqu64  [rax+rdx-0x01], ymm16 ; ret ; (2 found)
0x451ee2: vmovdqu64  [rax+rdx-0x01], zmm16 ; ret ; (1 found)
0x452000: vmovdqu64  [rax], xmm16 ; vmovdqu64  [rax+rdx-0x01], xmm16 ; ret ; (2 found)
0x451ff0: vmovdqu64  [rax], ymm16 ; vmovdqu64  [rax+rdx-0x01], ymm16 ; ret ; (2 found)
0x451edc: vmovdqu64  [rax], zmm16 ; vmovdqu64  [rax+rdx-0x01], zmm16 ; ret ; (1 found)
0x455730: vmovdqu64  [rcx+0x02], ymm16 ; vmovdqu64  [rcx+0x03], ymm16 ; ret ; (2 found)
0x455737: vmovdqu64  [rcx+0x03], ymm16 ; ret ; (2 found)
0x451ef0: vmovdqu64  [rcx+0x06], zmm16 ; vmovdqu64  [rcx+0x07], zmm16 ; ret ; (2 found)
0x451ef7: vmovdqu64  [rcx+0x07], zmm16 ; ret ; (2 found)
0x4550de: vmovdqu64  [rcx], ymm16 ; ret ; (1 found)
0x451564: vmovdqu64  [rcx], zmm16 ; ret ; (1 found)
0x455177: vmovdqu64  [rdi+0x03], ymm23 ; vmovdqu64  [rdx+rdi-0x01], ymm24 ; ret ; (1 found)
0x451601: vmovdqu64  [rdi+0x03], zmm23 ; vmovdqu64  [rdx+rdi-0x01], zmm24 ; ret ; (1 found)
0x455de7: vmovdqu64  [rdi+rdx-0x0000000F], xmm19 ; lea rax, qword [rdi+rdx] ; ret ; (1 found)
0x456ba7: vmovdqu64  [rdi+rdx-0x0000000F], xmm19 ; ret ; (1 found)
0x455e17: vmovdqu64  [rdi+rdx-0x0000001F], ymm19 ; lea rax, qword [rdi+rdx] ; ret ; (1 found)
0x456bd7: vmovdqu64  [rdi+rdx-0x0000001F], ymm19 ; ret ; (1 found)
0x4556c1: vmovdqu64  [rdi+rdx-0x01], ymm16 ; vmovdqu64  [rdi], ymm16 ; ret ; (1 found)
0x4513a9: vmovdqu64  [rdi+rdx-0x01], ymm17 ; ret ; (3 found)
0x454f6e: vmovdqu64  [rdi+rdx-0x01], ymm18 ; vmovdqu64  [rdi+rdx-0x02], ymm19 ; ret ; (1 found)
0x455422: vmovdqu64  [rdi+rdx-0x01], ymm19 ; ret ; (2 found)
0x451e84: vmovdqu64  [rdi+rdx-0x01], zmm16 ; vmovdqu64  [rdi], zmm16 ; ret ; (1 found)
0x4512c2: vmovdqu64  [rdi+rdx-0x01], zmm17 ; ret ; (2 found)
0x4513e0: vmovdqu64  [rdi+rdx-0x01], zmm18 ; vmovdqu64  [rdi+rdx-0x02], zmm19 ; ret ; (1 found)
0x4518a7: vmovdqu64  [rdi+rdx-0x01], zmm19 ; ret ; (2 found)
0x45541a: vmovdqu64  [rdi+rdx-0x02], ymm18 ; vmovdqu64  [rdi+rdx-0x01], ymm19 ; ret ; (2 found)
0x454f76: vmovdqu64  [rdi+rdx-0x02], ymm19 ; ret ; (1 found)
0x45189f: vmovdqu64  [rdi+rdx-0x02], zmm18 ; vmovdqu64  [rdi+rdx-0x01], zmm19 ; ret ; (2 found)
0x4513e8: vmovdqu64  [rdi+rdx-0x02], zmm19 ; ret ; (1 found)
0x454fff: vmovdqu64  [rdi+rdx-0x03], ymm22 ; vmovdqu64  [rdi+rdx-0x04], ymm23 ; ret ; (1 found)
0x45147f: vmovdqu64  [rdi+rdx-0x03], zmm22 ; vmovdqu64  [rdi+rdx-0x04], zmm23 ; ret ; (1 found)
0x455007: vmovdqu64  [rdi+rdx-0x04], ymm23 ; ret ; (1 found)
0x451487: vmovdqu64  [rdi+rdx-0x04], zmm23 ; ret ; (1 found)
0x456ba1: vmovdqu64  [rdi], xmm18 ; vmovdqu64  [rdi+rdx-0x0000000F], xmm19 ; ret ; (1 found)
0x4556c9: vmovdqu64  [rdi], ymm16 ; ret ; (1 found)
0x4513a3: vmovdqu64  [rdi], ymm16 ; vmovdqu64  [rdi+rdx-0x01], ymm17 ; ret ; (3 found)
0x456bd1: vmovdqu64  [rdi], ymm18 ; vmovdqu64  [rdi+rdx-0x0000001F], ymm19 ; ret ; (1 found)
0x451e8c: vmovdqu64  [rdi], zmm16 ; ret ; (1 found)
0x4512bc: vmovdqu64  [rdi], zmm16 ; vmovdqu64  [rdi+rdx-0x01], zmm17 ; ret ; (2 found)
0x45517e: vmovdqu64  [rdx+rdi-0x01], ymm24 ; ret ; (1 found)
0x451608: vmovdqu64  [rdx+rdi-0x01], zmm24 ; ret ; (1 found)
0x4550d8: vmovdqu64  [rdx], ymm24 ; vmovdqu64  [rcx], ymm16 ; ret ; (1 found)
0x45155e: vmovdqu64  [rdx], zmm24 ; vmovdqu64  [rcx], zmm16 ; ret ; (1 found)
0x455760: vmovdqu8  [rax], ymm16 ; ret ; (1 found)
0x451f23: vmovdqu8  [rax], zmm16 ; ret ; (1 found)
0x450298: vmovq  [rdi], xmm0 ; vmovq  [rsi-0x08], xmm0 ; ret ; (1 found)
0x45029c: vmovq  [rsi-0x08], xmm0 ; ret ; (1 found)
0x440c30: vmovups  [r9+0x0180], zmm14 ; vmovups  [r9+0x01C0], zmm15 ; ret ; (1 found)
0x440c37: vmovups  [r9+0x01C0], zmm15 ; ret ; (1 found)
0x440ac9: vmovups  [r9-0x0080], zmm14 ; vmovups  [r9-0x40], zmm15 ; ret ; (1 found)
0x4408cb: vmovups  [r9-0x0080], zmm2 ; vmovups  [r9-0x40], zmm3 ; ret ; (1 found)
0x44088f: vmovups  [r9-0x0080], zmm6 ; vmovups  [r9-0x40], zmm7 ; ret ; (1 found)
0x440ad0: vmovups  [r9-0x40], zmm15 ; ret ; (1 found)
0x4408d2: vmovups  [r9-0x40], zmm3 ; ret ; (1 found)
0x440896: vmovups  [r9-0x40], zmm7 ; ret ; (1 found)
0x440d92: vmovups  [rdi-0x01C0], zmm14 ; vmovups  [rdi-0x0200], zmm15 ; ret ; (1 found)
0x440d99: vmovups  [rdi-0x0200], zmm15 ; ret ; (1 found)
0x45026c: vmovups  [rdi], zmm2 ; vmovups  [rsi-0x40], zmm2 ; ret ; (1 found)
0x450398: vmovups  [rsi+0x0080], zmm2 ; vmovups  [rsi+0x00C0], zmm2 ; ret ; (1 found)
0x45039f: vmovups  [rsi+0x00C0], zmm2 ; ret ; (1 found)
0x450435: vmovups  [rsi+0x0180], zmm2 ; vmovups  [rsi+0x01C0], zmm2 ; ret ; (1 found)
0x45043c: vmovups  [rsi+0x01C0], zmm2 ; ret ; (1 found)
0x450237: vmovups  [rsi-0x0080], zmm2 ; vmovups  [rsi-0x40], zmm2 ; ret ; (3 found)
0x45023e: vmovups  [rsi-0x40], zmm2 ; ret ; (4 found)
0x461cae: vpand ymm1, ymm15,  [rdi] ; lahf ; ret ; (1 found)
0x446fa1: vpcmpeqb xmm0, xmm0, xmm1 ; lea r10, qword [r10+r9] ; jmp r10 ; (2 found)
0x4092e5: vpsubsb xmm14, xmm15,  [rsi+rdi*2+0x2948FFFF] ; ret ; (1 found)
0x452133: vzeroall ; ret ; (18 found)
0x42fec4: vzeroupper ; ret ; (238 found)
0x4bce7b: wait ; hlt ; call qword [rax-0x76B6A8BF] ; (1 found)
0x4be1f9: wait ; ret ; (1 found)
0x418d06: xchg  [0xFFFFFFFF89418D21], eax ; retn 0xC083 ; (1 found)
0x49fd02: xchg  [rax-0x3D], eax ; xor eax, eax ; ret ; (1 found)
0x49fb6d: xchg  [rax-0x3D], esp ; xor eax, eax ; ret ; (1 found)
0x49fb6c: xchg  [rax-0x3D], r12d ; xor eax, eax ; ret ; (1 found)
0x49fd01: xchg  [rax-0x3D], r8d ; xor eax, eax ; ret ; (1 found)
0x419503: xchg  [rax-0x76FFFFF5], ecx ; retn 0xC083 ; (1 found)
0x41ec65: xchg  [rax-0x76FFFFFF], ebp ; retn 0xC083 ; (1 found)
0x4bfca0: xchg  [rax-0x77], ecx ; retn 0xC148 ; (2 found)
0x49fbad: xchg  [rax], esp ; ret ; (6 found)
0x49fbac: xchg  [rax], r12d ; ret ; (6 found)
0x42d0d5: xchg  [rbp+0x02], ecx ; add byte [rax+0x0F], cl ; retn 0x66C3 ; (1 found)
0x45982e: xchg  [rbp+rdi*8-0x0F760001], esi ; ret ; (1 found)
0x49fd16: xchg  [rbp-0x14], esi ; lea rax, qword [rdi+rax*4] ; ret ; (1 found)
0x49fb4e: xchg  [rbx], edi ; xor byte [rbp+0x1D], dh ; ret ; (1 found)
0x48e8dc: xchg  [rcx-0x76FFFFF9], edi ; retn 0xC083 ; (1 found)
0x4b0055: xchg  [rcx], edi ; sti ; call qword [rax-0x00043517] ; (1 found)
0x415629: xchg  [rdi-0x77000000], esp ; retn 0xC083 ; (1 found)
0x48d889: xchg  [rdx-0x76FFFFF2], ebp ; retn 0xC083 ; (1 found)
0x42d2a4: xchg  [rdx], eax ; add bh, dh ; retn 0x0000 ; (1 found)
0x418f6d: xchg  [rsi-0x76FFFFEE], esi ; retn 0xC083 ; (1 found)
0x41a154: xchg  [rsi-0x76FFFFFF], ecx ; retn 0xC083 ; (1 found)
0x447e9c: xchg bh, bh ; add eax, 0x83480000 ; retn 0x4910 ; (1 found)
0x4476bc: xchg bh, bl ; or eax, 0x83480000 ; retn 0x4910 ; (1 found)
0x49bef1: xchg bl, cl ; adc eax, 0x83480000 ; retn 0xE910 ; (1 found)
0x433d23: xchg byte [0x83480000+rax], ch ; retn 0xEB10 ; (1 found)
0x48f43b: xchg byte [rax+0x01], cl ; lock jmp rax ; (1 found)
0x446d9f: xchg byte [rax+rax+0x00], bh ; add byte [rax-0x7D], cl ; retn 0xE910 ; (1 found)
0x41fae7: xchg byte [rax+rax-0x2DCF0000], ah ; mov rdi, rbp ; call qword [rbx+0x00000080] ; (1 found)
0x4341cb: xchg byte [rax+rax-0x7CB80000], al ; retn 0xEB10 ; (1 found)
0x44657f: xchg byte [rax+rcx-0x7CB80000], bl ; retn 0xE910 ; (1 found)
0x445d5f: xchg byte [rax+rdx-0x7CB80000], bh ; retn 0xE910 ; (1 found)
0x4ba9b4: xchg byte [rax-0x39], cl ; retn 0xFFFF ; (1 found)
0x4b6a21: xchg byte [rax-0x77], cl ; retn 0x294C ; (1 found)
0x4468bf: xchg byte [rbp+rax+0x00], bl ; add byte [rax-0x7D], cl ; retn 0xE910 ; (1 found)
0x44609f: xchg byte [rbp+rcx+0x00], bh ; add byte [rax-0x7D], cl ; retn 0xE910 ; (1 found)
0x4334b3: xchg byte [rbp+rcx-0x7CB80000], bl ; retn 0xEB10 ; (1 found)
0x44587f: xchg byte [rbp+rdx-0x7CB80000], bl ; retn 0xE910 ; (1 found)
0x4a4639: xchg byte [rbx+rax+0x00], bh ; add byte [rax+0x01], cl ; retn 0xBA41 ; (1 found)
0x433f03: xchg byte [rbx+rax+0x00], cl ; add byte [rax-0x7D], cl ; retn 0xEB10 ; (1 found)
0x446a5f: xchg byte [rbx+rax-0x7CB80000], bh ; retn 0xE910 ; (1 found)
0x433693: xchg byte [rbx+rcx-0x7CB80000], bh ; retn 0xEB10 ; (1 found)
0x422e3a: xchg byte [rcx+0x48000000], ah ; mov edi, ebx ; call qword [r13+0x60] ; (1 found)
0x4340e3: xchg byte [rcx+rax+0x00], ch ; add byte [rax-0x7D], cl ; retn 0xEB10 ; (1 found)
0x4ba250: xchg byte [rcx+rax-0x10], cl ; jmp rax ; (1 found)
0x4916a9: xchg byte [rdx+0x4C000001], ch ; mov edi, ebp ; call qword [r14+0x20] ; (1 found)
0x433ff3: xchg byte [rdx+rax+0x00], bl ; add byte [rax-0x7D], cl ; retn 0xEB10 ; (1 found)
0x445bbf: xchg byte [rdx+rdx+0x00], bl ; add byte [rax-0x7D], cl ; retn 0xE910 ; (1 found)
0x49c796: xchg byte [rsi], ah ; or eax, 0x83480000 ; retn 0x4910 ; (1 found)
0x4335a3: xchg byte [rsp+rcx-0x7CB80000], ch ; retn 0xEB10 ; (1 found)
0x4a8aec: xchg ch, dh ; call qword [rax+0x48C28948] ; (1 found)
0x446035: xchg dh, ah ; or eax, 0x83480000 ; retn 0x4910 ; (1 found)
0x446855: xchg dh, al ; add eax, 0x83480000 ; retn 0x4910 ; (1 found)
0x433485: xchg dl, cl ; or eax, 0x83480000 ; retn 0x4910 ; (1 found)
0x49a568: xchg eax, ebp ; adc eax, 0x83480000 ; retn 0xE910 ; (1 found)
0x4904d1: xchg eax, ebp ; adc esi, edi ; jmp qword [rsi+0x2E] ; (1 found)
0x4bba6c: xchg eax, ebp ; cmp ah, 0xFF ; jmp qword [rsi+0x0F] ; (1 found)
0x4bc047: xchg eax, ebp ; cmp dh, 0xFF ; jmp qword [rsi+0x0F] ; (1 found)
0x464e13: xchg eax, ebp ; ret ; (5 found)
0x4817b7: xchg eax, ebp ; retn 0x0941 ; (1 found)
0x427ec1: xchg eax, ebp ; retn 0x2948 ; (1 found)
0x429ab6: xchg eax, ebp ; retn 0x294C ; (1 found)
0x4b75fa: xchg eax, ebp ; retn 0x3145 ; (4 found)
0x460ca4: xchg eax, ebp ; retn 0x3948 ; (1 found)
0x465b13: xchg eax, ebp ; retn 0x8348 ; (1 found)
0x47782b: xchg eax, ebp ; retn 0x8941 ; (4 found)
0x4648ea: xchg eax, ebp ; retn 0x894C ; (1 found)
0x46b6db: xchg eax, ebp ; retn 0x8D47 ; (1 found)
0x46624f: xchg eax, ebp ; retn 0x8D48 ; (1 found)
0x4813fb: xchg eax, ebp ; retn 0xB60F ; (2 found)
0x4787db: xchg eax, ebp ; retn 0xC220 ; (4 found)
0x42543f: xchg eax, ebp ; retn 0xC231 ; (1 found)
0x4b5b6b: xchg eax, ebp ; retn 0xC931 ; (1 found)
0x4a0e30: xchg eax, ebp ; retn 0xC985 ; (1 found)
0x4b7393: xchg eax, ebp ; retn 0xD348 ; (1 found)
0x4b8ac2: xchg eax, ebp ; retn 0xD349 ; (1 found)
0x4297a8: xchg eax, ebp ; retn 0xE083 ; (1 found)
0x45bdb5: xchg eax, ebp ; retn 0xF748 ; (1 found)
0x467b8c: xchg eax, ebp ; stc ; call qword [rax-0x05E1F00D] ; (1 found)
0x467bbf: xchg eax, ebp ; stc ; jmp qword [rsi+0x0F] ; (1 found)
0x48a34b: xchg eax, ebp ; std ; jmp qword [rsi-0x70] ; (1 found)
0x40b27b: xchg eax, ebx ; add r10, r11 ; jmp r10 ; (1 found)
0x49fd71: xchg eax, ebx ; lea rax, qword [rdx+rax*4] ; ret ; (1 found)
0x44d21c: xchg eax, ebx ; lea rcx, qword [r11+rcx] ; jmp rcx ; (16 found)
0x435d82: xchg eax, ebx ; lea rdx, qword [r11+rdx] ; jmp rdx ; (150 found)
0x457917: xchg eax, ebx ; ret ; (3 found)
0x45790f: xchg eax, ebx ; retn 0xC085 ; (3 found)
0x4761dc: xchg eax, ebx ; retn 0xD008 ; (2 found)
0x467dcb: xchg eax, ebx ; stc ; jmp qword [rsi+0x0F] ; (2 found)
0x405e66: xchg eax, ecx ; add rax, rcx ; jmp rax ; (1 found)
0x4056b1: xchg eax, ecx ; add rdx, rcx ; jmp rdx ; (4 found)
0x4b704b: xchg eax, ecx ; retn 0x0003 ; (1 found)
0x440eca: xchg eax, ecx ; sar ch, 0xFF ; jmp qword [rdx-0x0F] ; (1 found)
0x44556f: xchg eax, ecx ; sub eax, edx ; ret ; (4 found)
0x45ff15: xchg eax, edi ; adc eax, 0x89480000 ; ret ; (1 found)
0x45c9a1: xchg eax, edi ; add rdx, rdi ; jmp rdx ; (1 found)
0x48409a: xchg eax, edx ; fcos ; jmp qword [rsi-0x70] ; (1 found)
0x4a70da: xchg eax, edx ; ret ; (2 found)
0x4b87b0: xchg eax, edx ; retn 0x0148 ; (1 found)
0x450118: xchg eax, edx ; retn 0x0F40 ; (2 found)
0x41794a: xchg eax, edx ; retn 0x3948 ; (2 found)
0x47fc99: xchg eax, edx ; retn 0x8948 ; (1 found)
0x4b19b7: xchg eax, edx ; retn 0xCE89 ; (1 found)
0x4b8792: xchg eax, edx ; retn 0xDB31 ; (1 found)
0x43422c: xchg eax, edx ; sub eax, edx ; ret ; (1 found)
0x403315: xchg eax, esi ; add rax, rsi ; jmp rax ; (1 found)
0x4ba4c3: xchg eax, esi ; add rdx, r14 ; jmp rdx ; (1 found)
0x40afa5: xchg eax, esi ; add rdx, rsi ; jmp rdx ; (3 found)
0x401a3a: xchg eax, esi ; idiv edi ; call qword [rax-0x18] ; (1 found)
0x4a1886: xchg eax, esi ; lock sti ; jmp qword [rsi+0x0F] ; (1 found)
0x459b37: xchg eax, esi ; retn 0xB60F ; (1 found)
0x48ada6: xchg eax, esi ; stc ; jmp qword [rsi+0x0F] ; (1 found)
0x403107: xchg eax, esp ; ret ; (7 found)
0x48f424: xchg eax, esp ; retn 0x0004 ; (1 found)
0x478f40: xchg eax, esp ; retn 0x2040 ; (4 found)
0x4b78ec: xchg eax, esp ; retn 0x2044 ; (1 found)
0x4a0fa1: xchg eax, esp ; retn 0x3840 ; (3 found)
0x460d75: xchg eax, esp ; retn 0x3948 ; (1 found)
0x4b8156: xchg eax, esp ; retn 0x8441 ; (1 found)
0x487f63: xchg eax, esp ; retn 0x894C ; (1 found)
0x46622e: xchg eax, esp ; retn 0x8D48 ; (2 found)
0x4a0f61: xchg eax, esp ; retn 0xB60F ; (1 found)
0x48ed68: xchg eax, esp ; retn 0xCA08 ; (1 found)
0x41bc97: xchg eax, esp ; retn 0xD008 ; (1 found)
0x47301f: xchg eax, esp ; retn 0xD108 ; (1 found)
0x4af99b: xchg eax, esp ; retn 0xDE89 ; (1 found)
0x4b0321: xchg eax, esp ; retn 0xF631 ; (1 found)
0x468435: xchg eax, esp ; retn 0xF739 ; (1 found)
0x4b3c51: xchg eax, esp ; retn 0xF883 ; (1 found)
0x49ff3d: xchg ebx, eax ; xor eax, eax ; ret ; (2 found)
0x4089e3: xchg edi, edi ; jmp qword [rsi+0x2E] ; (1 found)
0x49338e: xchg rax, r8 ; add rsp, 0x18 ; ret ; (1 found)
0x4aee0a: xend ; xor eax, eax ; ret ; (1 found)
0x435c4d: xlatb ; add r9, r11 ; jmp r9 ; (2 found)
0x41968b: xlatb ; jmp rdx ; (4 found)
0x456c65: xlatb ; lea eax,  [rdi+rax+0x00000080] ; ret ; (1 found)
0x456c35: xlatb ; lea eax,  [rdi+rax+0x20] ; ret ; (1 found)
0x456c45: xlatb ; lea eax,  [rdi+rax+0x40] ; ret ; (1 found)
0x456c55: xlatb ; lea eax,  [rdi+rax+0x60] ; ret ; (1 found)
0x457532: xlatb ; lea rax, qword [rdi+rax+0x00000080] ; ret ; (1 found)
0x4574e6: xlatb ; lea rax, qword [rdi+rax+0x20] ; ret ; (2 found)
0x4574b4: xlatb ; lea rax, qword [rdi+rax+0x40] ; ret ; (2 found)
0x45756d: xlatb ; lea rax, qword [rdi+rax+0x60] ; ret ; (1 found)
0x47709b: xlatb ; or byte [rax-0x7D], cl ; retn 0x4801 ; (8 found)
0x434864: xlatb ; ret ; (70 found)
0x448fc7: xlatb ; retn 0x094C ; (1 found)
0x449318: xlatb ; retn 0x0F66 ; (14 found)
0x43484f: xlatb ; retn 0xC085 ; (34 found)
0x434f58: xlatb ; retn 0xC0FF ; (6 found)
0x42e9f0: xlatb ; retn 0xC148 ; (3 found)
0x43529e: xlatb ; retn 0xFF2D ; (8 found)
0x494c23: xlatb ; rol  [rbp+0x315775C0], 0xFFFFFFC0 ; ret ; (1 found)
0x49e563: xlatb ; rol  [rbp+0x316775C0], 0xFFFFFFC0 ; ret ; (1 found)
0x44e10a: xlatb ; ror  [rcx], cl ; retn 0xE074 ; (1 found)
0x42e8d6: xlatb ; sal bh, 1 ; retn 0x8000 ; (8 found)
0x42e796: xlatb ; sal bh, 1 ; retn 0xC000 ; (8 found)
0x42e656: xlatb ; sal bh, 1 ; retn 0xE000 ; (8 found)
0x42e516: xlatb ; sal bh, 1 ; retn 0xF000 ; (8 found)
0x42e3d6: xlatb ; sal bh, 1 ; retn 0xF800 ; (8 found)
0x42e296: xlatb ; sal bh, 1 ; retn 0xFC00 ; (8 found)
0x42e156: xlatb ; sal bh, 1 ; retn 0xFE00 ; (8 found)
0x42e016: xlatb ; sal bh, 1 ; retn 0xFF00 ; (8 found)
0x42ded6: xlatb ; sal bh, 1 ; retn 0xFF80 ; (8 found)
0x42dd96: xlatb ; sal bh, 1 ; retn 0xFFC0 ; (8 found)
0x42dc56: xlatb ; sal bh, 1 ; retn 0xFFE0 ; (8 found)
0x42db16: xlatb ; sal bh, 1 ; retn 0xFFF0 ; (8 found)
0x42d9d6: xlatb ; sal bh, 1 ; retn 0xFFF8 ; (8 found)
0x42d896: xlatb ; sal bh, 1 ; retn 0xFFFC ; (8 found)
0x42d756: xlatb ; sal bh, 1 ; retn 0xFFFE ; (8 found)
0x41ee68: xor  [0x0000000001B5EE6E], ecx ; ret ; (1 found)
0x463535: xor  [rax], eax ; add byte [rax], al ; syscall ; (1 found)
0x4293c1: xor  [rax], ecx ; add  [rax+0x39], ecx ; ret ; (1 found)
0x4b180b: xor  [rbp-0x0B], eax ; call qword [rax-0x05E1F00D] ; (1 found)
0x47527e: xor  [rcx], edi ; retn 0x820F ; (1 found)
0x42d3ce: xor  [rdx], eax ; add byte [rax+0x0F], cl ; retn 0x66C3 ; (1 found)
0x4578fd: xor ah, byte [rdx-0x4D] ; and byte [r15], r15L ; retn 0xC500 ; (1 found)
0x4be9b4: xor ah, dh ; jmp qword [rsi+0x0F] ; (1 found)
0x49417f: xor al, 0x00 ; add byte [rax+0x0F], cl ; retn 0x66C3 ; (1 found)
0x45133f: xor al, 0x17 ; ret ; (2 found)
0x487bf3: xor al, 0x29 ; retn 0x8341 ; (1 found)
0x48f4d8: xor al, 0xB7 ; add rsi, rdi ; jmp rsi ; (1 found)
0x4be5f6: xor al, 0xF4 ; jmp qword [rsi+0x0F] ; (2 found)
0x463565: xor al, byte [rax] ; add byte [rax], al ; syscall ; (1 found)
0x4bf787: xor al, ch ; ret ; (1 found)
0x413df1: xor bh, bh ; add cl, ch ; jmp qword [rbx-0x76BB0001] ; (1 found)
0x43494b: xor byte [r14+0x0F], r12L ; xlatb ; ret ; (3 found)
0x48fb97: xor byte [r9-0x75], cl ; add byte [rcx+0x39], cl ; ret ; (1 found)
0x448575: xor byte [rax+0x0F], cl ; retn 0x0FC3 ; (1 found)
0x44869f: xor byte [rax+0x0F], cl ; retn 0x66C3 ; (1 found)
0x4b91da: xor byte [rax+0x21], cl ; retn 0x8949 ; (1 found)
0x45d521: xor byte [rax+0x39], cl ; retn 0x830F ; (1 found)
0x48df11: xor byte [rax+0x39], cl ; retn 0x850F ; (1 found)
0x449eff: xor byte [rax-0x77], cl ; add cl, byte [rax-0x7D] ; retn 0x4808 ; (2 found)
0x47d678: xor byte [rax-0x77], cl ; mov byte [rcx+0x0F], 0x95 ; ret ; (1 found)
0x4ae8e7: xor byte [rax-0x77], cl ; or byte [rax+0x00000002], r15L ; ret ; (1 found)
0x4746eb: xor byte [rax-0x77], cl ; ret ; (1 found)
0x41513c: xor byte [rax-0x7D], cl ; ret ; (1 found)
0x4048f6: xor byte [rax], al ; add byte [rax+0x0000009E], bh ; syscall ; (3 found)
0x4232e9: xor byte [rbp+0x14], 0x5D ; ret ; (1 found)
0x49fb50: xor byte [rbp+0x1D], dh ; ret ; (1 found)
0x455e90: xor byte [rbp+0x1E], dh ; ret ; (1 found)
0x4b9298: xor byte [rbx+0x5D], bl ; pop r12 ; ret ; (3 found)
0x4897bb: xor byte [rbx-0x7CB7FB8E], cl ; retn 0x4804 ; (1 found)
0x49113c: xor byte [rcx+0x5D5B7453], cl ; pop r12 ; ret ; (2 found)
0x41d0eb: xor byte [rcx+rcx*4-0x01], cl ; call qword [r14+0x00000090] ; (1 found)
0x48fb98: xor byte [rcx-0x75], cl ; add byte [rcx+0x39], cl ; ret ; (1 found)
0x41799f: xor byte [rcx-0x77], cl ; ret ; (1 found)
0x4b8555: xor byte [rcx-0x77], cl ; retn 0x8941 ; (1 found)
0x450779: xor byte [rdi+rcx+0x11], al ; cmp r14L, al ; ret ; (1 found)
0x4920d3: xor byte [rdx+0x09], 0x00 ; add byte [rax], al ; ret ; (1 found)
0x448f2c: xor byte [rsi+0x0F], ah ; outsd ; ret ; (1 found)
0x43494c: xor byte [rsi+0x0F], ah ; xlatb ; ret ; (3 found)
0x4b2cfc: xor ch, dh ; call qword [rax-0x76B6AABF] ; (1 found)
0x48de62: xor cl, byte [rax-0x77] ; ror  [rax-0x7D], cl ; retn 0x4104 ; (1 found)
0x4a3b86: xor cl, byte [rax-0x7D] ; retn 0x4838 ; (1 found)
0x424c4b: xor dh, 0x80 ; syscall ; (1 found)
0x425385: xor dh, 0x81 ; mov eax, 0x000000CA ; syscall ; (5 found)
0x425251: xor dh, 0x81 ; syscall ; (4 found)
0x4b2a91: xor dh, ch ; jmp qword [rsi+0x66] ; (1 found)
0x413df0: xor dil, r15L ; add cl, ch ; jmp qword [rbx-0x76BB0001] ; (1 found)
0x49d96c: xor eax,  [rbx-0x70F0BF3E] ; mov edx, 0x83000000 ; retn 0x7E20 ; (1 found)
0x401557: xor eax,  [rcx] ; add byte [rbx-0x7CB7FD12], al ; retn 0x4810 ; (1 found)
0x42d1ee: xor eax,  [rdx] ; add byte [rax+0x0F], cl ; retn 0x66C3 ; (1 found)
0x48dbb4: xor eax, 0x00061EE7 ; jmp qword [rsi+rdx*8] ; (1 found)
0x48dc4d: xor eax, 0x00061F4E ; jmp qword [rsi+rdx*8] ; (1 found)
0x48ae81: xor eax, 0x0006481A ; movzx eax, byte [rdi+rax] ; jmp qword [rsi+rax*8] ; (1 found)
0x424fde: xor eax, 0x0009F2BD ; syscall ; (1 found)
0x424e6b: xor eax, 0x0009F430 ; mov eax, 0x0000000E ; syscall ; (1 found)
0x42cfde: xor eax, 0x0F480002 ; retn 0x66C3 ; (1 found)
0x4642ff: xor eax, 0x39E80006 ; sbb bh, dl ; jmp qword [rsi+0x0F] ; (1 found)
0x4bad55: xor eax, 0x89480000 ; ret ; (1 found)
0x401786: xor eax, 0x894C0002 ; out 0xE8, eax ; jmp qword [rdi-0x08BEFFF5] ; (1 found)
0x483147: xor eax, 0x8DFFFFC7 ; iretq ; (1 found)
0x42b2db: xor eax, 0xF6000CE1 ; retn 0x7402 ; (1 found)
0x46d202: xor eax, 0xF7000004 ; retn 0x0000 ; (1 found)
0x429b98: xor eax, eax ; add rsp, 0x08 ; ret ; (7 found)
0x467a0b: xor eax, eax ; call rbx ; (1 found)
0x462ff6: xor eax, eax ; mov eax, 0x00000019 ; syscall ; (1 found)
0x4a1ac5: xor eax, eax ; mov eax, r8d ; ret ; (1 found)
0x493f9a: xor eax, eax ; mov qword [r8], rsi ; ret ; (1 found)
0x458956: xor eax, eax ; mov rcx, r12 ; call rbx ; (1 found)
0x458ae5: xor eax, eax ; mov rdi, rbp ; call rbx ; (1 found)
0x403187: xor eax, eax ; pop rbx ; ret ; (3 found)
0x403b9e: xor eax, eax ; ret ; (105 found)
0x42ebfe: xor eax, eax ; sub eax, ecx ; ret ; (1 found)
0x460828: xor eax, eax ; syscall ; (3 found)
0x434660: xor eax, eax ; vzeroupper ; ret ; (9 found)
0x48db36: xor ebp, ebp ; mov rdx, qword [r8+rdx*8] ; jmp rdx ; (1 found)
0x4907c2: xor ebp, edi ; jmp qword [rsi+0x2E] ; (1 found)
0x41edb6: xor ecx,  [rax-0x7D] ; ret ; (2 found)
0x4a18d3: xor edi, eax ; jmp qword [rsi+0x2E] ; (1 found)
0x4034e0: xor edi, edi ; mov eax, edx ; syscall ; (1 found)
0x461520: xor edi, edi ; syscall ; (1 found)
0x4923de: xor edx, edx ; mov eax, 0x000000CA ; syscall ; (1 found)
0x4625d0: xor edx, edx ; mov esi, 0x00000001 ; call r12 ; (1 found)
0x41d1d0: xor edx, edx ; mov rdi, r15 ; call qword [r14+0x00000080] ; (1 found)
0x41d78c: xor edx, edx ; mov rdi, r15 ; call qword [rbx+0x00000080] ; (1 found)
0x41f802: xor edx, edx ; mov rdi, rbp ; call qword [rax+0x00000080] ; (1 found)
0x41faec: xor edx, edx ; mov rdi, rbp ; call qword [rbx+0x00000080] ; (1 found)
0x48d0ab: xor edx, edx ; mov rdx, qword [r8+rdx*8] ; jmp rdx ; (1 found)
0x422f37: xor edx, edx ; pop rbx ; jmp rax ; (1 found)
0x467a7d: xor edx, edx ; push rax ; call rbx ; (1 found)
0x492242: xor esi, eax ; xor r8d, r8d ; syscall ; (1 found)
0x4617c7: xor esi, esi ; call r12 ; (4 found)
0x41bc5a: xor esi, esi ; mov rdi, rbp ; call qword [rbx+0x10] ; (1 found)
0x423818: xor esi, esi ; mov rdi, rbx ; call qword [rcx+0x58] ; (1 found)
0x492241: xor esi, r8d ; xor r8d, r8d ; syscall ; (1 found)
0x41ee67: xor qword [0x0000000001B5EE6E], r9 ; ret ; (1 found)
0x4293c0: xor qword [rax], r9 ; add  [rax+0x39], ecx ; ret ; (1 found)
0x48d0aa: xor r10d, r10d ; mov rdx, qword [r8+rdx*8] ; jmp rdx ; (1 found)
0x4907c1: xor r13, rdi ; jmp qword [rsi+0x2E] ; (1 found)
0x4b2cfb: xor r13L, sil ; call qword [rax-0x76B6AABF] ; (1 found)
0x42d1ed: xor r8, qword [r10] ; add byte [rax+0x0F], cl ; retn 0x66C3 ; (1 found)
0x467a0a: xor r8d, r8d ; call rbx ; (1 found)
0x462ff5: xor r8d, r8d ; mov eax, 0x00000019 ; syscall ; (1 found)
0x4a1ac4: xor r8d, r8d ; mov eax, r8d ; ret ; (1 found)
0x458955: xor r8d, r8d ; mov rcx, r12 ; call rbx ; (1 found)
0x458ae4: xor r8d, r8d ; mov rdi, rbp ; call rbx ; (1 found)
0x492244: xor r8d, r8d ; syscall ; (1 found)
0x449469: xor rax, rax ; ret ; (5 found)
0x424c4a: xor sil, 0x80 ; syscall ; (1 found)
0x425384: xor sil, 0x81 ; mov eax, 0x000000CA ; syscall ; (5 found)
0x425250: xor sil, 0x81 ; syscall ; (4 found)
