Trying to open 'tiny.1996'..
Loading ELF information..
FileFormat: Elf, Arch: x64

Wait a few seconds, rp++ is looking for gadgets (2 threads max)..
A total of 30423 gadgets found.
You decided to keep only the unique ones, 7845 unique gadgets found.
0x44d791: aaa ; lea rax, qword [rdi] ; ret ; (1 found)
0x440754: aaa ; mov  [r9-0x04], ecx ; ret ; (1 found)
0x440743: aaa ; mov qword [r9-0x08], rcx ; ret ; (1 found)
0x4503ea: aaa ; mov qword [rdi+rdx-0x08], rcx ; ret ; (5 found)
0x440768: aaa ; mov word [r9-0x02], cx ; ret ; (1 found)
0x448ceb: aaa ; ret ; (5 found)
0x484ee5: aaa ; retn 0xFFF7 ; (1 found)
0x4b1ab3: aaa ; sti ; jmp qword [rsi+0x2E] ; (1 found)
0x4b1a9a: aaa ; sti ; jmp qword [rsi-0x70] ; (2 found)
0x4af377: aad 0x00 ; nop  [rax+0x00000000] ; call qword [rbx] ; (1 found)
0x4068a5: aad 0x0E ; add byte [rax-0x77], cl ; ret ; (1 found)
0x4244c8: aad 0x0F ; lahf ; retn 0x3949 ; (1 found)
0x424560: aad 0x0F ; lahf ; retn 0x63E9 ; (1 found)
0x4298b4: aad 0x0F ; xchg eax, ebp ; retn 0x294C ; (1 found)
0x4295a6: aad 0x0F ; xchg eax, ebp ; retn 0xE083 ; (1 found)
0x41ba95: aad 0x0F ; xchg eax, esp ; retn 0xD008 ; (1 found)
0x41aa2b: aad 0x48 ; mov edi, ebx ; call qword [r14+0x38] ; (2 found)
0x40efdf: aad 0xFF ; dec  [rax-0x77] ; retn 0x8B48 ; (1 found)
0x475fda: aam 0x0F ; xchg eax, ebx ; retn 0xD008 ; (2 found)
0x468673: aam 0xF9 ; jmp qword [rsi+0x2E] ; (1 found)
0x490bc0: aas ; mov rdi, rbx ; call qword [rbp+0x20] ; (1 found)
0x45588a: aas ; ret ; (9 found)
0x455d51: aas ; retn 0x6200 ; (6 found)
0x455864: aas ; retn 0xC500 ; (10 found)
0x464583: adc  [0x00000000004F8C60], eax ; ret ; (1 found)
0x42cd9b: adc  [0x000000000F8ACDA2], ecx ; retn 0x0FC3 ; (1 found)
0x45f665: adc  [rax+0x000002D8], eax ; mov eax, 0x00000111 ; syscall ; (1 found)
0x4ac1b0: adc  [rax+0x00000300], eax ; ret ; (1 found)
0x4ac200: adc  [rax+0x00000308], eax ; ret ; (1 found)
0x4a267e: adc  [rax+0x29], ecx ; retn 0x0149 ; (2 found)
0x489bb7: adc  [rax+0x39], ecx ; ret ; (3 found)
0x4916eb: adc  [rax+0x40], eax ; pop rbx ; ret ; (2 found)
0x4519ac: adc  [rax+rdx-0x10], eax ; ret ; (1 found)
0x484770: adc  [rax-0x0000DF6B], ecx ; jmp qword [rsi+0x0F] ; (1 found)
0x47545d: adc  [rax-0x39], ecx ; retn 0xFFE0 ; (1 found)
0x403230: adc  [rax-0x73], ecx ; push 0x001F0FF8 ; call qword [rbp+rbx*8+0x00] ; (1 found)
0x487fe9: adc  [rax-0x77], ecx ; retn 0xC148 ; (1 found)
0x47768f: adc  [rax-0x7D], ecx ; retn 0x4101 ; (4 found)
0x44721b: adc  [rax], 0x83480000 ; retn 0x4910 ; (1 found)
0x49dd97: adc  [rax], eax ; add byte [rax-0x468AFB1B], al ; ret ; (1 found)
0x445af6: adc  [rax], eax ; add byte [rax-0x7D], cl ; retn 0x4910 ; (4 found)
0x44711f: adc  [rax], eax ; add byte [rax-0x7D], cl ; retn 0xE910 ; (3 found)
0x4a19e8: adc  [rax], eax ; add byte [rax], al ; syscall ; (1 found)
0x4519a9: adc  [rax], eax ; movups  [rax+rdx-0x10], xmm0 ; ret ; (1 found)
0x4908d3: adc  [rax], eax ; ret ; (1 found)
0x490898: adc  [rax], ecx ; ret ; (1 found)
0x464632: adc  [rbx+0x000002D8], eax ; syscall ; (1 found)
0x41f1c6: adc  [rbx+0x08], eax ; pop rbx ; ret ; (1 found)
0x41edc7: adc  [rbx+0x28], eax ; pop rbx ; ret ; (2 found)
0x42a1d9: adc  [rbx+0x2EE80009], edx ; mov bh, 0xFF ; jmp qword [rsi+0x66] ; (1 found)
0x422096: adc  [rbx+0x48], eax ; pop rbx ; ret ; (2 found)
0x4a204e: adc  [rbx], eax ; pop rbx ; ret ; (1 found)
0x440a34: adc  [rcx+0x06], esi ; vmovups  [r9+0x01C0], zmm15 ; ret ; (1 found)
0x440a3b: adc  [rcx+0x07], edi ; ret ; (1 found)
0x423061: adc  [rcx+0x40], eax ; mov qword [rax+0x000000A8], 0x0000000000000000 ; ret ; (1 found)
0x4406d6: adc  [rcx-0x01], ebx ; ret ; (1 found)
0x44069a: adc  [rcx-0x01], edi ; ret ; (2 found)
0x4406cf: adc  [rcx-0x02], edx ; vmovups  [r9-0x40], zmm3 ; ret ; (1 found)
0x4408cd: adc  [rcx-0x02], esi ; vmovups  [r9-0x40], zmm15 ; ret ; (1 found)
0x440693: adc  [rcx-0x02], esi ; vmovups  [r9-0x40], zmm7 ; ret ; (1 found)
0x45f66c: adc  [rcx], eax ; add byte [rax], al ; syscall ; (1 found)
0x45050c: adc  [rcx], eax ; ret ; (1 found)
0x422e6a: adc  [rdi+0x000000A0], eax ; ret ; (2 found)
0x421fac: adc  [rdi+0x08], eax ; ret ; (1 found)
0x421f71: adc  [rdi+0x08], ecx ; ret ; (1 found)
0x451a20: adc  [rdi+0x20], eax ; movups  [rdi+0x30], xmm0 ; ret ; (1 found)
0x451a24: adc  [rdi+0x30], eax ; ret ; (1 found)
0x450577: adc  [rdi+0x30], edi ; movups  [rdx+rdi-0x10], xmm8 ; ret ; (1 found)
0x45192d: adc  [rdi+rdx-0x10], eax ; movups  [rdi], xmm0 ; ret ; (1 found)
0x450725: adc  [rdi+rdx-0x10], ebx ; ret ; (2 found)
0x4502b7: adc  [rdi+rdx-0x10], ecx ; ret ; (2 found)
0x450403: adc  [rdi+rdx-0x10], edx ; movups  [rdi+rdx-0x20], xmm3 ; ret ; (1 found)
0x450408: adc  [rdi+rdx-0x20], ebx ; ret ; (1 found)
0x450720: adc  [rdi+rdx-0x20], edx ; movups  [rdi+rdx-0x10], xmm3 ; ret ; (2 found)
0x450466: adc  [rdi+rdx-0x30], esi ; movups  [rdi+rdx-0x40], xmm7 ; ret ; (1 found)
0x45046b: adc  [rdi+rdx-0x40], edi ; ret ; (1 found)
0x440b96: adc  [rdi-0x07], esi ; vmovups  [rdi-0x0200], zmm15 ; ret ; (1 found)
0x440b9d: adc  [rdi-0x08], edi ; ret ; (1 found)
0x4519b6: adc  [rdi-0x10], eax ; ret ; (1 found)
0x4519b2: adc  [rdi-0x20], eax ; movups  [rdi-0x10], xmm0 ; ret ; (1 found)
0x4502b4: adc  [rdi], eax ; movups  [rdi+rdx-0x10], xmm1 ; ret ; (2 found)
0x451932: adc  [rdi], eax ; ret ; (1 found)
0x450070: adc  [rdi], edx ; vmovups  [rsi-0x40], zmm2 ; ret ; (1 found)
0x45057c: adc  [rdx+rdi-0x10], eax ; ret ; (1 found)
0x450509: adc  [rdx], eax ; movups  [rcx], xmm0 ; ret ; (1 found)
0x45019c: adc  [rsi+0x02], edx ; vmovups  [rsi+0x00C0], zmm2 ; ret ; (1 found)
0x4501a3: adc  [rsi+0x03], edx ; ret ; (1 found)
0x450239: adc  [rsi+0x06], edx ; vmovups  [rsi+0x01C0], zmm2 ; ret ; (1 found)
0x450240: adc  [rsi+0x07], edx ; ret ; (1 found)
0x450042: adc  [rsi-0x01], edx ; ret ; (4 found)
0x45003b: adc  [rsi-0x02], edx ; vmovups  [rsi-0x40], zmm2 ; ret ; (3 found)
0x451a6d: adc ah, bh ; ret ; (3 found)
0x451c24: adc ah, bh ; vzeroupper ; ret ; (1 found)
0x4457af: adc al, 0x00 ; add byte [rax-0x7D], cl ; retn 0x4910 ; (3 found)
0x445819: adc al, 0x00 ; add byte [rax-0x7D], cl ; retn 0xE910 ; (3 found)
0x4a8c1e: adc al, 0x00 ; add byte [rax], al ; syscall ; (1 found)
0x47f577: adc al, 0x09 ; retn 0x8F74 ; (1 found)
0x42d3a7: adc al, 0x0A ; jmp r10 ; (13 found)
0x42e913: adc al, 0x0A ; sub eax, edx ; ret ; (8 found)
0x4331fa: adc al, 0x0E ; sub eax, edx ; ret ; (1 found)
0x41962b: adc al, 0x10 ; jmp qword [rcx+rdx*8] ; (2 found)
0x48d9b0: adc al, 0x10 ; lea rsi, qword [0x00000000004EEAA0] ; jmp qword [rsi+rdx*8] ; (1 found)
0x48da49: adc al, 0x10 ; lea rsi, qword [0x00000000004EEBA0] ; jmp qword [rsi+rdx*8] ; (1 found)
0x418944: adc al, 0x10 ; mov rdx, qword [r11+rdx*8] ; jmp rdx ; (3 found)
0x41974f: adc al, 0x10 ; mov rdx, qword [rcx+rdx*8] ; jmp rdx ; (1 found)
0x419486: adc al, 0x10 ; mov rdx, qword [rdi+rdx*8] ; jmp rdx ; (4 found)
0x419444: adc al, 0x10 ; mov rdx, qword [rsi+rdx*8] ; jmp rdx ; (5 found)
0x463831: adc al, 0x11 ; mov qword [rax+0x08], rdx ; ret ; (1 found)
0x435b85: adc al, 0x13 ; jmp rdx ; (150 found)
0x42e7a9: adc al, 0x16 ; sub eax, edx ; ret ; (8 found)
0x456dd6: adc al, 0x3A ; sub eax, edx ; ret ; (2 found)
0x4602bc: adc al, 0x48 ; add esp, 0x28 ; ret ; (1 found)
0x44d980: adc al, 0x48 ; lea eax,  [rdi+0x14] ; ret ; (1 found)
0x4230eb: adc al, 0x5D ; ret ; (1 found)
0x4bac89: adc al, 0x90 ; add rdx, r8 ; jmp rdx ; (1 found)
0x4054b0: adc al, 0x91 ; add rdx, rcx ; jmp rdx ; (4 found)
0x44536e: adc al, 0x91 ; sub eax, edx ; ret ; (4 found)
0x40b07a: adc al, 0x93 ; add r10, r11 ; jmp r10 ; (1 found)
0x435b81: adc al, 0x93 ; lea rdx, qword [r11+rdx] ; jmp rdx ; (150 found)
0x4ba2c2: adc al, 0x96 ; add rdx, r14 ; jmp rdx ; (1 found)
0x40ada4: adc al, 0x96 ; add rdx, rsi ; jmp rdx ; (3 found)
0x45c7a0: adc al, 0x97 ; add rdx, rdi ; jmp rdx ; (1 found)
0x48ceaf: adc al, 0xD0 ; jmp rdx ; (3 found)
0x419753: adc al, 0xD1 ; jmp rdx ; (1 found)
0x418948: adc al, 0xD3 ; jmp rdx ; (3 found)
0x48dacf: adc al, 0xD3 ; mov rbx, qword [rsp+0x00000090] ; jmp rdx ; (1 found)
0x48d7ce: adc al, 0xD3 ; mov rbx, rcx ; jmp rdx ; (9 found)
0x419448: adc al, 0xD6 ; jmp rdx ; (5 found)
0x41948a: adc al, 0xD7 ; jmp rdx ; (4 found)
0x4a471f: adc al, 0xF6 ; jmp qword [rsi+0x0F] ; (1 found)
0x4bb622: adc al, 0xF7 ; ret ; (1 found)
0x4922ac: adc al, 0xFD ; call qword [rax+0x56415741] ; (1 found)
0x42fed3: adc al, ah ; mov eax,  [0xDAFDC520124C7465] ; retn 0xF5C5 ; (4 found)
0x451b28: adc al, ah ; vzeroupper ; ret ; (1 found)
0x451a66: adc al, bh ; ret ; (3 found)
0x451c16: adc al, bh ; vzeroupper ; ret ; (1 found)
0x445957: adc al, byte [rax] ; add byte [rax-0x7D], cl ; retn 0x4910 ; (2 found)
0x4459c1: adc al, byte [rax] ; add byte [rax-0x7D], cl ; retn 0xE910 ; (3 found)
0x4b4a1b: adc al, ch ; call rax ; (1 found)
0x4be0d7: adc al, ch ; ret ; (1 found)
0x4519ae: adc al, dh ; ret ; (1 found)
0x451c0a: adc al, dh ; vzeroupper ; ret ; (1 found)
0x451b27: adc al, r12L ; vzeroupper ; ret ; (1 found)
0x4519ad: adc al, r14L ; ret ; (1 found)
0x451c09: adc al, r14L ; vzeroupper ; ret ; (1 found)
0x451a76: adc bh, bh ; ret ; (8 found)
0x451c36: adc bh, bh ; vzeroupper ; ret ; (1 found)
0x4a9f66: adc bh, byte [rcx] ; retn 0x0C74 ; (1 found)
0x4a9ed4: adc bh, byte [rcx] ; retn 0x850F ; (1 found)
0x4748df: adc bh, cl ; jmp qword [rsi+0x66] ; (1 found)
0x45950b: adc bl, al ; mov rax, r8 ; ret ; (1 found)
0x4aceba: adc bl, byte [rax+0x00] ; add byte [rcx-0x77], cl ; ret ; (1 found)
0x4b923e: adc byte [0x00000000004D6968], al ; divss xmm0,  [0x00000000004DDEC0] ; ret ; (1 found)
0x4a8162: adc byte [0xFFFFFFFFC4CDC968], al ; or byte [rbx+0x5D], bl ; ret ; (1 found)
0x4b3235: adc byte [r13+0x59840FC0], al ; add eax, 0x01480000 ; ret ; (1 found)
0x41d4d2: adc byte [r8+0x01], r9L ; ret ; (1 found)
0x422351: adc byte [r8+0x39], r9L ; retn 0x870F ; (1 found)
0x4ad903: adc byte [r8+0x5A], bl ; pop rbx ; ret ; (3 found)
0x423f33: adc byte [r8-0x77], r9L ; retn 0x0F8B ; (1 found)
0x4aa623: adc byte [r9+0x03], cl ; add al, 0x24 ; call rax ; (1 found)
0x422dbb: adc byte [rax+0x00000001], bh ; pop rbx ; ret ; (2 found)
0x46068f: adc byte [rax+0x00000001], bh ; syscall ; (1 found)
0x46085f: adc byte [rax+0x00000003], bh ; syscall ; (1 found)
0x4614bf: adc byte [rax+0x00000009], bh ; syscall ; (1 found)
0x46329f: adc byte [rax+0x0000002B], bh ; syscall ; (1 found)
0x4609cd: adc byte [rax+0x0000004F], bh ; syscall ; (1 found)
0x476b3f: adc byte [rax+0x0000013E], bh ; syscall ; (1 found)
0x49e89e: adc byte [rax+0x01], cl ; clc ; ret ; (1 found)
0x4becfe: adc byte [rax+0x01], cl ; out dx, eax ; call r12 ; (1 found)
0x41d4d3: adc byte [rax+0x01], cl ; ret ; (2 found)
0x425879: adc byte [rax+0x01], cl ; retn 0x0349 ; (1 found)
0x41cbda: adc byte [rax+0x01], cl ; retn 0x2B48 ; (1 found)
0x4a9181: adc byte [rax+0x29], cl ; retn 0x394C ; (1 found)
0x487288: adc byte [rax+0x29], cl ; retn 0xC148 ; (1 found)
0x422352: adc byte [rax+0x39], cl ; retn 0x870F ; (1 found)
0x475f88: adc byte [rax+0x39], cl ; retn 0x8E0F ; (1 found)
0x4940ce: adc byte [rax+0x39], cl ; retn 0xF475 ; (1 found)
0x4ad904: adc byte [rax+0x5A], bl ; pop rbx ; ret ; (3 found)
0x422de3: adc byte [rax-0x00000001], bh ; pop rbx ; ret ; (2 found)
0x461983: adc byte [rax-0x09], cl ; retn 0xFFFE ; (1 found)
0x460f3b: adc byte [rax-0x39], cl ; ret ; (1 found)
0x48d9b1: adc byte [rax-0x73], cl ; xor eax, 0x000610E7 ; jmp qword [rsi+rdx*8] ; (1 found)
0x48da4a: adc byte [rax-0x73], cl ; xor eax, 0x0006114E ; jmp qword [rsi+rdx*8] ; (1 found)
0x419750: adc byte [rax-0x75], cl ; adc al, 0xD1 ; jmp rdx ; (1 found)
0x419445: adc byte [rax-0x75], cl ; adc al, 0xD6 ; jmp rdx ; (5 found)
0x419487: adc byte [rax-0x75], cl ; adc al, 0xD7 ; jmp rdx ; (4 found)
0x41fae0: adc byte [rax-0x77], cl ; out dx, eax ; call qword [r13+0x00000090] ; (1 found)
0x41f495: adc byte [rax-0x77], cl ; out dx, eax ; call qword [rax+0x00000090] ; (1 found)
0x461907: adc byte [rax-0x77], cl ; out dx, eax ; call rax ; (1 found)
0x423f34: adc byte [rax-0x77], cl ; retn 0x0F8B ; (1 found)
0x423ab4: adc byte [rax-0x77], cl ; retn 0x8B48 ; (1 found)
0x4b13c1: adc byte [rax-0x7B], cl ; sal byte [rbp-0x17], cl ; ret ; (1 found)
0x4047e2: adc byte [rax-0x7D], cl ; ret ; (3 found)
0x4bda84: adc byte [rax-0x7D], cl ; retn 0x4801 ; (1 found)
0x461f02: adc byte [rax-0x7D], cl ; retn 0x4808 ; (2 found)
0x465552: adc byte [rax-0x7D], cl ; retn 0x4810 ; (8 found)
0x4657a5: adc byte [rax-0x7D], cl ; retn 0x8310 ; (8 found)
0x49dd6a: adc byte [rax], al ; add byte [rax+0x0F], cl ; retn 0x66C3 ; (1 found)
0x44721c: adc byte [rax], al ; add byte [rax-0x7D], cl ; retn 0x4910 ; (4 found)
0x445b61: adc byte [rax], al ; add byte [rax-0x7D], cl ; retn 0xE910 ; (2 found)
0x425669: adc byte [rax], al ; add byte [rax], al ; ret ; (2 found)
0x4a1a44: adc byte [rax], al ; add byte [rax], al ; syscall ; (1 found)
0x462a86: adc byte [rax], al ; add byte [rcx], dh ; jmp qword [rax+rcx*2-0x75] ; (1 found)
0x40d23c: adc byte [rbp+0x29], cl ; ret ; (1 found)
0x4b3236: adc byte [rbp+0x59840FC0], al ; add eax, 0x01480000 ; ret ; (1 found)
0x42ca49: adc byte [rbp-0x7CB7FD8E], cl ; retn 0x4802 ; (2 found)
0x41cdf8: adc byte [rbx+0x5D], bl ; pop r12 ; ret ; (6 found)
0x423b0a: adc byte [rbx-0x2FD6EFB9], cl ; ret ; (1 found)
0x464307: adc byte [rbx-0x4D], dh ; xor eax, eax ; ret ; (1 found)
0x45ff9a: adc byte [rbx], al ; add bh, dh ; retn 0x0067 ; (1 found)
0x425e17: adc byte [rcx+0x01], cl ; retn 0x3948 ; (1 found)
0x4aa624: adc byte [rcx+0x03], cl ; add al, 0x24 ; call rax ; (1 found)
0x45988e: adc byte [rcx+0x29], al ; ret ; (1 found)
0x45cec4: adc byte [rcx+0x29], bl ; retn 0x8949 ; (1 found)
0x40ba7e: adc byte [rcx+0x39], cl ; retn 0xEC75 ; (1 found)
0x418945: adc byte [rcx-0x75], cl ; adc al, 0xD3 ; jmp rdx ; (3 found)
0x460620: adc byte [rcx-0x77], al ; ror byte [rbx+0x3108247C], 0xC0 ; syscall ; (1 found)
0x4b8fc1: adc byte [rcx-0x77], cl ; ret ; (1 found)
0x4257ce: adc byte [rcx-0x7D], al ; ret ; (2 found)
0x499d67: adc byte [rcx-0x7D], cl ; retn 0x0F10 ; (15 found)
0x43328d: adc byte [rcx-0x7D], cl ; retn 0x7F10 ; (60 found)
0x49455e: adc byte [rcx], cl ; retn 0x3949 ; (1 found)
0x41cfcf: adc byte [rcx], dh ; ror byte [rcx+rcx*4-0x01], cl ; call qword [r14+0x00000080] ; (1 found)
0x4bc09f: adc byte [rdi+0x00000001], bh ; jmp rax ; (1 found)
0x404b62: adc byte [rdi+rsi-0x09], dh ; retn 0x0000 ; (1 found)
0x433b21: adc byte [rdi], cl ; xchg byte [0x83480000+rax], ch ; retn 0xEB10 ; (1 found)
0x433fc9: adc byte [rdi], cl ; xchg byte [rax+rax-0x7CB80000], al ; retn 0xEB10 ; (1 found)
0x4332b1: adc byte [rdi], cl ; xchg byte [rbp+rcx-0x7CB80000], bl ; retn 0xEB10 ; (1 found)
0x433491: adc byte [rdi], cl ; xchg byte [rbx+rcx-0x7CB80000], bh ; retn 0xEB10 ; (1 found)
0x4333a1: adc byte [rdi], cl ; xchg byte [rsp+rcx-0x7CB80000], ch ; retn 0xEB10 ; (1 found)
0x43608a: adc byte [rdx+0x09], dh ; movaps  [rdi], xmm4 ; jmp r9 ; (30 found)
0x4b4ae0: adc ch, dh ; jmp qword [rsi+0x2E] ; (1 found)
0x4b2923: adc cl, byte [rax+0x01] ; retn 0x8D49 ; (1 found)
0x449d35: adc cl, byte [rax-0x01] ; retn 0x2288 ; (2 found)
0x415948: adc cl, byte [rax-0x75] ; adc cl, byte [rbx+rcx*4+0x74] ; retn 0x4C40 ; (2 found)
0x4a913d: adc cl, byte [rax-0x7D] ; ret ; (1 found)
0x484139: adc cl, byte [rax-0x7D] ; retn 0x4810 ; (1 found)
0x41b3fd: adc cl, byte [rax-0x7D] ; retn 0xEB01 ; (1 found)
0x41e4dd: adc cl, byte [rbx+0x42394C42] ; cmovne rax, rcx ; ret ; (1 found)
0x41594b: adc cl, byte [rbx+rcx*4+0x74] ; retn 0x4C40 ; (2 found)
0x451ce7: adc dil, r15L ; ret ; (5 found)
0x457fa4: adc eax,  [rax] ; add bh, dh ; retn 0x0000 ; (1 found)
0x446f7e: adc eax,  [rax] ; add byte [rax-0x7D], cl ; retn 0x4910 ; (3 found)
0x49a549: adc eax,  [rax] ; add byte [rax-0x7D], cl ; retn 0xE910 ; (1 found)
0x457f68: adc eax, 0x00000AA3 ; cmovne rax, rdx ; ret ; (1 found)
0x49dd68: adc eax, 0x00001073 ; cmovne rax, rdx ; ret ; (1 found)
0x42c0e6: adc eax, 0x00002925 ; cmovne rax, rdx ; ret ; (1 found)
0x493f7d: adc eax, 0x0000348E ; cmovne rax, rdx ; ret ; (1 found)
0x42c3da: adc eax, 0x00005541 ; cmovne rax, rdx ; ret ; (1 found)
0x42d18a: adc eax, 0x0000DE31 ; cmovne rax, rdx ; ret ; (1 found)
0x42cfaa: adc eax, 0x0000DFF1 ; cmovne rax, rdx ; ret ; (1 found)
0x42cd9a: adc eax, 0x00010D11 ; cmovne rax, rdx ; ret ; (1 found)
0x42d0fd: adc eax, 0x00015EAE ; cmovne rax, rdx ; ret ; (1 found)
0x42c166: adc eax, 0x0001DCD5 ; cmovne rax, rdx ; ret ; (1 found)
0x42d076: adc eax, 0x0001E575 ; cmovne rax, rdx ; ret ; (1 found)
0x42ccb8: adc eax, 0x00021503 ; cmovne rax, rdx ; ret ; (1 found)
0x42c06a: adc eax, 0x00021E31 ; cmovne rax, rdx ; ret ; (1 found)
0x42ced4: adc eax, 0x00024D87 ; cmove rax, rdx ; ret ; (1 found)
0x4af14f: adc eax, 0x0004A204 ; add word [rdx+rax*2], 0x0001 ; ret ; (1 found)
0x41ab85: adc eax, 0x000A7B76 ; add rax, rdx ; ret ; (1 found)
0x425749: adc eax, 0x000CC17A ; ret ; (1 found)
0x42ccba: adc eax, 0x0F480002 ; retn 0x66C3 ; (1 found)
0x49e89a: adc eax, 0x10EF8348 ; add rax, rdi ; ret ; (1 found)
0x445681: adc eax, 0x83480000 ; retn 0xE910 ; (3 found)
0x45fd16: adc eax, 0x89480000 ; ret ; (1 found)
0x49ed1a: adc eax, 0xE180D188 ; pcmpeqb mm3, qword [rsi] ; ret ; (1 found)
0x4014e3: adc eax, 0xEE830001 ; add cl, byte [rax-0x7D] ; retn 0x4810 ; (1 found)
0x46d00e: adc eax, 0xF7000005 ; retn 0x0000 ; (1 found)
0x49353a: adc eax, 0xFB894853 ; mov rdi, qword [rdi+0x08] ; call qword [rbx] ; (1 found)
0x49de8d: adc eax, 0xFFFB3BEE ; cmove rax, rdx ; ret ; (1 found)
0x47f5ed: adc eax, eax ; ret ; (2 found)
0x4ba1a2: adc ecx,  [rax+0x63] ; retn 0xBC80 ; (1 found)
0x487650: adc ecx,  [rax-0x77] ; retn 0xC148 ; (3 found)
0x40c239: adc ecx,  [rax-0x7D] ; ret ; (2 found)
0x416456: adc ecx,  [rcx+rax-0x1E] ; call qword [r10+rax*8] ; (2 found)
0x435b86: adc edi,  [rsi] ; jmp rdx ; (150 found)
0x4725de: adc edi, edi ; jmp qword [rsi+0x66] ; (2 found)
0x476f2b: adc esp, ebp ; clc ; call qword [rax+0x56415741] ; (1 found)
0x49c172: adc qword [r8], rax ; add byte [rax-0x7D], cl ; retn 0xE910 ; (1 found)
0x440a33: adc qword [rcx+0x06], rsi ; vmovups  [r9+0x01C0], zmm15 ; ret ; (1 found)
0x440a3a: adc qword [rcx+0x07], rdi ; ret ; (1 found)
0x4406d5: adc qword [rcx-0x01], rbx ; ret ; (1 found)
0x440699: adc qword [rcx-0x01], rdi ; ret ; (2 found)
0x4406ce: adc qword [rcx-0x02], rdx ; vmovups  [r9-0x40], zmm3 ; ret ; (1 found)
0x4408cc: adc qword [rcx-0x02], rsi ; vmovups  [r9-0x40], zmm15 ; ret ; (1 found)
0x440692: adc qword [rcx-0x02], rsi ; vmovups  [r9-0x40], zmm7 ; ret ; (1 found)
0x440b95: adc qword [rdi-0x07], rsi ; vmovups  [rdi-0x0200], zmm15 ; ret ; (1 found)
0x440b9c: adc qword [rdi-0x08], rdi ; ret ; (1 found)
0x45006f: adc qword [rdi], rdx ; vmovups  [rsi-0x40], zmm2 ; ret ; (1 found)
0x45019b: adc qword [rsi+0x02], rdx ; vmovups  [rsi+0x00C0], zmm2 ; ret ; (1 found)
0x4501a2: adc qword [rsi+0x03], rdx ; ret ; (1 found)
0x450238: adc qword [rsi+0x06], rdx ; vmovups  [rsi+0x01C0], zmm2 ; ret ; (1 found)
0x45023f: adc qword [rsi+0x07], rdx ; ret ; (1 found)
0x450041: adc qword [rsi-0x01], rdx ; ret ; (4 found)
0x45003a: adc qword [rsi-0x02], rdx ; vmovups  [rsi-0x40], zmm2 ; ret ; (3 found)
0x49a6b0: adc r8L, byte [r8] ; add byte [rax-0x7D], cl ; retn 0x4910 ; (1 found)
0x423e9f: add  [0x00000000004F4394], 0x01 ; pop rbx ; ret ; (1 found)
0x46f69a: add  [0x0000000064E5DEA4], 0x8941FFF9 ; ret ; (1 found)
0x46f613: add  [0x00000000656CDE1D], 0x894DFFF9 ; ret ; (1 found)
0x40dc10: add  [r14+0x0F], r12d ; insb ; ret ; (1 found)
0x484198: add  [r8-0x73], ecx ; add cl, byte [rcx+0x39] ; ret ; (1 found)
0x40b532: add  [r8-0x7D], ecx ; ret ; (3 found)
0x4a1d09: add  [rax+0x01], ecx ; ret ; (1 found)
0x4add17: add  [rax+0x01], ecx ; ror byte [rax-0x77], 1 ; retn 0xC148 ; (3 found)
0x40b5ff: add  [rax+0x01], ecx ; ror byte [rax-0x77], 1 ; retn 0xE281 ; (1 found)
0x44cc91: add  [rax+0x028D4802], ecx ; ret ; (1 found)
0x42b5c8: add  [rax+0x0F], ecx ; retn 0x66C3 ; (1 found)
0x40d11e: add  [rax+0x0F], ecx ; retn 0x8948 ; (1 found)
0x42283b: add  [rax+0x39], ecx ; ret ; (11 found)
0x470d3f: add  [rax+0x39], ecx ; retn 0x2476 ; (1 found)
0x46ca1f: add  [rax+0x39], ecx ; retn 0x4076 ; (1 found)
0x46d8cb: add  [rax+0x39], ecx ; retn 0x4276 ; (3 found)
0x422bd4: add  [rax+0x39], ecx ; retn 0xEE75 ; (2 found)
0x41e132: add  [rax+0x39], ecx ; retn 0xF075 ; (1 found)
0x4bfef3: add  [rax+0x39], ecx ; sal  [rcx+rcx*4+0x48], 0xFFFFFF89 ; retn 0xC148 ; (1 found)
0x4bfa9b: add  [rax+0x39], ecx ; sal  [rdi+rax*4+0x48], 0xFFFFFF89 ; retn 0xC148 ; (1 found)
0x4bfbf3: add  [rax+0x39], ecx ; sal  [rdx+rcx*4+0x48], 0xFFFFFF89 ; retn 0xC148 ; (1 found)
0x404018: add  [rax+0x3D094400], eax ; retn 0x0F4D ; (1 found)
0x4b98a1: add  [rax+0x63], ecx ; ret ; (1 found)
0x48b366: add  [rax-0x0008E343], eax ; jmp qword [rax] ; (1 found)
0x44b4e1: add  [rax-0x0776B7FE], ecx ; ret ; (1 found)
0x484195: add  [rax-0x72B7FEBF], ecx ; add cl, byte [rcx+0x39] ; ret ; (2 found)
0x484189: add  [rax-0x73], ecx ; add  [rcx+0x39], ecx ; ret ; (1 found)
0x484199: add  [rax-0x73], ecx ; add cl, byte [rcx+0x39] ; ret ; (1 found)
0x429640: add  [rax-0x73], ecx ; push rsp ; retn 0xE8F0 ; (2 found)
0x425746: add  [rax-0x77], ecx ; adc eax, 0x000CC17A ; ret ; (1 found)
0x46477e: add  [rax-0x77], ecx ; push rax ; ret ; (2 found)
0x4774eb: add  [rax-0x77], ecx ; ret ; (4 found)
0x468e07: add  [rax-0x77], ecx ; retn 0x2B48 ; (1 found)
0x4a20d3: add  [rax-0x77], ecx ; retn 0x8948 ; (1 found)
0x40c0c8: add  [rax-0x77], ecx ; retn 0x8949 ; (1 found)
0x4a7a29: add  [rax-0x77], ecx ; retn 0x8B49 ; (2 found)
0x4af427: add  [rax-0x77], ecx ; retn 0xC148 ; (2 found)
0x4a3983: add  [rax-0x77], ecx ; xor cl, byte [rax-0x7D] ; retn 0x4838 ; (1 found)
0x409507: add  [rax-0x7CB700B2], ecx ; retn 0x4901 ; (1 found)
0x40b533: add  [rax-0x7D], ecx ; ret ; (16 found)
0x476472: add  [rax-0x7D], ecx ; retn 0x4001 ; (3 found)
0x4696cb: add  [rax-0x7D], ecx ; retn 0x4101 ; (5 found)
0x45f527: add  [rax-0x7D], ecx ; retn 0x4908 ; (1 found)
0x45c383: add  [rax-0x7D], ecx ; retn 0x4C08 ; (1 found)
0x408a42: add  [rax-0x7D], ecx ; retn 0x8401 ; (10 found)
0x4894f3: add  [rax-0x7D], ecx ; retn 0x8404 ; (1 found)
0x4581b9: add  [rax-0x7D], ecx ; retn 0x8801 ; (1 found)
0x41a40e: add  [rax-0x7D], ecx ; retn 0x8901 ; (2 found)
0x4096ba: add  [rax-0x7D], ecx ; retn 0xA801 ; (2 found)
0x449666: add  [rax], 0xC8010000 ; vzeroupper ; ret ; (1 found)
0x4187f9: add  [rax], eax ; add al, ch ; call rdi ; (1 found)
0x46f50d: add  [rax], eax ; add byte [rax+0x39], cl ; retn 0x3676 ; (1 found)
0x415cb2: add  [rax], eax ; add byte [rax+0x63], cl ; ret ; (2 found)
0x45c924: add  [rax], eax ; add byte [rax+0x63], cl ; retn 0x8941 ; (2 found)
0x45c897: add  [rax], eax ; add byte [rax+0x63], cl ; retn 0xD789 ; (1 found)
0x4ba351: add  [rax], eax ; add byte [rax-0x0080], al ; call qword [rcx] ; (1 found)
0x4bce25: add  [rax], eax ; add byte [rax-0x39], cl ; retn 0xFFFF ; (1 found)
0x41afba: add  [rax], eax ; add byte [rax-0x73], cl ; jmp qword [r14+0x48] ; (1 found)
0x4a55f2: add  [rax], eax ; add byte [rax-0x77], cl ; ret ; (2 found)
0x4b7ebf: add  [rax], eax ; add byte [rax-0x77], cl ; retn 0xC148 ; (3 found)
0x42add0: add  [rax], eax ; add byte [rax-0x7B], cl ; retn 0x840F ; (1 found)
0x4a1e3f: add  [rax], eax ; add byte [rax-0x7D], cl ; ret ; (1 found)
0x433eb7: add  [rax], eax ; add byte [rax-0x7D], cl ; retn 0x4910 ; (4 found)
0x48f814: add  [rax], eax ; add byte [rax-0x7D], cl ; retn 0x8908 ; (1 found)
0x4297a4: add  [rax], eax ; add byte [rax-0x7D], cl ; retn 0xB817 ; (1 found)
0x4941b6: add  [rax], eax ; add byte [rax-0x7D], cl ; retn 0xE901 ; (2 found)
0x4480df: add  [rax], eax ; add byte [rax-0x7D], cl ; retn 0xE910 ; (1 found)
0x433ee5: add  [rax], eax ; add byte [rax-0x7D], cl ; retn 0xEB10 ; (1 found)
0x42025b: add  [rax], eax ; add byte [rax], al ; call qword [rax+0x00000080] ; (1 found)
0x4615dd: add  [rax], eax ; add byte [rax], al ; call r12 ; (4 found)
0x4bb336: add  [rax], eax ; add byte [rax], al ; call rax ; (5 found)
0x4bc0a1: add  [rax], eax ; add byte [rax], al ; jmp rax ; (1 found)
0x492d14: add  [rax], eax ; add byte [rax], al ; ret ; (10 found)
0x460691: add  [rax], eax ; add byte [rax], al ; syscall ; (3 found)
0x403f14: add  [rax], eax ; add byte [rbx-0x7CBEFE3A], al ; ret ; (1 found)
0x45c915: add  [rax], eax ; add byte [rcx+0x29], al ; retn 0x8944 ; (1 found)
0x4914ab: add  [rax], eax ; add byte [rcx+rcx*4-0x11], cl ; call qword [r14+0x20] ; (1 found)
0x46a761: add  [rax], eax ; add byte [rcx-0x0A], al ; retn 0x0F04 ; (1 found)
0x40c16e: add  [rax], eax ; add byte [rcx-0x1076B312], cl ; call r15 ; (1 found)
0x4210d8: add  [rax], eax ; add byte [rdi+rcx-0x42], cl ; retn 0x4A8D ; (1 found)
0x4286e1: add  [rax], eax ; add dh, dh ; retn 0x0F0F ; (1 found)
0x44df75: add  [rax], eax ; add dh, dh ; retn 0x7501 ; (1 found)
0x44df82: add  [rax], eax ; add dh, dh ; retn 0x7502 ; (1 found)
0x44df8f: add  [rax], eax ; add dh, dh ; retn 0x7504 ; (1 found)
0x44df47: add  [rax], eax ; add dh, dh ; retn 0x7510 ; (1 found)
0x44df54: add  [rax], eax ; add dh, dh ; retn 0x7520 ; (1 found)
0x44df61: add  [rax], eax ; add dh, dh ; retn 0x7540 ; (1 found)
0x493484: add  [rax], eax ; call rbx ; (1 found)
0x42c2e2: add  [rax], eax ; cmove rax, rdx ; ret ; (4 found)
0x42c169: add  [rax], eax ; cmovne rax, rdx ; ret ; (4 found)
0x4b9242: add  [rax], eax ; divss xmm0,  [0x00000000004DDEC0] ; ret ; (1 found)
0x457aec: add  [rbp+rcx*4+0x4C], ecx ; and al, 0x20 ; call rbx ; (1 found)
0x49e018: add  [rbp+rcx*4+0x4C], ecx ; and al, 0x38 ; call rbx ; (1 found)
0x401b40: add  [rbp-0x3D], ebx ; nop  [rax+rax+0x00] ; ret ; (1 found)
0x45ab53: add  [rbp-0x73], eax ; add eax,  [r13+0x0F] ; ret ; (1 found)
0x40354e: add  [rbp-0x77], ecx ; ret ; (2 found)
0x43d8d2: add  [rbx+0x0157890E], ecx ; mov  [rdi], ecx ; ret ; (2 found)
0x427aba: add  [rbx+0x0C9DE305], ecx ; add byte [rcx], bh ; retn 0x0A7E ; (1 found)
0x414c4b: add  [rbx-0x0006477B], ecx ; dec  [rax-0x7D] ; ret ; (1 found)
0x403a80: add  [rbx-0x50F0FE40], eax ; retn 0x518D ; (1 found)
0x402fa6: add  [rbx-0x50F0FE40], eax ; retn 0x538D ; (1 found)
0x42963d: add  [rbx-0x72B7FE20], eax ; push rsp ; retn 0xE8F0 ; (2 found)
0x4814ea: add  [rbx], eax ; clc ; jmp qword [rsi-0x70] ; (1 found)
0x47e080: add  [rcx+0x0F], eax ; mov esi, 0x89412404 ; ret ; (1 found)
0x402f04: add  [rcx+0x0F], eax ; xchg eax, esp ; ret ; (1 found)
0x48418c: add  [rcx+0x39], ecx ; ret ; (2 found)
0x42814c: add  [rcx+0x39], ecx ; retn 0x870F ; (1 found)
0x4226dd: add  [rcx+rcx*4-0x19], ecx ; call qword [rbx+0x18] ; (1 found)
0x44b511: add  [rcx-0x0776B7FE], ecx ; ret ; (1 found)
0x4803d8: add  [rcx-0x77], ecx ; push rsp ; ret ; (2 found)
0x403f19: add  [rcx-0x7D], eax ; ret ; (1 found)
0x40d0eb: add  [rcx-0x7D], ecx ; retn 0x8401 ; (1 found)
0x403f1d: add  [rcx-0x7D], ecx ; rol  [rcx+rcx*2], 0xFFFFFF83 ; retn 0x4104 ; (1 found)
0x4603d5: add  [rcx], eax ; add byte [rax], al ; syscall ; (6 found)
0x423ee8: add  [rdi+0x05], edi ; ret ; (1 found)
0x4898c2: add  [rdi+0x0B], edi ; ret ; (1 found)
0x45f95a: add  [rdi+0x13], edi ; pop rbx ; ret ; (1 found)
0x4bec6e: add  [rdi+0x1F], edi ; pop rbx ; ret ; (1 found)
0x45ad9d: add  [rdi+0x20], edi ; add rsp, 0x08 ; ret ; (1 found)
0x4aee23: add  [rdi+0x32], edi ; pop rbp ; ret ; (1 found)
0x421a60: add  [rdi+0x3D], edi ; add rsp, 0x08 ; ret ; (1 found)
0x419139: add  [rdi+rcx+0x45], eax ; retn 0x448B ; (1 found)
0x403a83: add  [rdi], ecx ; scasd ; retn 0x518D ; (1 found)
0x402fa9: add  [rdi], ecx ; scasd ; retn 0x538D ; (1 found)
0x403a89: add  [rdi], ecx ; scasd ; retn 0xDA89 ; (1 found)
0x403a97: add  [rdi], ecx ; scasd ; retn 0xEBE9 ; (1 found)
0x40c660: add  [rdi], ecx ; test byte [rcx-0x7CFFFFFF], cl ; jmp qword [rdi+rcx] ; (1 found)
0x4785d9: add  [rdi], ecx ; xchg eax, ebp ; retn 0xC220 ; (4 found)
0x47fa97: add  [rdi], ecx ; xchg eax, edx ; retn 0x8948 ; (1 found)
0x478d3e: add  [rdi], ecx ; xchg eax, esp ; retn 0x2040 ; (4 found)
0x4a0d5f: add  [rdi], ecx ; xchg eax, esp ; retn 0xB60F ; (1 found)
0x4b3a4f: add  [rdi], ecx ; xchg eax, esp ; retn 0xF883 ; (1 found)
0x4500c0: add  [rdx+0x02], esi ; mov byte [rdi], cl ; ret ; (1 found)
0x4651ba: add  [rdx+0x07], esi ; add byte [rax-0x77], cl ; retn 0xFF85 ; (1 found)
0x45778f: add  [rdx+0x2B], 0xE2748104 ; ret ; (1 found)
0x4af155: add  [rdx+rax*2], 0x01 ; ret ; (1 found)
0x425ae3: add  [rdx+rcx+0x48], esi ; add esp, 0x08 ; ret ; (1 found)
0x4ad001: add  [rdx+rdx*8-0x41F0318B], eax ; sal edi, 0xFFFFFFD8 ; ret ; (1 found)
0x4b7fae: add  [rdx], 0x00000000 ; add byte [rax-0x77], cl ; retn 0xC148 ; (1 found)
0x40dc11: add  [rsi+0x0F], esp ; insb ; ret ; (1 found)
0x41cd5f: add  [rsi+rbp-0x77], esi ; retn 0xC085 ; (1 found)
0x4b58b1: add  [rsi+rcx-0x77], esi ; retn 0xC083 ; (1 found)
0x4224f9: add  [rsp-0x77], esi ; retn 0xC883 ; (1 found)
0x46d003: add al, 0x00 ; add bh, dh ; retn 0x0000 ; (1 found)
0x464093: add al, 0x00 ; add byte [rax+0x39], cl ; ret ; (1 found)
0x4a3962: add al, 0x00 ; add byte [rax+0x39], cl ; retn 0xBF77 ; (1 found)
0x460aba: add al, 0x00 ; add byte [rax-0x39], cl ; ret ; (1 found)
0x4b82ff: add al, 0x00 ; add byte [rax-0x77], cl ; retn 0xC148 ; (1 found)
0x433be7: add al, 0x00 ; add byte [rax-0x7D], cl ; retn 0x4910 ; (6 found)
0x447e3f: add al, 0x00 ; add byte [rax-0x7D], cl ; retn 0xE910 ; (2 found)
0x433c15: add al, 0x00 ; add byte [rax-0x7D], cl ; retn 0xEB10 ; (1 found)
0x49eda3: add al, 0x00 ; add byte [rax], al ; ret ; (1 found)
0x42571a: add al, 0x00 ; add byte [rsi+0x01], dh ; ret ; (1 found)
0x4abe07: add al, 0x00 ; add cl, ch ; retn 0xFFEF ; (1 found)
0x485a3f: add al, 0x00 ; add dh, dh ; retn 0x0F50 ; (1 found)
0x4b2c07: add al, 0x00 ; add rsp, 0x18 ; ret ; (1 found)
0x4af152: add al, 0x00 ; add word [rdx+rax*2], 0x0001 ; ret ; (1 found)
0x4654a7: add al, 0x00 ; nop word [rax+rax+0x00] ; ret ; (2 found)
0x4af338: add al, 0x00 ; ret ; (1 found)
0x402dfe: add al, 0x06 ; add byte [rcx+0x17E8E845], cl ; ret ; (1 found)
0x49d62a: add al, 0x07 ; cmovle rax, rcx ; ret ; (2 found)
0x48ac88: add al, 0x07 ; jmp qword [rsi+rax*8] ; (1 found)
0x416afe: add al, 0x07 ; lea rdi, qword [0x00000000004ED7C0] ; jmp qword [rdi+rax*8] ; (1 found)
0x44859c: add al, 0x07 ; ret ; (4 found)
0x435251: add al, 0x07 ; sub eax, ecx ; ret ; (2 found)
0x423ee3: add al, 0x0D ; add byte [rbx+0x057F01F8], al ; ret ; (1 found)
0x4634da: add al, 0x11 ; ret ; (1 found)
0x455b9e: add al, 0x17 ; ret ; (4 found)
0x42e73a: add al, 0x17 ; sub eax, ecx ; ret ; (5 found)
0x44de2e: add al, 0x17 ; vzeroupper ; ret ; (4 found)
0x4b8e47: add al, 0x24 ; add rsp, 0x38 ; ret ; (1 found)
0x40b88d: add al, 0x24 ; call rax ; (2 found)
0x4bc235: add al, 0x24 ; mov  [rsp+0x08], ecx ; call rax ; (1 found)
0x448dee: add al, 0x31 ; ret ; (1 found)
0x448cea: add al, 0x37 ; ret ; (1 found)
0x42666d: add al, 0x39 ; ret ; (1 found)
0x459c22: add al, 0x39 ; ror byte [rdi], 1 ; retn 0xB70F ; (1 found)
0x42323f: add al, 0x3A ; ret ; (2 found)
0x44d7eb: add al, 0x48 ; lea eax,  [rdi+0x05] ; ret ; (1 found)
0x44cce8: add al, 0x48 ; lea eax,  [rdx+0x04] ; ret ; (2 found)
0x44ccfa: add al, 0x48 ; lea eax,  [rdx+0x05] ; ret ; (2 found)
0x43d5ca: add al, 0x48 ; mov  [rdi], ecx ; ret ; (2 found)
0x44b528: add al, 0x48 ; mov eax, edi ; ret ; (5 found)
0x449268: add al, 0x48 ; xor eax, eax ; ret ; (2 found)
0x457b67: add al, 0x4C ; lea ecx,  [rsp+0x20] ; call rbx ; (2 found)
0x40a47a: add al, 0x5B ; ret ; (1 found)
0x4b8902: add al, 0x74 ; or ecx,  [rcx-0x7D] ; ret ; (1 found)
0x46c9f9: add al, 0x77 ; retn 0x3948 ; (2 found)
0x403145: add al, 0x81 ; add rax, rcx ; jmp rax ; (16 found)
0x446c43: add al, 0x81 ; sub eax, edx ; ret ; (4 found)
0x420e57: add al, 0x82 ; add rax, r10 ; jmp rax ; (6 found)
0x40ddf6: add al, 0x82 ; add rax, rdx ; jmp rax ; (10 found)
0x49fb74: add al, 0x82 ; ret ; (1 found)
0x442f67: add al, 0x82 ; sub eax, ecx ; ret ; (16 found)
0x4664da: add al, 0x83 ; add rax, rbx ; jmp rax ; (1 found)
0x49e09a: add al, 0x85 ; sal byte [rbp-0x0F], cl ; ret ; (1 found)
0x4ba04f: add al, 0x86 ; add rax, r14 ; jmp rax ; (1 found)
0x48f23a: add al, 0x86 ; add rax, rsi ; jmp rax ; (1 found)
0x49fd6a: add al, 0x87 ; cmovle rax, rcx ; ret ; (2 found)
0x49fb1b: add al, 0x87 ; ret ; (5 found)
0x49ff46: add al, 0x87 ; vzeroupper ; ret ; (1 found)
0x489bb5: add al, 0x89 ; adc  [rax+0x39], ecx ; ret ; (2 found)
0x4165a0: add al, 0x89 ; retn 0x9D89 ; (1 found)
0x4b98cd: add al, 0x8E ; add rax, r14 ; jmp rax ; (1 found)
0x405c65: add al, 0x91 ; add rax, rcx ; jmp rax ; (1 found)
0x403114: add al, 0x96 ; add rax, rsi ; jmp rax ; (1 found)
0x40df79: add al, 0x9A ; add rax, rdx ; jmp rax ; (2 found)
0x4224f7: add al, 0xA8 ; add  [rsp-0x77], esi ; retn 0xC883 ; (1 found)
0x4aab32: add al, 0xA9 ; add rax, rcx ; jmp rax ; (1 found)
0x45fd9d: add al, 0xAA ; add rax, rdx ; jmp rax ; (3 found)
0x4ab370: add al, 0xAE ; add rax, rsi ; jmp rax ; (1 found)
0x4030a6: add al, 0xB7 ; add rax, rdi ; jmp rax ; (1 found)
0x49dbfc: add al, 0xBA ; add rax, rdx ; jmp rax ; (1 found)
0x45ea91: add al, 0xD0 ; ret ; (1 found)
0x43d932: add al, 0xF3 ; movq qword [rdi], mm1 ; ret ; (4 found)
0x41ab5a: add al, 0xF8 ; ret ; (1 found)
0x48e814: add al, 0xF9 ; jmp qword [rsi+0x0F] ; (1 found)
0x49d072: add al, byte [r8] ; add byte [rax-0x7D], cl ; retn 0xE910 ; (1 found)
0x42cdc6: add al, byte [r8] ; cmove rax, rdx ; ret ; (1 found)
0x449d31: add al, byte [rax+rax*8-0x00B7ED8C] ; retn 0x2288 ; (2 found)
0x46cff7: add al, byte [rax] ; add bh, dh ; retn 0xF800 ; (1 found)
0x45f62d: add al, byte [rax] ; add byte [rax+0x00000038], bh ; syscall ; (1 found)
0x4645d4: add al, byte [rax] ; add byte [rax+0x000000DA], bh ; syscall ; (1 found)
0x45f668: add al, byte [rax] ; add byte [rax+0x00000111], bh ; syscall ; (1 found)
0x49de08: add al, byte [rax] ; add byte [rax+0x0F], cl ; retn 0x81C3 ; (1 found)
0x4a37fd: add al, byte [rax] ; add byte [rax+0x29], cl ; ret ; (1 found)
0x475426: add al, byte [rax] ; add byte [rax-0x007F], cl ; retn 0x0200 ; (1 found)
0x488fb8: add al, byte [rax] ; add byte [rax-0x39], cl ; retn 0xFFE0 ; (1 found)
0x428892: add al, byte [rax] ; add byte [rax-0x77], cl ; retn 0x8D4C ; (1 found)
0x4b7faf: add al, byte [rax] ; add byte [rax-0x77], cl ; retn 0xC148 ; (1 found)
0x433dc7: add al, byte [rax] ; add byte [rax-0x7D], cl ; retn 0x4910 ; (4 found)
0x446a01: add al, byte [rax] ; add byte [rax-0x7D], cl ; retn 0xE910 ; (3 found)
0x433df5: add al, byte [rax] ; add byte [rax-0x7D], cl ; retn 0xEB10 ; (1 found)
0x49ed83: add al, byte [rax] ; add byte [rax], al ; ret ; (5 found)
0x40c70b: add al, byte [rax] ; add byte [rbx+rcx*4+0x15], cl ; ret ; (1 found)
0x44f544: add al, byte [rax] ; add byte [rbx-0x7BF0ED07], al ; retn 0x0002 ; (1 found)
0x40a084: add al, byte [rax] ; add byte [rbx-0x7BF0FE08], al ; retn 0x0002 ; (1 found)
0x4b241f: add al, byte [rax] ; add byte [rcx+0x248B4CE8], cl ; retn 0x0F41 ; (1 found)
0x425308: add al, byte [rax] ; add byte [rcx], bh ; retn 0x6974 ; (1 found)
0x424f44: add al, byte [rax] ; add byte [rcx], bh ; retn 0x840F ; (2 found)
0x492f6f: add al, byte [rax] ; add byte [rcx], bh ; retn 0x850F ; (1 found)
0x42ce58: add al, byte [rax] ; add dh, dh ; retn 0x7420 ; (1 found)
0x41b016: add al, byte [rax] ; add dh, dh ; retn 0x7504 ; (1 found)
0x42cc77: add al, byte [rax] ; cmove rax, rdx ; ret ; (22 found)
0x42c06d: add al, byte [rax] ; cmovne rax, rdx ; ret ; (5 found)
0x455b78: add al, byte [rax] ; lea rax, qword [rdi+0x02] ; ret ; (1 found)
0x456948: add al, byte [rax] ; ret ; (2 found)
0x449bd8: add al, byte [rax] ; vzeroupper ; ret ; (1 found)
0x49e5f2: add al, byte [rbp-0x7C968A40] ; retn 0x0F40 ; (2 found)
0x4b3a46: add al, byte [rbx-0x1F7CFC1A] ; add eax,  [rbx-0x6BF0FE02] ; retn 0xF883 ; (1 found)
0x47f66a: add al, byte [rbx-0x6F3CFE18] ; xor eax, eax ; ret ; (1 found)
0x45ab6c: add al, byte [rcx+0x01] ; fadd  [rbp+0x01] ; retn 0x2945 ; (1 found)
0x45f691: add al, byte [rcx+rcx*4-0x40] ; ret ; (1 found)
0x4090a3: add al, byte [rcx-0x000CCC1E] ; inc  [rcx] ; retn 0xD089 ; (1 found)
0x41b3f2: add al, byte [rcx-0x77] ; retn 0xE883 ; (1 found)
0x4ae663: add al, byte [rdx] ; sar bh, 0xFF ; ret ; (1 found)
0x4a8a5b: add al, ch ; call qword [rax] ; (1 found)
0x4187fb: add al, ch ; call rdi ; (1 found)
0x42840b: add al, ch ; call rsp ; (1 found)
0x4b195c: add al, ch ; fiadd word [rcx-0x0B] ; jmp qword [rsi+0x66] ; (1 found)
0x48115c: add al, ch ; fimul word [rcx-0x08] ; jmp qword [rsi+0x66] ; (1 found)
0x4293db: add al, ch ; lahf ; ret ; (1 found)
0x42a1dc: add al, ch ; mov bh, 0xFF ; jmp qword [rsi+0x66] ; (1 found)
0x4b01ac: add al, ch ; mov ds, word [rcx-0x0B] ; jmp qword [rsi+0x0F] ; (1 found)
0x40c3d7: add al, ch ; movsxd edx,  [rdi-0x3FCE0001] ; ret ; (1 found)
0x47984c: add al, ch ; out dx, al ; retn 0xFFF8 ; (1 found)
0x420897: add al, ch ; ret ; (8 found)
0x419018: add al, ch ; retn 0x06AF ; (1 found)
0x468778: add al, ch ; retn 0xF9D3 ; (1 found)
0x428488: add al, ch ; sar bh, cl ; jmp qword [rsi-0x70] ; (1 found)
0x4b3ef0: add al, ch ; sbb al, 0xF5 ; jmp qword [rsi+0x2E] ; (1 found)
0x48e811: add al, ch ; sub  [rcx+rdi*8], eax ; jmp qword [rsi+0x0F] ; (1 found)
0x4ac2f8: add al, ch ; sub edi, esi ; jmp qword [rsi-0x70] ; (1 found)
0x4b1609: add al, ch ; xor  [rbp-0x0B], eax ; call qword [rax-0x05E1F00D] ; (1 found)
0x4b2af9: add al, ch ; xor r13L, sil ; call qword [rax-0x76B6AABF] ; (1 found)
0x40c237: add bh, bh ; adc ecx,  [rax-0x7D] ; ret ; (1 found)
0x404854: add bh, bh ; idiv esi ; jmp qword [rsi+0x0F] ; (1 found)
0x4bf49b: add bh, bh ; ror byte [rax-0x7D], 1 ; ret ; (1 found)
0x4ae648: add bh, byte [rax+0x00000001] ; ret ; (1 found)
0x40b669: add bh, byte [rax-0x00000001] ; pop rbp ; ret ; (1 found)
0x45e703: add bh, byte [rax-0x00000001] ; ret ; (8 found)
0x4bb334: add bh, byte [rdi+0x00000001] ; call rax ; (1 found)
0x4576af: add bh, ch ; jmp qword [rsi+0x66] ; (1 found)
0x4a5e71: add bh, dh ; ret ; (1 found)
0x404b5c: add bh, dh ; retn 0x0000 ; (18 found)
0x45ff9c: add bh, dh ; retn 0x0067 ; (1 found)
0x46cff9: add bh, dh ; retn 0xF800 ; (1 found)
0x49dc0e: add bl, al ; mov rax, qword [0x00000000004F8E80] ; ret ; (1 found)
0x45ba11: add bl, ch ; or  [rax-0x7D], ecx ; ret ; (2 found)
0x41e3c4: add bl, ch ; retn 0x44E8 ; (1 found)
0x40be9d: add bl, ch ; retn 0x55BF ; (1 found)
0x46274d: add bl, ch ; sub  [rax-0x77], ecx ; retn 0x0ABE ; (1 found)
0x4b9243: add bl, dh ; divps xmm0,  [0x00000000004DDEC0] ; ret ; (1 found)
0x401a8f: add bl, dh ; hint_nop edx ; ret ; (5 found)
0x46645e: add bl, sil ; hint_nop edx ; ret ; (2 found)
0x488957: add byte [0x0000000000419846], ch ; jmp qword [rsi-0x70] ; (1 found)
0x483e81: add byte [0x1CB6E800+rax], ch ; clc ; jmp qword [rsi+0x0F] ; (1 found)
0x4a3aca: add byte [0xF641E589+rcx*2], al ; ret ; (1 found)
0x492da7: add byte [0xFFFFFFFFA35875AD], cl ; retn 0x820F ; (1 found)
0x4aeec5: add byte [eax], al ; add byte [rax+0x0F], cl ; retn 0x66C3 ; (1 found)
0x462d5b: add byte [fs:rax], al ; add byte [rbp-0x3DBBF040], al ; ret ; (1 found)
0x4926d6: add byte [r14+rdi-0x77], r14L ; retn 0x48E9 ; (1 found)
0x41f22c: add byte [r8+0x39], r9L ; ret ; (5 found)
0x41cecc: add byte [r8-0x39], r9L ; ret ; (6 found)
0x4161f7: add byte [r8-0x77], r9L ; retn 0x2949 ; (2 found)
0x41f47d: add byte [r8-0x77], r9L ; retn 0x294C ; (1 found)
0x4a6cbf: add byte [r8-0x77], r9L ; retn 0x314C ; (1 found)
0x4161f0: add byte [r9-0x39], r9L ; ror byte [rax+0x48004F34], 0x89 ; retn 0x2949 ; (2 found)
0x4ae65c: add byte [rax+0x00000001], bh ; mov  [rdx], 0xFFFFC002 ; ret ; (1 found)
0x492d12: add byte [rax+0x00000001], bh ; ret ; (3 found)
0x4ae6d2: add byte [rax+0x00000002], bh ; ret ; (1 found)
0x4757ab: add byte [rax+0x0000000D], bh ; syscall ; (1 found)
0x424c6f: add byte [rax+0x0000000E], bh ; syscall ; (3 found)
0x464fdd: add byte [rax+0x00000015], bh ; syscall ; (1 found)
0x49207f: add byte [rax+0x00000016], bh ; ret ; (2 found)
0x45f62f: add byte [rax+0x00000038], bh ; syscall ; (1 found)
0x461131: add byte [rax+0x00000048], bh ; syscall ; (2 found)
0x4046f8: add byte [rax+0x0000009E], bh ; syscall ; (3 found)
0x424d1f: add byte [rax+0x000000BA], bh ; syscall ; (2 found)
0x424aa0: add byte [rax+0x000000CA], bh ; syscall ; ret ; (2 found)
0x4249e3: add byte [rax+0x000000CA], bh ; syscall ; (5 found)
0x424a44: add byte [rax+0x000000CA], bh ; xor sil, 0x80 ; syscall ; (1 found)
0x4645d6: add byte [rax+0x000000DA], bh ; syscall ; (1 found)
0x45e6e7: add byte [rax+0x000000E4], bh ; syscall ; (1 found)
0x4a1227: add byte [rax+0x000000E6], bh ; syscall ; (2 found)
0x45f66a: add byte [rax+0x00000111], bh ; syscall ; (1 found)
0x4671f1: add byte [rax+0x00], al ; add byte [rax+0x39], cl ; retn 0x0F48 ; (1 found)
0x44e0ee: add byte [rax+0x01478D48], dl ; ret ; (1 found)
0x427ada: add byte [rax+0x01], cl ; ret ; (3 found)
0x4a443d: add byte [rax+0x01], cl ; retn 0xBA41 ; (1 found)
0x4afc7a: add byte [rax+0x01], cl ; ror byte [rbp-0x73], 1 ; retn 0xEB08 ; (1 found)
0x44d78f: add byte [rax+0x078D4837], cl ; ret ; (1 found)
0x4295c0: add byte [rax+0x09], cl ; ret ; (1 found)
0x40c7e3: add byte [rax+0x0F48C985], al ; retn 0x13EB ; (1 found)
0x448c49: add byte [rax+0x0F], cl ; mov ebp, 0xF80148C0 ; ret ; (1 found)
0x4696c6: add byte [rax+0x0F], cl ; mov esi, 0x83480142 ; retn 0x4101 ; (2 found)
0x40c68f: add byte [rax+0x0F], cl ; mov esi, 0x83480143 ; ret ; (2 found)
0x42c06e: add byte [rax+0x0F], cl ; retn 0x0FC3 ; (18 found)
0x4a491b: add byte [rax+0x0F], cl ; retn 0x3145 ; (1 found)
0x42c1c8: add byte [rax+0x0F], cl ; retn 0x66C3 ; (23 found)
0x42d27a: add byte [rax+0x0F], cl ; retn 0x81C3 ; (3 found)
0x42c0ea: add byte [rax+0x0F], cl ; retn 0x85C3 ; (3 found)
0x425901: add byte [rax+0x0F], cl ; retn 0x8948 ; (5 found)
0x4ae094: add byte [rax+0x0F], cl ; retn 0x8D48 ; (1 found)
0x4be3df: add byte [rax+0x107550FA], al ; xor eax, eax ; ret ; (1 found)
0x4b7114: add byte [rax+0x21], cl ; retn 0x8548 ; (1 found)
0x4ae55a: add byte [rax+0x21], cl ; retn 0xC148 ; (1 found)
0x4aa735: add byte [rax+0x29], cl ; enter 0x8D48, 0x04 ; retn 0x3948 ; (2 found)
0x423247: add byte [rax+0x29], cl ; enter 0xE883, 0x01 ; ret ; (1 found)
0x403223: add byte [rax+0x29], cl ; ret ; (5 found)
0x4a0f22: add byte [rax+0x29], cl ; retn 0x0348 ; (2 found)
0x4a39d8: add byte [rax+0x29], cl ; retn 0x8B4C ; (1 found)
0x4a74f7: add byte [rax+0x29], cl ; retn 0x8D48 ; (1 found)
0x4a3839: add byte [rax+0x29], cl ; retn 0xC148 ; (2 found)
0x4a0bc2: add byte [rax+0x29], cl ; ror byte [rax-0x77], 1 ; retn 0xC148 ; (3 found)
0x4a424c: add byte [rax+0x29], cl ; ror byte [rbp+rcx*4+0x34], 1 ; ret ; (1 found)
0x4a135b: add byte [rax+0x39480000], al ; ret ; (4 found)
0x415f3d: add byte [rax+0x39], cl ; ret ; (34 found)
0x4671f4: add byte [rax+0x39], cl ; retn 0x0F48 ; (1 found)
0x45f93c: add byte [rax+0x39], cl ; retn 0x1E74 ; (1 found)
0x46f50f: add byte [rax+0x39], cl ; retn 0x3676 ; (2 found)
0x429b05: add byte [rax+0x39], cl ; retn 0x3D74 ; (1 found)
0x41f4c7: add byte [rax+0x39], cl ; retn 0x850F ; (1 found)
0x4a3964: add byte [rax+0x39], cl ; retn 0xBF77 ; (1 found)
0x42702f: add byte [rax+0x39], cl ; retn 0xEB75 ; (1 found)
0x4243a8: add byte [rax+0x39], cl ; ror byte [rax+0x0F], 1 ; retn 0x8949 ; (1 found)
0x45fdd0: add byte [rax+0x39], cl ; ror byte [rax+0x0F], 1 ; retn 0xC148 ; (1 found)
0x460151: add byte [rax+0x39], cl ; ror byte [rax+0x0F], 1 ; retn 0xCFE9 ; (1 found)
0x415cb4: add byte [rax+0x63], cl ; ret ; (2 found)
0x45c926: add byte [rax+0x63], cl ; retn 0x8941 ; (2 found)
0x473aa8: add byte [rax+0x63], cl ; retn 0x8948 ; (1 found)
0x45c899: add byte [rax+0x63], cl ; retn 0xD789 ; (1 found)
0x449d2f: add byte [rax+0x74C08402], cl ; adc cl, byte [rax-0x01] ; retn 0x2288 ; (2 found)
0x4afb6f: add byte [rax+rcx*4+0x4D], al ; ret ; (1 found)
0x41d6ef: add byte [rax-0x00000001], bh ; pop rbp ; ret ; (1 found)
0x41e4ef: add byte [rax-0x00000001], bh ; ret ; (11 found)
0x4850f3: add byte [rax-0x00013B43], al ; jmp qword [rsi+0x0F] ; (1 found)
0x48bb3f: add byte [rax-0x0008E343], al ; jmp qword [rax] ; (1 found)
0x416541: add byte [rax-0x007F], cl ; ret ; (3 found)
0x42fdc5: add byte [rax-0x007F], cl ; retn 0x0080 ; (76 found)
0x475428: add byte [rax-0x007F], cl ; retn 0x0200 ; (1 found)
0x47cb4f: add byte [rax-0x007F], cl ; sti ; retn 0xFFBF ; (1 found)
0x4ba353: add byte [rax-0x0080], al ; call qword [rcx] ; (1 found)
0x4ac292: add byte [rax-0x03], 0xFF ; dec  [rax+0x39] ; ret ; (2 found)
0x46153e: add byte [rax-0x05E1F00D], dl ; mov eax, 0x0000000A ; syscall ; (1 found)
0x46156e: add byte [rax-0x05E1F00D], dl ; mov eax, 0x0000001C ; syscall ; (1 found)
0x46335e: add byte [rax-0x05E1F00D], dl ; mov eax, 0x00000032 ; syscall ; (1 found)
0x46090e: add byte [rax-0x05E1F00D], dl ; mov eax, 0x00000050 ; syscall ; (1 found)
0x4a174e: add byte [rax-0x05E1F00D], dl ; mov eax, 0x00000066 ; syscall ; (1 found)
0x4a17be: add byte [rax-0x05E1F00D], dl ; mov eax, 0x00000090 ; syscall ; (1 found)
0x4a17ee: add byte [rax-0x05E1F00D], dl ; mov eax, 0x00000091 ; syscall ; (1 found)
0x4a181e: add byte [rax-0x05E1F00D], dl ; mov eax, 0x00000092 ; syscall ; (1 found)
0x4a184e: add byte [rax-0x05E1F00D], dl ; mov eax, 0x00000093 ; syscall ; (1 found)
0x47cfe6: add byte [rax-0x08], cl ; jmp qword [rsi+0x0F] ; (1 found)
0x4161ea: add byte [rax-0x39], cl ; ret ; (21 found)
0x4b3eb5: add byte [rax-0x39], cl ; retn 0x0790 ; (1 found)
0x40b65e: add byte [rax-0x39], cl ; retn 0xFFA0 ; (47 found)
0x488fba: add byte [rax-0x39], cl ; retn 0xFFE0 ; (1 found)
0x41c653: add byte [rax-0x39], cl ; retn 0xFFFF ; (6 found)
0x410113: add byte [rax-0x39], cl ; shl byte [rax+0x48FFFFFF], 0xC7 ; retn 0xFFFE ; (1 found)
0x49471f: add byte [rax-0x3F7CB7F8], cl ; add  [rax-0x7D], ecx ; ret ; (1 found)
0x40c452: add byte [rax-0x3F], cl ; retn 0x0F11 ; (1 found)
0x4722f3: add byte [rax-0x3F], cl ; retn 0x4811 ; (2 found)
0x472ca4: add byte [rax-0x3F], cl ; retn 0x4911 ; (1 found)
0x472c7b: add byte [rax-0x3F], cl ; retn 0x6411 ; (1 found)
0x457f99: add byte [rax-0x468AFB1B], al ; ret ; (2 found)
0x4783ad: add byte [rax-0x48], cl ; retn 0xFFFF ; (1 found)
0x4638c9: add byte [rax-0x73], cl ; add eax, 0x00095317 ; ret ; (1 found)
0x41afbc: add byte [rax-0x73], cl ; jmp qword [r14+0x48] ; (1 found)
0x44e1af: add byte [rax-0x73], cl ; push cs ; ret ; (1 found)
0x46554f: add byte [rax-0x75], cl ; adc byte [rax-0x7D], cl ; retn 0x4810 ; (1 found)
0x4ba19f: add byte [rax-0x75], cl ; adc ecx,  [rax+0x63] ; retn 0xBC80 ; (1 found)
0x41ab57: add byte [rax-0x75], cl ; add al, 0xF8 ; ret ; (1 found)
0x49dcaf: add byte [rax-0x75], cl ; add eax, 0x0005B219 ; ret ; (1 found)
0x49dc9f: add byte [rax-0x75], cl ; add eax, 0x0005B221 ; ret ; (1 found)
0x49dc8f: add byte [rax-0x75], cl ; add eax, 0x0005B229 ; ret ; (1 found)
0x49dc7f: add byte [rax-0x75], cl ; add eax, 0x0005B231 ; ret ; (1 found)
0x49dc6f: add byte [rax-0x75], cl ; add eax, 0x0005B239 ; ret ; (1 found)
0x49dc5f: add byte [rax-0x75], cl ; add eax, 0x0005B241 ; ret ; (1 found)
0x49dc4f: add byte [rax-0x75], cl ; add eax, 0x0005B249 ; ret ; (1 found)
0x49dc3f: add byte [rax-0x75], cl ; add eax, 0x0005B251 ; ret ; (1 found)
0x49dc2f: add byte [rax-0x75], cl ; add eax, 0x0005B259 ; ret ; (1 found)
0x49dc1f: add byte [rax-0x75], cl ; add eax, 0x0005B261 ; ret ; (1 found)
0x49dc06: add byte [rax-0x75], cl ; add eax, 0x0005B2C9 ; ret ; (2 found)
0x4a3502: add byte [rax-0x75], cl ; or byte [r8-0x7D], cl ; ret ; (1 found)
0x465687: add byte [rax-0x75], cl ; or byte [rax-0x7D], cl ; retn 0x4110 ; (4 found)
0x46565f: add byte [rax-0x75], cl ; or byte [rax-0x7D], cl ; retn 0xBD10 ; (1 found)
0x465776: add byte [rax-0x75], cl ; or byte [rax-0x7D], cl ; retn 0xC610 ; (4 found)
0x405c19: add byte [rax-0x75], cl ; pop rsp ; ret ; (1 found)
0x422f3e: add byte [rax-0x75], cl ; push 0x75C08548 ; lock ret ; (1 found)
0x4bda99: add byte [rax-0x75], cl ; ret ; (1 found)
0x414dc4: add byte [rax-0x75], cl ; test  [rax-0x7C000005], edx ; retn 0x4830 ; (1 found)
0x4bf584: add byte [rax-0x75], cl ; xor al, ch ; ret ; (1 found)
0x40693d: add byte [rax-0x76B7BCC8], al ; ret ; (1 found)
0x4259c1: add byte [rax-0x77], cl ; add eax, 0x000CBEA7 ; ret ; (1 found)
0x4259a1: add byte [rax-0x77], cl ; add eax, 0x000CBEBF ; ret ; (1 found)
0x425981: add byte [rax-0x77], cl ; add eax, 0x000CBED7 ; ret ; (1 found)
0x464666: add byte [rax-0x77], cl ; fistp qword [rax+0x0000014E] ; syscall ; (1 found)
0x405878: add byte [rax-0x77], cl ; mov qword [rsi+0x10], rsi ; syscall ; (1 found)
0x41bdac: add byte [rax-0x77], cl ; out dx, eax ; call qword [rbx+0x00000080] ; (3 found)
0x404df2: add byte [rax-0x77], cl ; ret ; (28 found)
0x4af121: add byte [rax-0x77], cl ; retn 0x0D8B ; (1 found)
0x47828c: add byte [rax-0x77], cl ; retn 0x0F4D ; (3 found)
0x4166dd: add byte [rax-0x77], cl ; retn 0x2548 ; (3 found)
0x4ae794: add byte [rax-0x77], cl ; retn 0x2944 ; (1 found)
0x4161f8: add byte [rax-0x77], cl ; retn 0x2949 ; (2 found)
0x41c915: add byte [rax-0x77], cl ; retn 0x294C ; (6 found)
0x4a6cc0: add byte [rax-0x77], cl ; retn 0x314C ; (1 found)
0x45c3c7: add byte [rax-0x77], cl ; retn 0x3AE9 ; (1 found)
0x4a90c1: add byte [rax-0x77], cl ; retn 0x56E8 ; (1 found)
0x42027c: add byte [rax-0x77], cl ; retn 0x8148 ; (2 found)
0x46497e: add byte [rax-0x77], cl ; retn 0x8348 ; (8 found)
0x48baaf: add byte [rax-0x77], cl ; retn 0x8349 ; (1 found)
0x45b46f: add byte [rax-0x77], cl ; retn 0x850F ; (1 found)
0x41b3cf: add byte [rax-0x77], cl ; retn 0x8945 ; (1 found)
0x472284: add byte [rax-0x77], cl ; retn 0x8948 ; (5 found)
0x4b74b6: add byte [rax-0x77], cl ; retn 0x8949 ; (1 found)
0x40ea65: add byte [rax-0x77], cl ; retn 0x8B48 ; (4 found)
0x4020bc: add byte [rax-0x77], cl ; retn 0x8D48 ; (1 found)
0x428894: add byte [rax-0x77], cl ; retn 0x8D4C ; (1 found)
0x42492a: add byte [rax-0x77], cl ; retn 0xC148 ; (13 found)
0x493cff: add byte [rax-0x77], cl ; retn 0xD148 ; (1 found)
0x4651bd: add byte [rax-0x77], cl ; retn 0xFF85 ; (1 found)
0x420b23: add byte [rax-0x77], cl ; retn 0xFFB8 ; (1 found)
0x40290f: add byte [rax-0x77], cl ; ror  [rax+0x29], cl ; ret ; (1 found)
0x490f1e: add byte [rax-0x7B], cl ; push qword [rbp+rax-0x0A] ; retn 0x7408 ; (1 found)
0x42add2: add byte [rax-0x7B], cl ; retn 0x840F ; (1 found)
0x47adbf: add byte [rax-0x7B], cl ; ror byte [rdi], 0x84 ; ret ; (1 found)
0x48d56b: add byte [rax-0x7B], cl ; ror byte [rdi], 0x84 ; retn 0x0012 ; (1 found)
0x463d0a: add byte [rax-0x7B], cl ; ror byte [rdi], 0x94 ; ret ; (1 found)
0x45f368: add byte [rax-0x7B], cl ; sal byte [rcx+rbx*2+0x48], 0x89 ; retn 0x8348 ; (1 found)
0x4a825f: add byte [rax-0x7B], cl ; sal byte [rdi+rbp*8+0x31], 0xC0 ; ret ; (1 found)
0x4aaf23: add byte [rax-0x7B], cl ; test byte [rax-0x73], 0x05 ; retn 0x01BA ; (1 found)
0x406e27: add byte [rax-0x7D], cl ; ret ; (48 found)
0x428d57: add byte [rax-0x7D], cl ; retn 0x0110 ; (1 found)
0x459a09: add byte [rax-0x7D], cl ; retn 0x0F01 ; (3 found)
0x44fa0f: add byte [rax-0x7D], cl ; retn 0x3A01 ; (2 found)
0x40f42d: add byte [rax-0x7D], cl ; retn 0x3C01 ; (1 found)
0x45812f: add byte [rax-0x7D], cl ; retn 0x4001 ; (1 found)
0x47d0df: add byte [rax-0x7D], cl ; retn 0x4101 ; (1 found)
0x457777: add byte [rax-0x7D], cl ; retn 0x4501 ; (1 found)
0x45e97f: add byte [rax-0x7D], cl ; retn 0x4801 ; (4 found)
0x4b178f: add byte [rax-0x7D], cl ; retn 0x4808 ; (1 found)
0x45836f: add byte [rax-0x7D], cl ; retn 0x4817 ; (1 found)
0x4696f6: add byte [rax-0x7D], cl ; retn 0x4901 ; (1 found)
0x433289: add byte [rax-0x7D], cl ; retn 0x4910 ; (75 found)
0x48f49e: add byte [rax-0x7D], cl ; retn 0x8904 ; (1 found)
0x48f816: add byte [rax-0x7D], cl ; retn 0x8908 ; (1 found)
0x4297a6: add byte [rax-0x7D], cl ; retn 0xB817 ; (1 found)
0x40969c: add byte [rax-0x7D], cl ; retn 0xC602 ; (1 found)
0x40901b: add byte [rax-0x7D], cl ; retn 0xE801 ; (1 found)
0x4941b8: add byte [rax-0x7D], cl ; retn 0xE901 ; (2 found)
0x4454e3: add byte [rax-0x7D], cl ; retn 0xE910 ; (59 found)
0x4332b7: add byte [rax-0x7D], cl ; retn 0xEB10 ; (15 found)
0x42e84f: add byte [rax-0x7D], cl ; rol byte [rax+0x48], 0x83 ; retn 0x4840 ; (1 found)
0x44939e: add byte [rax-0x7D], cl ; rol byte [rax+0x49], 0x39 ; retn 0x2774 ; (4 found)
0x471ead: add byte [rax-0x7D], cl ; rol byte [rax+rcx*2], 0x83 ; ret ; (1 found)
0x4af5b5: add byte [rax-0x7D], cl ; ror  [rax], 0xFFFFFF83 ; retn 0x8001 ; (1 found)
0x4249e0: add byte [rax], 0x00 ; add byte [rax+0x000000CA], bh ; syscall ; (1 found)
0x46c1b5: add byte [rax], 0x00 ; add byte [rax+0x39], cl ; ret ; (3 found)
0x42fdc2: add byte [rax], 0x00 ; add byte [rax-0x007F], cl ; retn 0x0080 ; (6 found)
0x420b20: add byte [rax], 0x00 ; add byte [rax-0x77], cl ; retn 0xFFB8 ; (1 found)
0x40c233: add byte [rax], 0x00 ; add byte [rax], al ; call qword [rbx] ; (2 found)
0x425acb: add byte [rax], 0x00 ; add byte [rax], al ; ret ; (5 found)
0x4ac2d3: add byte [rax], 0x00 ; add byte [rcx+rcx*4-0x38], al ; syscall ; (2 found)
0x47bce6: add byte [rax], 0x00 ; add cl, ch ; retn 0xFFEE ; (1 found)
0x4ac1b1: add byte [rax], 0x03 ; add byte [rax], al ; ret ; (1 found)
0x404b60: add byte [rax], al ; adc byte [rdi+rsi-0x09], dh ; retn 0x0000 ; (1 found)
0x45f525: add byte [rax], al ; add  [rax-0x7D], ecx ; retn 0x4908 ; (1 found)
0x4a8a59: add byte [rax], al ; add al, ch ; call qword [rax] ; (1 found)
0x46d585: add byte [rax], al ; add al, ch ; ret ; (1 found)
0x419016: add byte [rax], al ; add al, ch ; retn 0x06AF ; (1 found)
0x4a5e6f: add byte [rax], al ; add bh, dh ; ret ; (1 found)
0x41e3c2: add byte [rax], al ; add bl, ch ; retn 0x44E8 ; (1 found)
0x4ae574: add byte [rax], al ; add byte [rax+0x00000001], bh ; ret ; (2 found)
0x4ae6d0: add byte [rax], al ; add byte [rax+0x00000002], bh ; ret ; (1 found)
0x4757a9: add byte [rax], al ; add byte [rax+0x0000000D], bh ; syscall ; (1 found)
0x424cbb: add byte [rax], al ; add byte [rax+0x0000000E], bh ; syscall ; (2 found)
0x46112f: add byte [rax], al ; add byte [rax+0x00000048], bh ; syscall ; (2 found)
0x4249e1: add byte [rax], al ; add byte [rax+0x000000CA], bh ; syscall ; (5 found)
0x45e6e5: add byte [rax], al ; add byte [rax+0x000000E4], bh ; syscall ; (1 found)
0x4a1225: add byte [rax], al ; add byte [rax+0x000000E6], bh ; syscall ; (2 found)
0x44e0ec: add byte [rax], al ; add byte [rax+0x01478D48], dl ; ret ; (1 found)
0x44d78d: add byte [rax], al ; add byte [rax+0x078D4837], cl ; ret ; (1 found)
0x4295be: add byte [rax], al ; add byte [rax+0x09], cl ; ret ; (1 found)
0x40c7e1: add byte [rax], al ; add byte [rax+0x0F48C985], al ; retn 0x13EB ; (1 found)
0x4a4919: add byte [rax], al ; add byte [rax+0x0F], cl ; retn 0x3145 ; (1 found)
0x4aeec6: add byte [rax], al ; add byte [rax+0x0F], cl ; retn 0x66C3 ; (1 found)
0x4258ff: add byte [rax], al ; add byte [rax+0x0F], cl ; retn 0x8948 ; (4 found)
0x4ae092: add byte [rax], al ; add byte [rax+0x0F], cl ; retn 0x8D48 ; (1 found)
0x48996a: add byte [rax], al ; add byte [rax+0x29], cl ; ret ; (1 found)
0x4a0f20: add byte [rax], al ; add byte [rax+0x29], cl ; retn 0x0348 ; (2 found)
0x4a39d6: add byte [rax], al ; add byte [rax+0x29], cl ; retn 0x8B4C ; (1 found)
0x4a74f5: add byte [rax], al ; add byte [rax+0x29], cl ; retn 0x8D48 ; (1 found)
0x4a3837: add byte [rax], al ; add byte [rax+0x29], cl ; retn 0xC148 ; (2 found)
0x46c1b6: add byte [rax], al ; add byte [rax+0x39], cl ; ret ; (3 found)
0x45f93a: add byte [rax], al ; add byte [rax+0x39], cl ; retn 0x1E74 ; (1 found)
0x470d2b: add byte [rax], al ; add byte [rax+0x39], cl ; retn 0x3676 ; (1 found)
0x429b03: add byte [rax], al ; add byte [rax+0x39], cl ; retn 0x3D74 ; (1 found)
0x473aa6: add byte [rax], al ; add byte [rax+0x63], cl ; retn 0x8948 ; (1 found)
0x41e4ed: add byte [rax], al ; add byte [rax-0x00000001], bh ; ret ; (9 found)
0x48bb3d: add byte [rax], al ; add byte [rax-0x0008E343], al ; jmp qword [rax] ; (1 found)
0x464643: add byte [rax], al ; add byte [rax-0x007F], cl ; ret ; (1 found)
0x42fdc3: add byte [rax], al ; add byte [rax-0x007F], cl ; retn 0x0080 ; (10 found)
0x4161e8: add byte [rax], al ; add byte [rax-0x39], cl ; ret ; (10 found)
0x45f67d: add byte [rax], al ; add byte [rax-0x39], cl ; retn 0xFFA0 ; (12 found)
0x42c4c4: add byte [rax], al ; add byte [rax-0x39], cl ; retn 0xFFFF ; (3 found)
0x40c450: add byte [rax], al ; add byte [rax-0x3F], cl ; retn 0x0F11 ; (1 found)
0x4722f1: add byte [rax], al ; add byte [rax-0x3F], cl ; retn 0x4811 ; (2 found)
0x472ca2: add byte [rax], al ; add byte [rax-0x3F], cl ; retn 0x4911 ; (1 found)
0x472c79: add byte [rax], al ; add byte [rax-0x3F], cl ; retn 0x6411 ; (1 found)
0x404df0: add byte [rax], al ; add byte [rax-0x77], cl ; ret ; (14 found)
0x47828a: add byte [rax], al ; add byte [rax-0x77], cl ; retn 0x0F4D ; (3 found)
0x4166db: add byte [rax], al ; add byte [rax-0x77], cl ; retn 0x2548 ; (3 found)
0x4ae792: add byte [rax], al ; add byte [rax-0x77], cl ; retn 0x2944 ; (1 found)
0x41c913: add byte [rax], al ; add byte [rax-0x77], cl ; retn 0x294C ; (4 found)
0x45c3c5: add byte [rax], al ; add byte [rax-0x77], cl ; retn 0x3AE9 ; (1 found)
0x4a90bf: add byte [rax], al ; add byte [rax-0x77], cl ; retn 0x56E8 ; (1 found)
0x42027a: add byte [rax], al ; add byte [rax-0x77], cl ; retn 0x8148 ; (2 found)
0x464ecd: add byte [rax], al ; add byte [rax-0x77], cl ; retn 0x8348 ; (5 found)
0x4a866d: add byte [rax], al ; add byte [rax-0x77], cl ; retn 0x8B48 ; (1 found)
0x4b0ccd: add byte [rax], al ; add byte [rax-0x77], cl ; retn 0xC148 ; (1 found)
0x420b21: add byte [rax], al ; add byte [rax-0x77], cl ; retn 0xFFB8 ; (1 found)
0x40c93a: add byte [rax], al ; add byte [rax-0x7D], cl ; ret ; (17 found)
0x428d55: add byte [rax], al ; add byte [rax-0x7D], cl ; retn 0x0110 ; (1 found)
0x459a07: add byte [rax], al ; add byte [rax-0x7D], cl ; retn 0x0F01 ; (1 found)
0x44fa0d: add byte [rax], al ; add byte [rax-0x7D], cl ; retn 0x3A01 ; (1 found)
0x45812d: add byte [rax], al ; add byte [rax-0x7D], cl ; retn 0x4001 ; (1 found)
0x47d0dd: add byte [rax], al ; add byte [rax-0x7D], cl ; retn 0x4101 ; (1 found)
0x457775: add byte [rax], al ; add byte [rax-0x7D], cl ; retn 0x4501 ; (1 found)
0x45f92d: add byte [rax], al ; add byte [rax-0x7D], cl ; retn 0x4801 ; (2 found)
0x4b178d: add byte [rax], al ; add byte [rax-0x7D], cl ; retn 0x4808 ; (1 found)
0x45836d: add byte [rax], al ; add byte [rax-0x7D], cl ; retn 0x4817 ; (1 found)
0x433fa3: add byte [rax], al ; add byte [rax-0x7D], cl ; retn 0x4910 ; (3 found)
0x40969a: add byte [rax], al ; add byte [rax-0x7D], cl ; retn 0xC602 ; (1 found)
0x409019: add byte [rax], al ; add byte [rax-0x7D], cl ; retn 0xE801 ; (1 found)
0x446ba1: add byte [rax], al ; add byte [rax-0x7D], cl ; retn 0xE910 ; (3 found)
0x433fcd: add byte [rax], al ; add byte [rax-0x7D], cl ; retn 0xEB10 ; (1 found)
0x4047dc: add byte [rax], al ; add byte [rax], al ; call qword [rbx+0x10] ; (1 found)
0x40c234: add byte [rax], al ; add byte [rax], al ; call qword [rbx] ; (2 found)
0x4059e0: add byte [rax], al ; add byte [rax], al ; ret ; (28 found)
0x45ab9a: add byte [rax], al ; add byte [rbp+0x29], al ; ret ; (1 found)
0x45a923: add byte [rax], al ; add byte [rbp+0x29], al ; retn 0x2944 ; (1 found)
0x4598cd: add byte [rax], al ; add byte [rbp+0x39], al ; ret ; (1 found)
0x41f26d: add byte [rax], al ; add byte [rbp+0x4F0F48C9], al ; retn 0x8948 ; (2 found)
0x462d5c: add byte [rax], al ; add byte [rbp-0x3DBBF040], al ; ret ; (1 found)
0x4036a7: add byte [rax], al ; add byte [rbp-0x77], cl ; ret ; (1 found)
0x41b820: add byte [rax], al ; add byte [rbx+0x5D], bl ; ret ; (8 found)
0x48ece3: add byte [rax], al ; add byte [rbx-0x7CB7FBB5], cl ; ret ; (1 found)
0x449b21: add byte [rax], al ; add byte [rbx-0x7CF0FB06], al ; ret ; (3 found)
0x41c947: add byte [rax], al ; add byte [rcx+0x01], cl ; ret ; (2 found)
0x46ee19: add byte [rax], al ; add byte [rcx+0x3948FC51], cl ; ret ; (1 found)
0x41d2ae: add byte [rax], al ; add byte [rcx+rcx*4-0x01], cl ; call qword [r13+0x00000080] ; (1 found)
0x41d49c: add byte [rax], al ; add byte [rcx+rcx*4-0x01], cl ; call qword [rbp+0x00000080] ; (1 found)
0x4be88c: add byte [rax], al ; add byte [rcx+rcx*4-0x09], cl ; call rbp ; (2 found)
0x41e8d2: add byte [rax], al ; add byte [rcx+rcx*4-0x38], al ; syscall ; (4 found)
0x4b4e6d: add byte [rax], al ; add byte [rcx+rcx*4-0x40], cl ; ret ; (1 found)
0x434944: add byte [rax], al ; add byte [rcx-0x09], cl ; retn 0x0001 ; (1 found)
0x43496a: add byte [rax], al ; add byte [rcx-0x09], cl ; retn 0x0002 ; (1 found)
0x46dccb: add byte [rax], al ; add byte [rcx-0x0A], al ; retn 0x7501 ; (1 found)
0x46c579: add byte [rax], al ; add byte [rcx-0x77], al ; ret ; (3 found)
0x49404d: add byte [rax], al ; add byte [rcx-0x77], cl ; retn 0x8948 ; (1 found)
0x42d4ad: add byte [rax], al ; add byte [rcx-0x7D], cl ; retn 0x0F10 ; (73 found)
0x42ebad: add byte [rax], al ; add byte [rcx-0x7D], cl ; retn 0x7F10 ; (15 found)
0x459874: add byte [rax], al ; add byte [rcx], ch ; ret ; (1 found)
0x45d8ad: add byte [rax], al ; add byte [rcx], ch ; retn 0xD729 ; (1 found)
0x4094aa: add byte [rax], al ; add byte [rcx], dh ; call qword [rax+0x480AB60F] ; (1 found)
0x4bb46f: add byte [rax], al ; add byte [rdi+0x00000001], bh ; call rax ; (4 found)
0x42a2d0: add byte [rax], al ; add byte [rdi+rcx+0x46], cl ; retn 0x02A8 ; (1 found)
0x4935d6: add byte [rax], al ; add byte [rdi], cl ; retn 0x8B48 ; (1 found)
0x4186ef: add byte [rax], al ; add byte [rdi], cl ; retn 0xC085 ; (2 found)
0x45ca17: add byte [rax], al ; add byte [rdi], cl ; retn 0xC801 ; (1 found)
0x4258ea: add byte [rax], al ; add byte [rsi+0x01], dh ; ret ; (1 found)
0x45cecd: add byte [rax], al ; add byte [rsi+0x0F], bl ; retn 0x2949 ; (1 found)
0x49102d: add byte [rax], al ; add byte [rsi-0x00000001], bh ; call qword [rax+0x18] ; (1 found)
0x423710: add byte [rax], al ; add cl, ch ; ret ; (2 found)
0x47bce7: add byte [rax], al ; add cl, ch ; retn 0xFFEE ; (1 found)
0x417296: add byte [rax], al ; add cl, ch ; retn 0xFFFC ; (2 found)
0x4849a5: add byte [rax], al ; add dh, dh ; retn 0x0F01 ; (1 found)
0x465bdf: add byte [rax], al ; add dh, dh ; retn 0x7404 ; (2 found)
0x44f3a1: add byte [rax], al ; add dh, dh ; retn 0x7501 ; (2 found)
0x425324: add byte [rax], al ; add dh, dh ; retn 0x7502 ; (1 found)
0x49ed4e: add byte [rax], al ; add rax, 0x03 ; ret ; (1 found)
0x4055ac: add byte [rax], al ; add rsp, 0x0000000000000098 ; ret ; (1 found)
0x40b752: add byte [rax], al ; add rsp, 0x08 ; ret ; (5 found)
0x4607aa: add byte [rax], al ; add rsp, 0x68 ; ret ; (2 found)
0x460514: add byte [rax], al ; add rsp, 0x78 ; ret ; (1 found)
0x449300: add byte [rax], al ; bsf rax, rdx ; ret ; (1 found)
0x4256e4: add byte [rax], al ; call 0x00000000 ; (2 found)
0x42025d: add byte [rax], al ; call qword [rax+0x00000080] ; (1 found)
0x490ef9: add byte [rax], al ; call qword [rax+0x68] ; (1 found)
0x4047de: add byte [rax], al ; call qword [rbx+0x10] ; (1 found)
0x40c236: add byte [rax], al ; call qword [rbx] ; (2 found)
0x4615df: add byte [rax], al ; call r12 ; (5 found)
0x40c1c1: add byte [rax], al ; call r15 ; (2 found)
0x4bb338: add byte [rax], al ; call rax ; (5 found)
0x42d279: add byte [rax], al ; cmove rax, rdx ; ret ; (6 found)
0x42c0e9: add byte [rax], al ; cmovne rax, rdx ; ret ; (8 found)
0x401a8e: add byte [rax], al ; endbr64 ; ret ; (2 found)
0x4bc0a3: add byte [rax], al ; jmp rax ; (1 found)
0x48ce78: add byte [rax], al ; jmp rdx ; (2 found)
0x44e0fe: add byte [rax], al ; lea rax, qword [rdi+0x02] ; ret ; (1 found)
0x44e10e: add byte [rax], al ; lea rax, qword [rdi+0x03] ; ret ; (1 found)
0x44e11e: add byte [rax], al ; lea rax, qword [rdi+0x04] ; ret ; (1 found)
0x44e12e: add byte [rax], al ; lea rax, qword [rdi+0x05] ; ret ; (1 found)
0x44e13e: add byte [rax], al ; lea rax, qword [rdi+0x06] ; ret ; (1 found)
0x44e07a: add byte [rax], al ; lea rax, qword [rdi+0x07] ; ret ; (1 found)
0x44e14e: add byte [rax], al ; lea rax, qword [rdi+0x08] ; ret ; (1 found)
0x44e15e: add byte [rax], al ; lea rax, qword [rdi+0x09] ; ret ; (1 found)
0x44e16e: add byte [rax], al ; lea rax, qword [rdi+0x0A] ; ret ; (1 found)
0x44e17e: add byte [rax], al ; lea rax, qword [rdi+0x0B] ; ret ; (1 found)
0x44e18e: add byte [rax], al ; lea rax, qword [rdi+0x0C] ; ret ; (1 found)
0x44e19e: add byte [rax], al ; lea rax, qword [rdi+0x0D] ; ret ; (1 found)
0x44e1ae: add byte [rax], al ; lea rax, qword [rdi+0x0E] ; ret ; (1 found)
0x44e0cd: add byte [rax], al ; lea rax, qword [rdi+0x0F] ; ret ; (1 found)
0x4259e0: add byte [rax], al ; mov  [0x00000000004F18A0], eax ; ret ; (1 found)
0x4b3b96: add byte [rax], al ; mov  [fs:0x00000048], r8d ; ret ; (1 found)
0x4ae660: add byte [rax], al ; mov  [rdx], 0xFFFFC002 ; ret ; (1 found)
0x48ce70: add byte [rax], al ; mov  [rsp+0x50], 0x00000020 ; jmp rdx ; (1 found)
0x491ed0: add byte [rax], al ; mov byte [rax+0x00000972], 0x00 ; ret ; (1 found)
0x44d15e: add byte [rax], al ; mov byte [rdi], dh ; ret ; (1 found)
0x418902: add byte [rax], al ; mov byte [rsp+0x40], 0x20 ; jmp rdx ; (1 found)
0x492d11: add byte [rax], al ; mov eax, 0x00000001 ; ret ; (3 found)
0x4ae6d1: add byte [rax], al ; mov eax, 0x00000002 ; ret ; (1 found)
0x4757aa: add byte [rax], al ; mov eax, 0x0000000D ; syscall ; (1 found)
0x424cbc: add byte [rax], al ; mov eax, 0x0000000E ; syscall ; (2 found)
0x492226: add byte [rax], al ; mov eax, 0x00000016 ; ret ; (1 found)
0x45f62e: add byte [rax], al ; mov eax, 0x00000038 ; syscall ; (1 found)
0x461130: add byte [rax], al ; mov eax, 0x00000048 ; syscall ; (2 found)
0x4046f7: add byte [rax], al ; mov eax, 0x0000009E ; syscall ; (3 found)
0x424d1e: add byte [rax], al ; mov eax, 0x000000BA ; syscall ; (2 found)
0x4249e2: add byte [rax], al ; mov eax, 0x000000CA ; syscall ; (5 found)
0x4645d5: add byte [rax], al ; mov eax, 0x000000DA ; syscall ; (1 found)
0x45e6e6: add byte [rax], al ; mov eax, 0x000000E4 ; syscall ; (1 found)
0x4a1226: add byte [rax], al ; mov eax, 0x000000E6 ; syscall ; (2 found)
0x45f669: add byte [rax], al ; mov eax, 0x00000111 ; syscall ; (1 found)
0x41e4ee: add byte [rax], al ; mov eax, 0xFFFFFFFF ; ret ; (11 found)
0x45f6be: add byte [rax], al ; mov eax, edx ; syscall ; (1 found)
0x41e8d3: add byte [rax], al ; mov eax, r9d ; syscall ; (4 found)
0x4bb470: add byte [rax], al ; mov edi, 0x00000001 ; call rax ; (4 found)
0x40c116: add byte [rax], al ; mov edi, ebp ; call r15 ; (1 found)
0x49102e: add byte [rax], al ; mov esi, 0xFFFFFFFF ; call qword [rax+0x18] ; (1 found)
0x425980: add byte [rax], al ; mov qword [0x00000000004F1860], rax ; ret ; (1 found)
0x4259a0: add byte [rax], al ; mov qword [0x00000000004F1868], rax ; ret ; (1 found)
0x4259c0: add byte [rax], al ; mov qword [0x00000000004F1870], rax ; ret ; (1 found)
0x423f0d: add byte [rax], al ; mov qword [0x00000000004F4398], 0x0000000000000000 ; ret ; (1 found)
0x424978: add byte [rax], al ; mov qword [fs:0x000002F8], rdi ; ret ; (1 found)
0x47553d: add byte [rax], al ; mov qword [fs:rdx], rax ; ret ; (1 found)
0x422fad: add byte [rax], al ; mov qword [rax+0x08], 0x0000000000000000 ; ret ; (1 found)
0x41c008: add byte [rax], al ; mov qword [rdx+0x000000E0], rcx ; ret ; (1 found)
0x4ae588: add byte [rax], al ; mov qword [rsi], rdx ; ret ; (1 found)
0x4a0f34: add byte [rax], al ; mov qword [rsp+0x38], rdx ; call r12 ; (2 found)
0x49ed7e: add byte [rax], al ; mov rax, 0x0000000000000002 ; ret ; (1 found)
0x49ed8e: add byte [rax], al ; mov rax, 0x0000000000000003 ; ret ; (1 found)
0x49ed9e: add byte [rax], al ; mov rax, 0x0000000000000004 ; ret ; (1 found)
0x49edae: add byte [rax], al ; mov rax, 0x0000000000000005 ; ret ; (1 found)
0x49edbe: add byte [rax], al ; mov rax, 0x0000000000000006 ; ret ; (1 found)
0x49edce: add byte [rax], al ; mov rax, 0x0000000000000007 ; ret ; (1 found)
0x40b71e: add byte [rax], al ; mov rax, 0xFFFFFFFFFFFFFFFF ; ret ; (4 found)
0x49dc1e: add byte [rax], al ; mov rax, qword [0x00000000004F8E88] ; ret ; (1 found)
0x49dc2e: add byte [rax], al ; mov rax, qword [0x00000000004F8E90] ; ret ; (1 found)
0x49dc3e: add byte [rax], al ; mov rax, qword [0x00000000004F8E98] ; ret ; (1 found)
0x49dc4e: add byte [rax], al ; mov rax, qword [0x00000000004F8EA0] ; ret ; (1 found)
0x49dc5e: add byte [rax], al ; mov rax, qword [0x00000000004F8EA8] ; ret ; (1 found)
0x49dc6e: add byte [rax], al ; mov rax, qword [0x00000000004F8EB0] ; ret ; (1 found)
0x49dc7e: add byte [rax], al ; mov rax, qword [0x00000000004F8EB8] ; ret ; (1 found)
0x49dc8e: add byte [rax], al ; mov rax, qword [0x00000000004F8EC0] ; ret ; (1 found)
0x49dc9e: add byte [rax], al ; mov rax, qword [0x00000000004F8EC8] ; ret ; (1 found)
0x49dcae: add byte [rax], al ; mov rax, qword [0x00000000004F8ED0] ; ret ; (1 found)
0x41d6e2: add byte [rax], al ; mov rax, qword [rax+0x20] ; jmp rax ; (1 found)
0x4b4e6e: add byte [rax], al ; mov rax, r8 ; ret ; (1 found)
0x461771: add byte [rax], al ; mov rdi, qword [r13+0x00] ; call rbx ; (4 found)
0x4914ac: add byte [rax], al ; mov rdi, r13 ; call qword [r14+0x20] ; (1 found)
0x4be88e: add byte [rax], al ; mov rdi, r14 ; call rbp ; (1 found)
0x41d2af: add byte [rax], al ; mov rdi, r15 ; call qword [r13+0x00000080] ; (1 found)
0x41d49d: add byte [rax], al ; mov rdi, r15 ; call qword [rbp+0x00000080] ; (1 found)
0x41bdab: add byte [rax], al ; mov rdi, rbp ; call qword [rbx+0x00000080] ; (3 found)
0x420c94: add byte [rax], al ; mov rdi, rbx ; call qword [r12+0x00000088] ; (1 found)
0x420a6d: add byte [rax], al ; mov rdi, rbx ; call qword [r12+0x48] ; (1 found)
0x422c3d: add byte [rax], al ; mov rdi, rbx ; call qword [r13+0x60] ; (1 found)
0x41de1a: add byte [rax], al ; mov rdi, rbx ; call qword [rbp+0x00000080] ; (3 found)
0x4229be: add byte [rax], al ; mov rdi, rbx ; call qword [rbp+0x20] ; (1 found)
0x48f700: add byte [rax], al ; mov rdi, rbx ; call r8 ; (1 found)
0x41b2ff: add byte [rax], al ; mov rdi, rbx ; call rax ; (1 found)
0x48d8ca: add byte [rax], al ; mov rdx, qword [r8+rdx*8] ; jmp rdx ; (1 found)
0x4ac1ad: add byte [rax], al ; movups  [rax+0x00000300], xmm0 ; ret ; (1 found)
0x49221e: add byte [rax], al ; neg eax ; ret ; (1 found)
0x47467c: add byte [rax], al ; nop ; ret ; (1 found)
0x4047d6: add byte [rax], al ; nop  [rax+rax+0x00000000] ; call qword [rbx+0x10] ; (1 found)
0x404b68: add byte [rax], al ; or byte [rbx+rbx-0x09], dh ; retn 0x0000 ; (1 found)
0x457ff6: add byte [rax], al ; pop rbp ; ret ; (2 found)
0x403459: add byte [rax], al ; pop rbx ; ret ; (9 found)
0x401b46: add byte [rax], al ; ret ; (125 found)
0x44fe71: add byte [rax], al ; sub rax, rdx ; ret ; (2 found)
0x424aa4: add byte [rax], al ; syscall ; ret ; (7 found)
0x4046fc: add byte [rax], al ; syscall ; (107 found)
0x40b626: add byte [rax], al ; xor eax, eax ; ret ; (24 found)
0x46131e: add byte [rax], al ; xor edi, edi ; syscall ; (1 found)
0x44df1e: add byte [rax], al ; xor rax, rax ; ret ; (2 found)
0x424a48: add byte [rax], al ; xor sil, 0x80 ; syscall ; (1 found)
0x4251dc: add byte [rax], al ; xor sil, 0x81 ; syscall ; (3 found)
0x4ad154: add byte [rax], cl ; add byte [rax+0x0F], cl ; retn 0x8948 ; (1 found)
0x4b92c2: add byte [rax], cl ; mov byte [0x00000000004F93B0], 0x08 ; ret ; (1 found)
0x4b92c9: add byte [rax], cl ; ret ; (1 found)
0x4a1368: add byte [rax], dl ; add byte [rax+0x39], cl ; ret ; (4 found)
0x4256db: add byte [rax], dl ; mov rdi, qword [fs:0x00000300] ; call 0x00000000 ; (2 found)
0x423e1d: add byte [rax], r8L ; endbr64 ; ret ; (1 found)
0x492225: add byte [rax], r8L ; mov eax, 0x00000016 ; ret ; (1 found)
0x424d1d: add byte [rax], r8L ; mov eax, 0x000000BA ; syscall ; (2 found)
0x41f0fd: add byte [rax], r8L ; mov eax, 0xFFFFFFFF ; ret ; (3 found)
0x45ee75: add byte [rax], r8L ; pop rbp ; ret ; (1 found)
0x401b45: add byte [rax], r8L ; ret ; (8 found)
0x41e09d: add byte [rax], r8L ; xor eax, eax ; ret ; (6 found)
0x47898d: add byte [rbp+0x01], al ; dec  [rax-0x7D] ; ret ; (2 found)
0x45a5ee: add byte [rbp+0x01], cl ; retn 0x894C ; (1 found)
0x4299ba: add byte [rbp+0x03], dh ; ret ; (1 found)
0x45e6ab: add byte [rbp+0x05], dh ; add rsp, 0x18 ; ret ; (1 found)
0x46149d: add byte [rbp+0x05], dh ; add rsp, 0x28 ; ret ; (2 found)
0x4b4548: add byte [rbp+0x05], dh ; add rsp, 0x38 ; ret ; (4 found)
0x40d419: add byte [rbp+0x08], dh ; add rsp, 0x00000000000000D8 ; ret ; (5 found)
0x40b6e4: add byte [rbp+0x08], dh ; add rsp, 0x0000000000000148 ; ret ; (1 found)
0x47f84f: add byte [rbp+0x0F], cl ; lodsd ; ret ; (1 found)
0x47f73f: add byte [rbp+0x0F], cl ; movsd ; ret ; (1 found)
0x4614bd: add byte [rbp+0x10], dh ; mov eax, 0x00000009 ; syscall ; (1 found)
0x4602ba: add byte [rbp+0x14], dh ; add rsp, 0x28 ; ret ; (1 found)
0x462ac8: add byte [rbp+0x1A], dh ; add rsp, 0x0000000000001018 ; ret ; (1 found)
0x4adda8: add byte [rbp+0x28], dh ; add rsp, 0x38 ; ret ; (1 found)
0x45ab9c: add byte [rbp+0x29], al ; ret ; (1 found)
0x45a925: add byte [rbp+0x29], al ; retn 0x2944 ; (1 found)
0x45abb5: add byte [rbp+0x29], al ; retn 0x8D45 ; (1 found)
0x45a5e4: add byte [rbp+0x29], cl ; retn 0x634C ; (1 found)
0x4ad9d2: add byte [rbp+0x29], dh ; add rsp, 0x58 ; ret ; (1 found)
0x4adaa4: add byte [rbp+0x2D], dh ; add rsp, 0x58 ; ret ; (2 found)
0x41f42e: add byte [rbp+0x31], al ; dec  [rax+0x39] ; retn 0x860F ; (1 found)
0x4a4a01: add byte [rbp+0x31], al ; jmp qword [rbx+rcx*4+0x00] ; (1 found)
0x46b4cf: add byte [rbp+0x31], al ; ror byte [rax+0x39], cl ; ret ; (1 found)
0x427df2: add byte [rbp+0x31], al ; ror byte [rax-0x7D], 0x3D ; retn 0x0C9A ; (1 found)
0x4598cf: add byte [rbp+0x39], al ; ret ; (1 found)
0x45f034: add byte [rbp+0x41], bl ; pop rsp ; ret ; (2 found)
0x41fcbf: add byte [rbp+0x45110FC9], al ; cmp byte [rax+0x0F], cl ; retn 0x110F ; (2 found)
0x462e14: add byte [rbp+0x46], dh ; add rsp, 0x58 ; ret ; (1 found)
0x46111a: add byte [rbp+0x46], dh ; add rsp, 0x68 ; ret ; (1 found)
0x4611a9: add byte [rbp+0x47], dh ; add rsp, 0x18 ; ret ; (1 found)
0x4841fb: add byte [rbp+0x47], dh ; add rsp, 0x38 ; ret ; (1 found)
0x461261: add byte [rbp+0x47], dh ; add rsp, 0x58 ; ret ; (1 found)
0x45f0f6: add byte [rbp+0x480575C0], al ; add esp, 0x08 ; ret ; (1 found)
0x4758dc: add byte [rbp+0x480F75C0], al ; add esp, 0x08 ; ret ; (1 found)
0x4a198f: add byte [rbp+0x49], dh ; add rsp, 0x58 ; ret ; (1 found)
0x41c0c0: add byte [rbp+0x4F0F48C9], al ; retn 0x8948 ; (4 found)
0x41780e: add byte [rbp+0x57890FC0], al ; idiv edi ; jmp qword [rsi+0x0F] ; (1 found)
0x40b655: add byte [rbp+0x5D0675C0], al ; ret ; (1 found)
0x45ac27: add byte [rbp+0x63], cl ; retn 0x694D ; (1 found)
0x4935ec: add byte [rbp+0x78], dh ; add rsp, 0x0000000000000098 ; ret ; (1 found)
0x480bb9: add byte [rbp+0x79], dh ; leave ; ret ; (1 found)
0x4578d6: add byte [rbp+rcx*4+0x4C], cl ; and al, 0x18 ; call r13 ; (1 found)
0x4941ef: add byte [rbp+rcx*4+0x58], cl ; dec  [rcx-0x77] ; retn 0x3948 ; (1 found)
0x477f94: add byte [rbp+rcx*4+0x6A], al ; inc byte [rbx-0x7BF0FE06] ; ret ; (1 found)
0x428f18: add byte [rbp-0x007CFDB9], cl ; add dh, byte [rsp-0x77] ; retn 0xB48B ; (1 found)
0x428efe: add byte [rbp-0x007CFEB9], cl ; add esi,  [rbp+rdi-0x77] ; retn 0xB48B ; (2 found)
0x4a59f3: add byte [rbp-0x36], dh ; ret ; (1 found)
0x462b22: add byte [rbp-0x3DBBF040], al ; add rsp, 0x08 ; ret ; (1 found)
0x462d5e: add byte [rbp-0x3DBBF040], al ; ret ; (1 found)
0x42ccf7: add byte [rbp-0x5D], dh ; ret ; (1 found)
0x4a7a27: add byte [rbp-0x76B7FEBE], cl ; retn 0x8B49 ; (1 found)
0x4036a9: add byte [rbp-0x77], cl ; ret ; (1 found)
0x4b0aff: add byte [rbp-0x77], cl ; ror byte [rcx-0x7D], 1 ; retn 0x4901 ; (1 found)
0x41f269: add byte [rbx+0x0000C08D], cl ; add byte [rbp+0x4F0F48C9], al ; retn 0x8948 ; (2 found)
0x44d19f: add byte [rbx+0x0477880E], cl ; mov  [rdi], ecx ; ret ; (1 found)
0x423ee5: add byte [rbx+0x057F01F8], al ; ret ; (1 found)
0x4249ab: add byte [rbx+0x077401F8], al ; ret ; (1 found)
0x425ae0: add byte [rbx+0x0A7401F8], al ; add rsp, 0x08 ; ret ; (1 found)
0x42d049: add byte [rbx+0x0CBDE40D], cl ; add dh, dh ; retn 0x7420 ; (1 found)
0x42c3af: add byte [rbx+0x0CC97615], cl ; add bh, dh ; retn 0x0000 ; (1 found)
0x42c139: add byte [rbx+0x0CCCF40D], cl ; add dh, dh ; retn 0x7420 ; (1 found)
0x42c0b9: add byte [rbx+0x0CCD740D], cl ; add dh, dh ; retn 0x7420 ; (1 found)
0x45f957: add byte [rbx+0x137F01F8], al ; pop rbx ; ret ; (1 found)
0x4bec6b: add byte [rbx+0x1F7F01F8], al ; pop rbx ; ret ; (1 found)
0x45ad9a: add byte [rbx+0x207F01F8], al ; add rsp, 0x08 ; ret ; (1 found)
0x4209d7: add byte [rbx+0x31], bl ; rcr byte [rbp+0x41], 0x5C ; ret ; (1 found)
0x4aee20: add byte [rbx+0x327F01F8], al ; pop rbp ; ret ; (1 found)
0x421a5d: add byte [rbx+0x3D7F01F8], al ; add rsp, 0x08 ; ret ; (1 found)
0x44ccce: add byte [rbx+0x48028901], cl ; lea eax,  [rdx+0x03] ; ret ; (2 found)
0x46089e: add byte [rbx+0x480C2444], cl ; add esp, 0x18 ; ret ; (1 found)
0x4632f2: add byte [rbx+0x480C2444], cl ; add esp, 0x28 ; ret ; (1 found)
0x43d21e: add byte [rbx+0x5789FC56], cl ; cld ; ret ; (4 found)
0x409540: add byte [rbx+0x5D], bl ; pop r12 ; ret ; (8 found)
0x41b822: add byte [rbx+0x5D], bl ; ret ; (8 found)
0x492dbc: add byte [rbx+0x5E7421F8], al ; mov eax, 0x00000016 ; ret ; (1 found)
0x467045: add byte [rbx+rbx*2], cl ; ret ; (1 found)
0x40c834: add byte [rbx+rcx*4+0x04], cl ; retn 0x8840 ; (1 found)
0x40c90c: add byte [rbx+rcx*4+0x04], cl ; retn 0x8D48 ; (1 found)
0x40c70d: add byte [rbx+rcx*4+0x15], cl ; ret ; (1 found)
0x4adeb7: add byte [rbx+rcx*4+0x57], cl ; or byte [rcx+0x01], cl ; retn 0x894C ; (1 found)
0x480dc7: add byte [rbx+rcx*4+0x57], cl ; or byte [rcx+0x29], cl ; retn 0x894C ; (1 found)
0x46209a: add byte [rbx+rcx*4+0x5E], cl ; or byte [rcx-0x0A], al ; ret ; (1 found)
0x40bfb7: add byte [rbx+rcx*4+0x63], cl ; or byte [rax-0x7D], cl ; ret ; (2 found)
0x47660f: add byte [rbx+rcx*4+0x7B], cl ; or byte [rax-0x7D], cl ; ret ; (1 found)
0x4113ff: add byte [rbx-0x0005A76B], cl ; inc  [rbx-0x78F0D006] ; ret ; (1 found)
0x410d03: add byte [rbx-0x00066773], cl ; dec  [rax-0x7D] ; ret ; (1 found)
0x491307: add byte [rbx-0x3B7CB7FE], cl ; or byte [rbx+0x5D], bl ; ret ; (1 found)
0x49354b: add byte [rbx-0x3D], bl ; nop ; ret ; (1 found)
0x403a94: add byte [rbx-0x50F0FE3E], al ; retn 0xEBE9 ; (1 found)
0x401ddc: add byte [rbx-0x67B703BB], cl ; leave ; ret ; (1 found)
0x4b70b4: add byte [rbx-0x70F08B06], al ; retn 0x0006 ; (1 found)
0x48e6d7: add byte [rbx-0x78F0D008], al ; mov ecx, 0x89000007 ; retn 0xC083 ; (1 found)
0x403662: add byte [rbx-0x7A07DBA4], cl ; test byte [rdi], 0x9F ; retn 0xC031 ; (1 found)
0x44f546: add byte [rbx-0x7BF0ED07], al ; retn 0x0002 ; (1 found)
0x40a086: add byte [rbx-0x7BF0FE08], al ; retn 0x0002 ; (1 found)
0x48dc37: add byte [rbx-0x7CB7F7A6], cl ; retn 0x8D08 ; (1 found)
0x465726: add byte [rbx-0x7CB7F7BE], cl ; retn 0x4110 ; (2 found)
0x4656d6: add byte [rbx-0x7CB7F7BE], cl ; retn 0xBB10 ; (2 found)
0x48ece5: add byte [rbx-0x7CB7FBB5], cl ; ret ; (1 found)
0x48932e: add byte [rbx-0x7CB7FBBD], cl ; ret ; (2 found)
0x4014ab: add byte [rbx-0x7CB7FD12], al ; retn 0x4810 ; (5 found)
0x403f16: add byte [rbx-0x7CBEFE3A], al ; ret ; (1 found)
0x449b23: add byte [rbx-0x7CF0FB06], al ; ret ; (3 found)
0x4256e2: add byte [rbx], al ; add byte [rax], al ; call 0x00000000 ; (2 found)
0x4ac1b2: add byte [rbx], al ; add byte [rax], al ; ret ; (1 found)
0x466fb5: add byte [rbx], al ; pop rbx ; ret ; (1 found)
0x41c949: add byte [rcx+0x01], cl ; ret ; (2 found)
0x45a5de: add byte [rcx+0x09DF0305], cl ; add byte [rbp+0x29], cl ; retn 0x634C ; (1 found)
0x402e00: add byte [rcx+0x17E8E845], cl ; ret ; (1 found)
0x487742: add byte [rcx+0x21], cl ; ret ; (1 found)
0x4b2421: add byte [rcx+0x248B4CE8], cl ; retn 0x0F41 ; (1 found)
0x45c917: add byte [rcx+0x29], al ; retn 0x8944 ; (1 found)
0x41d4cf: add byte [rcx+0x2B], cl ; adc byte [r8+0x01], r9L ; ret ; (1 found)
0x46ee1b: add byte [rcx+0x3948FC51], cl ; ret ; (1 found)
0x46f1b1: add byte [rcx+0x3948FC56], cl ; ret ; (1 found)
0x4493cf: add byte [rcx+0x39], cl ; ret ; (3 found)
0x41d2b0: add byte [rcx+rcx*4-0x01], cl ; call qword [r13+0x00000080] ; (1 found)
0x41d49e: add byte [rcx+rcx*4-0x01], cl ; call qword [rbp+0x00000080] ; (1 found)
0x490ce7: add byte [rcx+rcx*4-0x02], al ; mov rdi, rbp ; call qword [r14+0x18] ; (1 found)
0x4be88f: add byte [rcx+rcx*4-0x09], cl ; call rbp ; (1 found)
0x424dd8: add byte [rcx+rcx*4-0x0E], cl ; lea rsi, qword [0x00000000004C32A0] ; syscall ; (1 found)
0x4914ad: add byte [rcx+rcx*4-0x11], cl ; call qword [r14+0x20] ; (1 found)
0x4a0c99: add byte [rcx+rcx*4-0x12], cl ; mov qword [rsp+0x000000D0], rax ; call r12 ; (1 found)
0x41c2b4: add byte [rcx+rcx*4-0x12], cl ; mov rdi, r15 ; call qword [r14+0x38] ; (2 found)
0x4bc107: add byte [rcx+rcx*4-0x12], cl ; mov rdi, rbx ; call r14 ; (1 found)
0x416bea: add byte [rcx+rcx*4-0x1E], cl ; mov rdi, r14 ; call qword [r13+0x38] ; (1 found)
0x4653b4: add byte [rcx+rcx*4-0x20], al ; pop r12 ; ret ; (1 found)
0x4b06a9: add byte [rcx+rcx*4-0x30], cl ; add rsp, 0x28 ; ret ; (1 found)
0x41e8d4: add byte [rcx+rcx*4-0x38], al ; syscall ; (4 found)
0x4930cb: add byte [rcx+rcx*4-0x39], cl ; mov eax, 0x000000CA ; syscall ; (1 found)
0x4935c0: add byte [rcx+rcx*4-0x3A], cl ; mov eax, 0x0000000E ; syscall ; (1 found)
0x463b53: add byte [rcx+rcx*4-0x40], cl ; ret ; (2 found)
0x40401a: add byte [rcx+rcx+0x3D], al ; retn 0x0F4D ; (1 found)
0x4a226c: add byte [rcx+rdi-0x37], dh ; xor eax, eax ; ret ; (1 found)
0x434946: add byte [rcx-0x09], cl ; retn 0x0001 ; (1 found)
0x43496c: add byte [rcx-0x09], cl ; retn 0x0002 ; (1 found)
0x46a763: add byte [rcx-0x0A], al ; retn 0x0F04 ; (1 found)
0x46dccd: add byte [rcx-0x0A], al ; retn 0x7501 ; (1 found)
0x40c170: add byte [rcx-0x1076B312], cl ; call r15 ; (1 found)
0x40de71: add byte [rcx-0x39], cl ; retn 0xFFA0 ; (6 found)
0x4161f1: add byte [rcx-0x39], cl ; ror byte [rax+0x48004F34], 0x89 ; retn 0x2949 ; (2 found)
0x403cff: add byte [rcx-0x73FCE71E], al ; and  [rcx+0x09], eax ; retn 0x058B ; (1 found)
0x470580: add byte [rcx-0x73], cl ; add r9L, byte [r8+0x39] ; ret ; (1 found)
0x427bd5: add byte [rcx-0x73], cl ; dec  [r9-0x7B] ; ret ; (1 found)
0x4808b5: add byte [rcx-0x73], cl ; or byte [r8+0x39], r9L ; ret ; (1 found)
0x4a9f63: add byte [rcx-0x75], al ; adc bh, byte [rcx] ; retn 0x0C74 ; (1 found)
0x4a9ed1: add byte [rcx-0x75], al ; adc bh, byte [rcx] ; retn 0x850F ; (1 found)
0x4a6cbc: add byte [rcx-0x75], al ; add byte [r8-0x77], r9L ; retn 0x314C ; (1 found)
0x48d8cb: add byte [rcx-0x75], cl ; adc al, 0xD0 ; jmp rdx ; (1 found)
0x4b1014: add byte [rcx-0x75], cl ; sbb byte [rax+0x39], r9L ; ret ; (1 found)
0x45c161: add byte [rcx-0x77], al ; and byte [r11+rcx*4+0x34], r9L ; retn 0x0F41 ; (1 found)
0x46c57b: add byte [rcx-0x77], al ; ret ; (4 found)
0x46da45: add byte [rcx-0x77], al ; retn 0x5A58 ; (1 found)
0x492093: add byte [rcx-0x77], bh ; mov eax, 0x0000006E ; ret ; (1 found)
0x4096f7: add byte [rcx-0x77], cl ; fisttp word [rax-0x7D] ; ret ; (1 found)
0x428bba: add byte [rcx-0x77], cl ; or byte [rax+0x39], cl ; ret ; (1 found)
0x42c53f: add byte [rcx-0x77], cl ; ret ; (7 found)
0x418e3a: add byte [rcx-0x77], cl ; retn 0x01B8 ; (1 found)
0x419eed: add byte [rcx-0x77], cl ; retn 0x48E9 ; (1 found)
0x4269c5: add byte [rcx-0x77], cl ; retn 0x8948 ; (2 found)
0x48776a: add byte [rcx-0x77], cl ; retn 0x8D48 ; (1 found)
0x426d8a: add byte [rcx-0x77], cl ; retn 0xBD41 ; (1 found)
0x4b876f: add byte [rcx-0x77], cl ; ror  [rcx+0x09], cl ; ret ; (1 found)
0x490ebc: add byte [rcx-0x7CB7E8F4], cl ; retn 0x4804 ; (1 found)
0x464e07: add byte [rcx-0x7D], al ; retn 0x4901 ; (1 found)
0x416822: add byte [rcx-0x7D], cl ; ret ; (4 found)
0x42d4af: add byte [rcx-0x7D], cl ; retn 0x0F10 ; (177 found)
0x4b0665: add byte [rcx-0x7D], cl ; retn 0x4801 ; (1 found)
0x414b21: add byte [rcx-0x7D], cl ; retn 0x4901 ; (1 found)
0x47d38f: add byte [rcx-0x7D], cl ; retn 0x4C01 ; (1 found)
0x42ebaf: add byte [rcx-0x7D], cl ; retn 0x7F10 ; (15 found)
0x404014: add byte [rcx-0x7FFEF31E], al ; add byte [rcx+rcx+0x3D], al ; retn 0x0F4D ; (1 found)
0x449669: add byte [rcx], al ; enter 0xF8C5, 0x77 ; ret ; (1 found)
0x401b3f: add byte [rcx], al ; pop rbp ; ret ; (1 found)
0x423ea4: add byte [rcx], al ; pop rbx ; ret ; (1 found)
0x4a9b30: add byte [rcx], bh ; retn 0x0373 ; (1 found)
0x427ac0: add byte [rcx], bh ; retn 0x0A7E ; (1 found)
0x42530a: add byte [rcx], bh ; retn 0x6974 ; (1 found)
0x424f46: add byte [rcx], bh ; retn 0x840F ; (2 found)
0x492f71: add byte [rcx], bh ; retn 0x850F ; (1 found)
0x477ab5: add byte [rcx], bh ; ror byte [rdi], 1 ; retn 0xC801 ; (4 found)
0x42ff9f: add byte [rcx], ch ; enter 0x1D75, 0x83 ; retn 0x8101 ; (2 found)
0x43442f: add byte [rcx], ch ; enter 0x2275, 0x83 ; retn 0x8101 ; (3 found)
0x459876: add byte [rcx], ch ; ret ; (1 found)
0x45d8af: add byte [rcx], ch ; retn 0xD729 ; (1 found)
0x47f4ac: add byte [rcx], cl ; retn 0x9274 ; (1 found)
0x4094ac: add byte [rcx], dh ; call qword [rax+0x480AB60F] ; (1 found)
0x468cb2: add byte [rcx], dh ; div byte [rcx] ; jmp qword [rsi+0x0F] ; (1 found)
0x462a88: add byte [rcx], dh ; jmp qword [rax+rcx*2-0x75] ; (2 found)
0x49e33c: add byte [rcx], dh ; rol bl, 0x83 ; retn 0x6608 ; (1 found)
0x4949fc: add byte [rcx], dh ; rol bl, 0x83 ; retn 0x6620 ; (1 found)
0x41d58b: add byte [rcx], dh ; ror byte [rcx+rcx*4-0x01], cl ; call qword [rbx+0x00000080] ; (1 found)
0x493d99: add byte [rcx], dh ; ror byte [rcx-0x77], 0x30 ; ret ; (1 found)
0x41ba59: add byte [rcx], dh ; test byte [rax-0x77], 0xEF ; call qword [rbx+0x10] ; (1 found)
0x4bf554: add byte [rcx], r14L ; jmp qword [rax+rcx*2-0x75] ; (1 found)
0x4bb471: add byte [rdi+0x00000001], bh ; call rax ; (4 found)
0x423edf: add byte [rdi+0x0D04AA05], al ; add byte [rbx+0x057F01F8], al ; ret ; (1 found)
0x4b93e2: add byte [rdi+rcx*2+0x48], dh ; add esp, 0x18 ; ret ; (1 found)
0x42a2d2: add byte [rdi+rcx+0x46], cl ; retn 0x02A8 ; (1 found)
0x4210da: add byte [rdi+rcx-0x42], cl ; retn 0x4A8D ; (1 found)
0x4ae73f: add byte [rdi+rcx-0x43], cl ; retn 0x8949 ; (1 found)
0x4ac1ae: add byte [rdi], cl ; adc  [rax+0x00000300], eax ; ret ; (1 found)
0x4519aa: add byte [rdi], cl ; adc  [rax+rdx-0x10], eax ; ret ; (1 found)
0x40306f: add byte [rdi], cl ; lahf ; retn 0x3145 ; (1 found)
0x49df6a: add byte [rdi], cl ; mov dh, 0xF3 ; call rbp ; (1 found)
0x43477f: add byte [rdi], cl ; mov esp, 0xF80148C0 ; ret ; (3 found)
0x4935d8: add byte [rdi], cl ; retn 0x8B48 ; (1 found)
0x4186f1: add byte [rdi], cl ; retn 0xC085 ; (2 found)
0x45ca19: add byte [rdi], cl ; retn 0xC801 ; (1 found)
0x41862e: add byte [rdi], cl ; test byte [rdi-0x09FFFFDF], ah ; ret ; (1 found)
0x418b04: add byte [rdi], cl ; xchg  [0xFFFFFFFF89418B21], eax ; retn 0xC083 ; (1 found)
0x4815b5: add byte [rdi], cl ; xchg eax, ebp ; retn 0x0941 ; (1 found)
0x465911: add byte [rdi], cl ; xchg eax, ebp ; retn 0x8348 ; (1 found)
0x46604d: add byte [rdi], cl ; xchg eax, ebp ; retn 0x8D48 ; (1 found)
0x45bbb3: add byte [rdi], cl ; xchg eax, ebp ; retn 0xF748 ; (1 found)
0x459935: add byte [rdi], cl ; xchg eax, esi ; retn 0xB60F ; (1 found)
0x4b76ea: add byte [rdi], cl ; xchg eax, esp ; retn 0x2044 ; (1 found)
0x4b7f54: add byte [rdi], cl ; xchg eax, esp ; retn 0x8441 ; (1 found)
0x46602c: add byte [rdi], cl ; xchg eax, esp ; retn 0x8D48 ; (2 found)
0x4af799: add byte [rdi], cl ; xchg eax, esp ; retn 0xDE89 ; (1 found)
0x420a69: add byte [rdx+0x00000001], bh ; mov rdi, rbx ; call qword [r12+0x48] ; (1 found)
0x41de16: add byte [rdx+0x00000001], bh ; mov rdi, rbx ; call qword [rbp+0x00000080] ; (1 found)
0x44b4df: add byte [rdx+0x48028801], cl ; mov eax, edi ; ret ; (1 found)
0x401910: add byte [rdx+rbx+0x48], dh ; mov edi,  [rsp+0x08] ; call qword [rsp+0x00] ; (1 found)
0x45f195: add byte [rdx+rcx+0x48], dh ; lea edi,  [rsp+0x20] ; call 0x00000000 ; (1 found)
0x4ad60b: add byte [rdx+rdx-0x7D], dh ; retn 0x4901 ; (1 found)
0x4249de: add byte [rsi+0x00000080], bh ; mov eax, 0x000000CA ; syscall ; (1 found)
0x4ac2d1: add byte [rsi+0x00000080], bh ; mov eax, r9d ; syscall ; (2 found)
0x424a9b: add byte [rsi+0x00000081], bh ; mov eax, 0x000000CA ; syscall ; (1 found)
0x42571c: add byte [rsi+0x01], dh ; ret ; (3 found)
0x44fecb: add byte [rsi+0x0F], ah ; cmp byte [rax], al ; retn 0x0F66 ; (1 found)
0x4a3cdc: add byte [rsi+0x0F], ah ; insb ; ret ; (1 found)
0x4246f1: add byte [rsi+0x0F], ah ; insb ; retn 0x0F41 ; (2 found)
0x403d40: add byte [rsi+0x0F], ah ; outsb ; ret ; (2 found)
0x4859b1: add byte [rsi+0x0F], ah ; outsb ; retn 0x0F66 ; (1 found)
0x46928b: add byte [rsi+0x0F], ah ; outsb ; retn 0x4166 ; (1 found)
0x4847a2: add byte [rsi+0x0F], ah ; outsd ; retn 0x0F66 ; (1 found)
0x494964: add byte [rsi+0x0F], ah ; xlatb ; retn 0xC085 ; (2 found)
0x45cecf: add byte [rsi+0x0F], bl ; retn 0x2949 ; (1 found)
0x46388f: add byte [rsi+rbx+0x48], dh ; lea eax,  [0x00000000004F8BE8] ; ret ; (1 found)
0x4926d7: add byte [rsi+rdi-0x77], dh ; retn 0x48E9 ; (1 found)
0x49102f: add byte [rsi-0x00000001], bh ; call qword [rax+0x18] ; (1 found)
0x42019a: add byte [rsi-0x00000001], bh ; mov rdi, rbp ; call qword [r14+0x18] ; (1 found)
0x422251: add byte [rsi-0x00000001], bh ; mov rdi, rbp ; call qword [rbx+0x18] ; (2 found)
0x422a31: add byte [rsi-0x00000001], bh ; mov rdi, rbx ; call qword [rbp+0x18] ; (1 found)
0x423338: add byte [rsi-0x00000001], bh ; mov rdi, rbx ; call qword [rdx+0x18] ; (1 found)
0x47467d: add byte [rsi-0x70], ah ; ret ; (1 found)
0x49e42d: add byte [rsi-0x70], ah ; xor eax, eax ; ret ; (1 found)
0x49e8ad: add byte [rsi-0x70], ah ; xor rax, rax ; ret ; (1 found)
0x41b11e: add ch, bl ; retn 0x05B8 ; (1 found)
0x4841a8: add cl, byte [r8-0x73] ; add ecx,  [rcx+0x39] ; ret ; (1 found)
0x44b507: add cl, byte [r8-0x76B7FDBE] ; clc ; ret ; (1 found)
0x427d65: add cl, byte [rax+0x0F] ; retn 0x8B48 ; (1 found)
0x4a097f: add cl, byte [rax+0x0F] ; scasd ; ret ; (1 found)
0x41d175: add cl, byte [rax+0x0F] ; scasd ; retn 0x2948 ; (1 found)
0x41d32c: add cl, byte [rax+0x0F] ; scasd ; retn 0xF748 ; (1 found)
0x48b301: add cl, byte [rax+0x29] ; retn 0x0F48 ; (2 found)
0x46c8db: add cl, byte [rax+0x39] ; ret ; (5 found)
0x4a6fed: add cl, byte [rax+0x39] ; retn 0x860F ; (1 found)
0x45fe16: add cl, byte [rax+0x39] ; ror byte [rax+0x0F], 1 ; retn 0x0DEB ; (1 found)
0x484187: add cl, byte [rax+0x428D4801] ; add  [rcx+0x39], ecx ; ret ; (1 found)
0x4841a5: add cl, byte [rax-0x72B7FDBF] ; add ecx,  [rcx+0x39] ; ret ; (2 found)
0x4841a9: add cl, byte [rax-0x73] ; add ecx,  [rcx+0x39] ; ret ; (1 found)
0x44b508: add cl, byte [rax-0x76B7FDBE] ; clc ; ret ; (1 found)
0x44b475: add cl, byte [rax-0x77] ; clc ; ret ; (6 found)
0x4596cb: add cl, byte [rax-0x77] ; ret ; (1 found)
0x46db23: add cl, byte [rax-0x77] ; retn 0x840F ; (1 found)
0x414f85: add cl, byte [rax-0x7D] ; ret ; (2 found)
0x406e45: add cl, byte [rax-0x7D] ; retn 0x0F01 ; (1 found)
0x42ca4c: add cl, byte [rax-0x7D] ; retn 0x4802 ; (3 found)
0x449cc0: add cl, byte [rax-0x7D] ; retn 0x4808 ; (8 found)
0x40136f: add cl, byte [rax-0x7D] ; retn 0x4810 ; (6 found)
0x46a0b9: add cl, byte [rax-0x7D] ; retn 0x4902 ; (1 found)
0x41a2c2: add cl, byte [rax-0x7D] ; retn 0x8301 ; (3 found)
0x41985b: add cl, byte [rax-0x7D] ; retn 0x8302 ; (2 found)
0x48eb01: add cl, byte [rax-0x7D] ; retn 0x8304 ; (1 found)
0x449d23: add cl, byte [rax-0x7D] ; retn 0xE908 ; (2 found)
0x43d862: add cl, byte [rbx+0x0257890E] ; mov  [rdi], ecx ; ret ; (2 found)
0x44cd25: add cl, byte [rbx+0x42890541] ; add eax, 0x08428D48 ; ret ; (1 found)
0x461144: add cl, byte [rbx+0x750C2444] ; retn 0xD8F7 ; (1 found)
0x48419c: add cl, byte [rcx+0x39] ; ret ; (2 found)
0x4176af: add cl, byte [rcx-0x0008977B] ; jmp qword [rsi+0x2E] ; (1 found)
0x45ab43: add cl, byte [rdi+rcx-0x51] ; ret ; (1 found)
0x45050a: add cl, byte [rdi] ; adc  [rcx], eax ; ret ; (1 found)
0x4b5f44: add cl, ch ; imul esi, ebp, 0xFF ; jmp qword [rsi+0x0F] ; (1 found)
0x413bf3: add cl, ch ; jmp qword [rbx-0x76BB0001] ; (1 found)
0x423712: add cl, ch ; ret ; (2 found)
0x47bce9: add cl, ch ; retn 0xFFEE ; (1 found)
0x4abe09: add cl, ch ; retn 0xFFEF ; (1 found)
0x4a4896: add cl, ch ; retn 0xFFF2 ; (1 found)
0x46e7f3: add cl, ch ; retn 0xFFF8 ; (1 found)
0x417298: add cl, ch ; retn 0xFFFC ; (2 found)
0x4b7c38: add cl, ch ; sal ch, 0xFF ; jmp qword [rsi-0x70] ; (1 found)
0x4a33e8: add cl, ch ; sar ebp, 0xFFFFFFFF ; jmp qword [rsi-0x70] ; (1 found)
0x41177d: add cl, ch ; stosd ; ret ; (1 found)
0x4022ad: add cl, cl ; ret ; (1 found)
0x42103b: add dh, bh ; dec  [rax-0x77] ; ret ; (1 found)
0x43da13: add dh, bl ; movq qword [rdi], mm1 ; ret ; (2 found)
0x490ef1: add dh, byte [rbp+0x74] ; mov rax, qword [rax+0x000000E0] ; call qword [rax+0x68] ; (1 found)
0x455ec8: add dh, byte [rbp-0x72] ; add rax, rdx ; ret ; (1 found)
0x42cd86: add dh, byte [rdi+rax*2-0x0A] ; retn 0x7520 ; (3 found)
0x428f1e: add dh, byte [rsp-0x77] ; retn 0xB48B ; (1 found)
0x41861f: add dh, dh ; ret ; (3 found)
0x4849a7: add dh, dh ; retn 0x0F01 ; (1 found)
0x46b947: add dh, dh ; retn 0x0F02 ; (1 found)
0x4286e3: add dh, dh ; retn 0x0F0F ; (2 found)
0x404b9b: add dh, dh ; retn 0x0F20 ; (1 found)
0x484b27: add dh, dh ; retn 0x0F50 ; (2 found)
0x42b0de: add dh, dh ; retn 0x7402 ; (3 found)
0x465be1: add dh, dh ; retn 0x7404 ; (2 found)
0x41ecdf: add dh, dh ; retn 0x7420 ; (6 found)
0x44df77: add dh, dh ; retn 0x7501 ; (3 found)
0x425326: add dh, dh ; retn 0x7502 ; (2 found)
0x41b018: add dh, dh ; retn 0x7504 ; (2 found)
0x44df49: add dh, dh ; retn 0x7510 ; (1 found)
0x44df56: add dh, dh ; retn 0x7520 ; (1 found)
0x44df63: add dh, dh ; retn 0x7540 ; (1 found)
0x4059dd: add eax,  [0x00000000] ; ret ; (4 found)
0x45f28c: add eax,  [gs:rax] ; add byte [rax-0x39], cl ; ret ; (1 found)
0x45ab56: add eax,  [r13+0x0F] ; ret ; (1 found)
0x4a3ac8: add eax,  [rax] ; add byte [0xF641E589+rcx*2], al ; ret ; (1 found)
0x492d10: add eax,  [rax] ; add byte [rax+0x00000001], bh ; ret ; (1 found)
0x4b335b: add eax,  [rax] ; add byte [rax+0x01], cl ; ret ; (1 found)
0x4a443b: add eax,  [rax] ; add byte [rax+0x01], cl ; retn 0xBA41 ; (1 found)
0x41653f: add eax,  [rax] ; add byte [rax-0x007F], cl ; ret ; (2 found)
0x45f28d: add eax,  [rax] ; add byte [rax-0x39], cl ; ret ; (1 found)
0x4b3eb3: add eax,  [rax] ; add byte [rax-0x39], cl ; retn 0x0790 ; (1 found)
0x4811da: add eax,  [rax] ; add byte [rax-0x39], cl ; retn 0xFFFF ; (1 found)
0x4783ab: add eax,  [rax] ; add byte [rax-0x48], cl ; retn 0xFFFF ; (1 found)
0x467fbd: add eax,  [rax] ; add byte [rax-0x77], cl ; ret ; (1 found)
0x433cd7: add eax,  [rax] ; add byte [rax-0x7D], cl ; retn 0x4910 ; (3 found)
0x48f49c: add eax,  [rax] ; add byte [rax-0x7D], cl ; retn 0x8904 ; (1 found)
0x446861: add eax,  [rax] ; add byte [rax-0x7D], cl ; retn 0xE910 ; (3 found)
0x433d05: add eax,  [rax] ; add byte [rax-0x7D], cl ; retn 0xEB10 ; (1 found)
0x49ed93: add eax,  [rax] ; add byte [rax], al ; ret ; (1 found)
0x460861: add eax,  [rax] ; add byte [rax], al ; syscall ; (3 found)
0x403a92: add eax,  [rax] ; add byte [rbx-0x50F0FE3E], al ; retn 0xEBE9 ; (1 found)
0x46f1af: add eax,  [rax] ; add byte [rcx+0x3948FC56], cl ; ret ; (1 found)
0x40de6f: add eax,  [rax] ; add byte [rcx-0x39], cl ; retn 0xFFA0 ; (2 found)
0x4ad609: add eax,  [rax] ; add byte [rdx+rdx-0x7D], dh ; retn 0x4901 ; (1 found)
0x4a4894: add eax,  [rax] ; add cl, ch ; retn 0xFFF2 ; (1 found)
0x46e7f1: add eax,  [rax] ; add cl, ch ; retn 0xFFF8 ; (1 found)
0x4287b8: add eax,  [rax] ; add dh, dh ; retn 0x0F0F ; (1 found)
0x465bd3: add eax,  [rax] ; add dh, dh ; retn 0x7402 ; (2 found)
0x425ac7: add eax,  [rax] ; nop  [rax+0x00000000] ; ret ; (1 found)
0x45ab57: add eax,  [rbp+0x0F] ; ret ; (1 found)
0x4abd93: add eax,  [rbp-0x00000098] ; mov qword [rbp-0x00000088], r9 ; call rax ; (1 found)
0x41b37d: add eax,  [rbp-0x77] ; retn 0x8341 ; (2 found)
0x4b3a4c: add eax,  [rbx-0x6BF0FE02] ; retn 0xF883 ; (1 found)
0x46b4d8: add eax,  [rcx+0x0F] ; xchg eax, ebp ; retn 0x8D47 ; (1 found)
0x4670f9: add eax,  [rcx+0x5C] ; shl eax, cl ; ret ; (1 found)
0x4634d9: add eax,  [rcx+rdx] ; ret ; (1 found)
0x4aa626: add eax,  [rsp+0x00] ; call rax ; (1 found)
0x4aeec4: add eax, 0x00000067 ; cmovne rax, rdx ; ret ; (1 found)
0x47553a: add eax, 0x00000200 ; mov qword [fs:rdx], rax ; ret ; (1 found)
0x49de06: add eax, 0x00000295 ; cmove rax, rdx ; ret ; (1 found)
0x493f16: add eax, 0x00000875 ; cmove rax, rdx ; ret ; (1 found)
0x49dd1f: add eax, 0x00000A0C ; cmove rax, rdx ; ret ; (1 found)
0x49de23: add eax, 0x000021D8 ; cmove rax, rdx ; ret ; (1 found)
0x42d276: add eax, 0x00007325 ; cmove rax, rdx ; ret ; (1 found)
0x493f33: add eax, 0x00009968 ; cmove rax, rdx ; ret ; (1 found)
0x42d2ef: add eax, 0x0001B25C ; cmove rax, rdx ; ret ; (1 found)
0x42c45f: add eax, 0x0001C78C ; cmove rax, rdx ; ret ; (1 found)
0x42c2df: add eax, 0x0001CDDC ; cmove rax, rdx ; ret ; (1 found)
0x42c34f: add eax, 0x0001CF0C ; cmove rax, rdx ; ret ; (1 found)
0x4b923f: add eax, 0x0001D724 ; divss xmm0,  [0x00000000004DDEC0] ; ret ; (1 found)
0x42cc74: add eax, 0x00022CB7 ; cmove rax, rdx ; ret ; (1 found)
0x42d1cc: add eax, 0x000231AF ; cmove rax, rdx ; ret ; (1 found)
0x42cfec: add eax, 0x0002334F ; cmove rax, rdx ; ret ; (1 found)
0x42cddc: add eax, 0x0002359F ; cmove rax, rdx ; ret ; (1 found)
0x42d20c: add eax, 0x0002376F ; cmove rax, rdx ; ret ; (1 found)
0x42d02c: add eax, 0x0002391F ; cmove rax, rdx ; ret ; (1 found)
0x42ce1c: add eax, 0x00023B5F ; cmove rax, rdx ; ret ; (1 found)
0x42c1c4: add eax, 0x00023C07 ; cmovne rax, rdx ; ret ; (1 found)
0x42d1b4: add eax, 0x00023F47 ; cmove rax, rdx ; ret ; (1 found)
0x42cfd4: add eax, 0x000240F7 ; cmove rax, rdx ; ret ; (1 found)
0x42cdc4: add eax, 0x00024337 ; cmove rax, rdx ; ret ; (1 found)
0x42ce9b: add eax, 0x00024A60 ; cmovne rax, rdx ; ret ; (1 found)
0x4b9247: add eax, 0x00024C74 ; ret ; (1 found)
0x42ce7d: add eax, 0x00024C7E ; cmove rax, rdx ; ret ; (1 found)
0x42d152: add eax, 0x000251A9 ; cmove rax, rdx ; ret ; (1 found)
0x42cf72: add eax, 0x00025359 ; cmove rax, rdx ; ret ; (1 found)
0x42cd62: add eax, 0x00025599 ; cmove rax, rdx ; ret ; (1 found)
0x42ceeb: add eax, 0x00025B90 ; cmove rax, rdx ; ret ; (1 found)
0x42d1ec: add eax, 0x00027ACF ; cmove rax, rdx ; ret ; (1 found)
0x42d00c: add eax, 0x00027C7F ; cmove rax, rdx ; ret ; (1 found)
0x42cdfc: add eax, 0x00027EBF ; cmove rax, rdx ; ret ; (1 found)
0x42cf17: add eax, 0x000285E4 ; cmove rax, rdx ; ret ; (1 found)
0x42d293: add eax, 0x0002A328 ; cmove rax, rdx ; ret ; (1 found)
0x4b2c04: add eax, 0x00046087 ; add rsp, 0x18 ; ret ; (1 found)
0x4af335: add eax, 0x000498E6 ; ret ; (1 found)
0x4a82a2: add eax, 0x00050F71 ; add rsp, 0x08 ; ret ; (1 found)
0x49dcb2: add eax, 0x0005B219 ; ret ; (1 found)
0x49dca2: add eax, 0x0005B221 ; ret ; (1 found)
0x49dc92: add eax, 0x0005B229 ; ret ; (1 found)
0x49dc82: add eax, 0x0005B231 ; ret ; (1 found)
0x49dc72: add eax, 0x0005B239 ; ret ; (1 found)
0x49dc62: add eax, 0x0005B241 ; ret ; (1 found)
0x49dc52: add eax, 0x0005B249 ; ret ; (1 found)
0x49dc42: add eax, 0x0005B251 ; ret ; (1 found)
0x49dc32: add eax, 0x0005B259 ; ret ; (1 found)
0x49dc22: add eax, 0x0005B261 ; ret ; (1 found)
0x49dc12: add eax, 0x0005B269 ; ret ; (1 found)
0x49dc0a: add eax, 0x0005B2C9 ; ret ; (1 found)
0x493693: add eax, 0x0005F550 ; add rsp, 0x08 ; ret ; (1 found)
0x492249: add eax, 0x000609A2 ; ret ; (1 found)
0x492238: add eax, 0x000609A3 ; ret ; (1 found)
0x491f18: add eax, 0x00060CBF ; ret ; (1 found)
0x491f08: add eax, 0x00060CCB ; ret ; (1 found)
0x491ef8: add eax, 0x00060CD7 ; ret ; (1 found)
0x491ee8: add eax, 0x00060CE3 ; ret ; (1 found)
0x491f3d: add eax, 0x0006248E ; ret ; (1 found)
0x472336: add eax, 0x00086C6D ; ret ; (1 found)
0x46718b: add eax, 0x000898C0 ; pop rbx ; ret ; (1 found)
0x466456: add eax, 0x0008BF25 ; ret ; (1 found)
0x463bc0: add eax, 0x0008F973 ; mov qword [rsi], rax ; ret ; (1 found)
0x463b4f: add eax, 0x0008FA14 ; mov rax, r8 ; ret ; (1 found)
0x4686f6: add eax, 0x0009086D ; ret ; (1 found)
0x4686e6: add eax, 0x00090875 ; ret ; (1 found)
0x46701f: add eax, 0x00091EBC ; ret ; (1 found)
0x466fee: add eax, 0x00091EED ; pop rbx ; ret ; (1 found)
0x466f8f: add eax, 0x00091F4C ; ret ; (1 found)
0x466f5e: add eax, 0x00091F7D ; pop rbx ; ret ; (1 found)
0x464584: add eax, 0x000946D7 ; ret ; (1 found)
0x4638cc: add eax, 0x00095317 ; ret ; (1 found)
0x4638c5: add eax, 0x00095326 ; lea rax, qword [0x00000000004F8BE8] ; ret ; (1 found)
0x463894: add eax, 0x0009534F ; ret ; (1 found)
0x42d171: add eax, 0x000CBBB6 ; add dh, byte [rdi+rax*2-0x0A] ; retn 0x7520 ; (1 found)
0x42cf91: add eax, 0x000CBD96 ; add dh, byte [rdi+rax*2-0x0A] ; retn 0x7520 ; (1 found)
0x4259c4: add eax, 0x000CBEA7 ; ret ; (1 found)
0x4259e3: add eax, 0x000CBEB8 ; ret ; (1 found)
0x4259a4: add eax, 0x000CBEBF ; ret ; (1 found)
0x425984: add eax, 0x000CBED7 ; ret ; (1 found)
0x42cd81: add eax, 0x000CBFA6 ; add dh, byte [rdi+rax*2-0x0A] ; retn 0x7520 ; (1 found)
0x42577a: add eax, 0x000CC161 ; ret ; (1 found)
0x42570a: add eax, 0x000CC169 ; ret ; (1 found)
0x425763: add eax, 0x000CC170 ; ret ; (1 found)
0x4256fa: add eax, 0x000CC181 ; ret ; (1 found)
0x423e36: add eax, 0x000CD425 ; ret ; (1 found)
0x4259f9: add eax, 0x000D2A16 ; ret ; (1 found)
0x425908: add eax, 0x000D2B0B ; ret ; (1 found)
0x41ab53: add eax, 0x000D3368 ; mov rax, qword [rax+rdi*8] ; ret ; (1 found)
0x4022a9: add eax, 0x000EEF52 ; leave ; ret ; (1 found)
0x403449: add eax, 0x000F5892 ; pop rbx ; ret ; (1 found)
0x402fd6: add eax, 0x01 ; ret ; (2 found)
0x4b323c: add eax, 0x01480000 ; ret ; (1 found)
0x49ed38: add eax, 0x02 ; ret ; (1 found)
0x49ed51: add eax, 0x03 ; ret ; (1 found)
0x44cda9: add eax, 0x05428948 ; lea rax, qword [rdx+0x0C] ; ret ; (1 found)
0x44b599: add eax, 0x05428948 ; mov rax, rdi ; ret ; (1 found)
0x4bc3c4: add eax, 0x08 ; mov qword [r8], rdx ; ret ; (2 found)
0x44cd2a: add eax, 0x08428D48 ; ret ; (2 found)
0x45f0fa: add eax, 0x08C48348 ; ret ; (1 found)
0x44cdac: add eax, 0x0C428D48 ; ret ; (2 found)
0x44d89d: add eax, 0x0C478D48 ; ret ; (1 found)
0x43d8c3: add eax, 0x0F7F0FF3 ; ret ; (2 found)
0x46382e: add eax, 0x11148B48 ; mov qword [rax+0x08], rdx ; ret ; (1 found)
0x4748d9: add eax, 0x125EE800 ; stc ; jmp qword [rsi+0x66] ; (3 found)
0x45e6ad: add eax, 0x18C48348 ; ret ; (1 found)
0x483e83: add eax, 0x1CB6E800 ; clc ; jmp qword [rsi+0x0F] ; (1 found)
0x46149f: add eax, 0x28C48348 ; ret ; (2 found)
0x468cb1: add eax, 0x31F63100 ; jmp qword [rsi+0x0F] ; (1 found)
0x4b454a: add eax, 0x38C48348 ; ret ; (4 found)
0x46a330: add eax, 0x3D8D4800 ; call rsp ; (1 found)
0x468770: add eax, 0x3D8D4800 ; mov edx, 0xE80005E9 ; retn 0xF9D3 ; (1 found)
0x46cca5: add eax, 0x3D8D4800 ; retn 0x05AB ; (1 found)
0x479b4e: add eax, 0x3D8D4800 ; retn 0x05C9 ; (1 found)
0x468668: add eax, 0x3D8D4800 ; retn 0x05EA ; (1 found)
0x471c3a: add eax, 0x3EFFE800 ; stc ; jmp qword [rsi+0x2E] ; (1 found)
0x460732: add eax, 0x401F0FC3 ; add byte [rax-0x39], cl ; retn 0xFFA0 ; (4 found)
0x4a7389: add eax, 0x41C50149 ; call qword [rbp+0x68] ; (1 found)
0x44cd28: add eax, 0x48054289 ; lea eax,  [rdx+0x08] ; ret ; (1 found)
0x44b558: add eax, 0x48054289 ; mov eax, edi ; ret ; (1 found)
0x44d226: add eax, 0x480F8948 ; mov  [rdi+0x05], edx ; ret ; (1 found)
0x48115b: add eax, 0x49DEE800 ; clc ; jmp qword [rsi+0x66] ; (1 found)
0x470e83: add eax, 0x4CB6E800 ; stc ; jmp qword [rsi+0x0F] ; (1 found)
0x433af7: add eax, 0x83480000 ; retn 0x4910 ; (5 found)
0x4466c1: add eax, 0x83480000 ; retn 0xE910 ; (3 found)
0x433b25: add eax, 0x83480000 ; retn 0xEB10 ; (1 found)
0x418b07: add eax, 0x89000015 ; retn 0xC083 ; (1 found)
0x4736f3: add eax, 0x89480000 ; retn 0x294C ; (1 found)
0x4a6cba: add eax, 0x8B410000 ; add byte [r8-0x77], r9L ; retn 0x314C ; (1 found)
0x49dc0d: add eax, 0x8B48C300 ; add eax, 0x0005B269 ; ret ; (1 found)
0x47057e: add eax, 0x8D490000 ; add r9L, byte [r8+0x39] ; ret ; (1 found)
0x46cd37: add eax, 0x8E02E800 ; stc ; jmp qword [rsi-0x70] ; (1 found)
0x4a0975: add eax, 0x8F5CBA49 ; retn 0x28F5 ; (1 found)
0x47cacb: add eax, 0x906EE800 ; clc ; jmp qword [rsi+0x66] ; (1 found)
0x46b180: add eax, 0xA9B9E800 ; stc ; jmp qword [rsi+0x0F] ; (1 found)
0x46aa97: add eax, 0xB0A2E800 ; stc ; jmp qword [rsi-0x70] ; (1 found)
0x479e38: add eax, 0xBD01E800 ; clc ; call qword [rax+0x56415741] ; (1 found)
0x40ba78: add eax, 0xC0834800 ; adc byte [rcx+0x39], cl ; retn 0xEC75 ; (2 found)
0x4a8163: add eax, 0xC4834800 ; or byte [rbx+0x5D], bl ; ret ; (1 found)
0x4172eb: add eax, 0xC7480000 ; ret ; (1 found)
0x481276: add eax, 0xC7480000 ; retn 0xFFA0 ; (1 found)
0x468fac: add eax, 0xCB8DE800 ; stc ; jmp qword [rsi+0x66] ; (1 found)
0x468777: add eax, 0xD3C2E800 ; stc ; jmp qword [rsi-0x70] ; (1 found)
0x46866f: add eax, 0xD4CAE800 ; stc ; jmp qword [rsi+0x2E] ; (1 found)
0x46790b: add eax, 0xE22EE800 ; stc ; jmp qword [rsi+0x2E] ; (1 found)
0x45c16e: add eax, 0xE23D0348 ; ret ; (1 found)
0x47cfe1: add eax, 0xE9FFF848 ; add byte [rax-0x08], cl ; jmp qword [rsi+0x0F] ; (1 found)
0x476f28: add eax, 0xEC11E800 ; clc ; call qword [rax+0x56415741] ; (1 found)
0x4862ee: add eax, 0xEF834100 ; add  [rax+0x39], ecx ; ret ; (1 found)
0x4bec48: add eax, 0xF6B252E8 ; jmp qword [rsi+0x0F] ; (1 found)
0x45f84a: add eax, 0xFCA650E8 ; jmp qword [rsi+0x0F] ; (1 found)
0x49deac: add eax, 0xFFFB3D8F ; cmovne rax, rdx ; ret ; (1 found)
0x487308: add eax, eax ; mov eax, r8d ; ret ; (1 found)
0x4b974d: add eax, ebp ; jmp rax ; (1 found)
0x414e57: add eax, ebp ; ret ; (1 found)
0x4664dd: add eax, ebx ; jmp rax ; (1 found)
0x403148: add eax, ecx ; jmp rax ; (18 found)
0x434611: add eax, ecx ; ret ; (6 found)
0x44ff26: add eax, ecx ; sub rax, rdi ; ret ; (3 found)
0x43480e: add eax, ecx ; vzeroupper ; ret ; (5 found)
0x43460e: add eax, edi ; add rax, rcx ; ret ; (4 found)
0x4030a9: add eax, edi ; jmp rax ; (1 found)
0x434784: add eax, edi ; ret ; (20 found)
0x4347e0: add eax, edi ; vzeroupper ; ret ; (75 found)
0x40ddf9: add eax, edx ; jmp rax ; (22 found)
0x41ab8b: add eax, edx ; ret ; (3 found)
0x449256: add eax, edx ; sub rax, rdi ; ret ; (3 found)
0x448be0: add eax, edx ; vzeroupper ; ret ; (1 found)
0x403117: add eax, esi ; jmp rax ; (5 found)
0x4a738b: add ebp, eax ; call qword [r13+0x68] ; (1 found)
0x4aec0b: add ebp, edx ; xor eax, eax ; ret ; (1 found)
0x4b6a4e: add ebx,  [rax+0x5A] ; pop rbx ; ret ; (1 found)
0x46476c: add ebx, eax ; nop ; ret ; (1 found)
0x464cc1: add ebx, eax ; nop  [rax+rax+0x00] ; ret ; (1 found)
0x43da83: add ebx, esi ; movq qword [rdi], mm1 ; ret ; (2 found)
0x44b545: add ecx,  [r9-0x76B7FCBE] ; clc ; ret ; (1 found)
0x46c6c2: add ecx,  [rax+0x39] ; ret ; (4 found)
0x46f53d: add ecx,  [rax+0x39] ; retn 0x0876 ; (1 found)
0x46ca49: add ecx,  [rax+0x39] ; retn 0x1676 ; (1 found)
0x46d8f6: add ecx,  [rax+0x39] ; retn 0x1776 ; (3 found)
0x4b98ef: add ecx,  [rax+0x63] ; ret ; (1 found)
0x44b548: add ecx,  [rax-0x77] ; clc ; ret ; (2 found)
0x4b8727: add ecx,  [rax-0x77] ; ret ; (1 found)
0x48e8e1: add ecx,  [rax-0x7D] ; ret ; (2 found)
0x43d7f2: add ecx,  [rbx+0x0357890E] ; mov  [rdi], ecx ; ret ; (2 found)
0x4a69e2: add ecx,  [rcx+0x01] ; retn 0x8B48 ; (1 found)
0x44d804: add ecx,  [rcx+0x0357890F] ; lea rax, qword [rdi+0x06] ; ret ; (1 found)
0x44d1c4: add ecx,  [rcx+0x0357890F] ; ret ; (1 found)
0x4841ac: add ecx,  [rcx+0x39] ; ret ; (2 found)
0x4b6182: add ecx,  [rcx+rcx*4-0x1A] ; mov edi, ebp ; call rax ; (1 found)
0x44b546: add ecx,  [rcx-0x76B7FCBE] ; clc ; ret ; (1 found)
0x42523d: add ecx,  [rdi] ; xchg eax, ebp ; retn 0xC231 ; (1 found)
0x4777df: add ecx, ebp ; imul edi, esi, 0xC748FFFF ; retn 0xFFFF ; (4 found)
0x435a4f: add ecx, ebx ; jmp r9 ; (6 found)
0x474771: add ecx, edi ; jmp rcx ; (1 found)
0x4164d4: add ecx, edx ; jmp rcx ; (2 found)
0x4814eb: add edi, eax ; jmp qword [rsi-0x70] ; (1 found)
0x4bed00: add edi, ebp ; call r12 ; (1 found)
0x4593c6: add edi, ebp ; ret ; (1 found)
0x457196: add edi, ebx ; ret ; (2 found)
0x435a4c: add edi, edx ; add r9, r11 ; jmp r9 ; (2 found)
0x40ba18: add edi, esi ; call rax ; (1 found)
0x4593d6: add edi, esi ; ret ; (1 found)
0x4593b6: add edi, esp ; ret ; (1 found)
0x457195: add edi, r11d ; ret ; (2 found)
0x4593b5: add edi, r12d ; ret ; (1 found)
0x4593c5: add edi, r13d ; ret ; (1 found)
0x4593d5: add edi, r14d ; ret ; (1 found)
0x42ccb9: add edx,  [0x000000000F8ACCC1] ; retn 0x66C3 ; (1 found)
0x4b05e5: add edx,  [rax+0x10] ; mov qword [rsi+0x18], rdx ; ret ; (1 found)
0x4bac8c: add edx, eax ; jmp rdx ; (1 found)
0x40b07d: add edx, ebx ; jmp r10 ; (1 found)
0x4054b3: add edx, ecx ; jmp rdx ; (4 found)
0x45c7a3: add edx, edi ; jmp rdx ; (1 found)
0x40ada7: add edx, esi ; jmp rdx ; (4 found)
0x416458: add edx, esp ; call qword [r10+rax*8] ; (2 found)
0x428f05: add esi,  [rbp+rdi-0x77] ; retn 0xB48B ; (1 found)
0x472b2e: add esi,  [rdi+rax+0x5B] ; ret ; (1 found)
0x43d9a3: add esi, ebx ; movq qword [rdi], mm1 ; ret ; (2 found)
0x45031e: add esi, ebx ; movsb ; ret ; (1 found)
0x48f2db: add esi, edi ; jmp rsi ; (1 found)
0x4055af: add esp, 0x00000098 ; ret ; (2 found)
0x40d41d: add esp, 0x000000D8 ; ret ; (10 found)
0x44fe6d: add esp, 0x00000100 ; sub rax, rdx ; ret ; (2 found)
0x40b6e8: add esp, 0x00000148 ; ret ; (2 found)
0x462acc: add esp, 0x00001018 ; ret ; (1 found)
0x401017: add esp, 0x08 ; ret ; (27 found)
0x45a27a: add esp, 0x10 ; pop rbp ; ret ; (3 found)
0x4220e6: add esp, 0x10 ; pop rbx ; jmp rax ; (2 found)
0x4646b7: add esp, 0x10 ; pop rbx ; ret ; (3 found)
0x4ace29: add esp, 0x18 ; jmp r11 ; (3 found)
0x45e6af: add esp, 0x18 ; ret ; (7 found)
0x422882: add esp, 0x20 ; pop rbx ; jmp rax ; (3 found)
0x458056: add esp, 0x20 ; pop rbx ; ret ; (2 found)
0x4602be: add esp, 0x28 ; ret ; (9 found)
0x4ac717: add esp, 0x30 ; jmp r11 ; (3 found)
0x4ac805: add esp, 0x30 ; ret ; (3 found)
0x4841ff: add esp, 0x38 ; ret ; (9 found)
0x461265: add esp, 0x58 ; ret ; (7 found)
0x4607ad: add esp, 0x68 ; ret ; (3 found)
0x460517: add esp, 0x78 ; ret ; (1 found)
0x49e017: add qword [rbp+rcx*4+0x4C], rcx ; and al, 0x38 ; call rbx ; (1 found)
0x40b07c: add r10, r11 ; jmp r10 ; (1 found)
0x43da82: add r11d, r14d ; movq qword [rdi], mm1 ; ret ; (2 found)
0x4a738a: add r13, rax ; call qword [r13+0x68] ; (1 found)
0x43da12: add r14L, r11L ; movq qword [rdi], mm1 ; ret ; (2 found)
0x43d9a2: add r14d, r11d ; movq qword [rdi], mm1 ; ret ; (2 found)
0x40ba17: add r15, r14 ; call rax ; (1 found)
0x49cd72: add r8, 0x0000000083480000 ; retn 0xE910 ; (1 found)
0x49b5b0: add r8, qword [r8] ; add byte [rax-0x7D], cl ; retn 0x4910 ; (1 found)
0x433d04: add r8, qword [rax] ; add byte [rax-0x7D], cl ; retn 0xEB10 ; (1 found)
0x42ced6: add r8L, byte [r8] ; cmove rax, rdx ; ret ; (1 found)
0x455b77: add r8L, byte [r8] ; lea rax, qword [rdi+0x02] ; ret ; (1 found)
0x456947: add r8L, byte [r8] ; ret ; (1 found)
0x449bd7: add r8L, byte [r8] ; vzeroupper ; ret ; (1 found)
0x42ce7f: add r8L, byte [rax] ; cmove rax, rdx ; ret ; (1 found)
0x4b9249: add r8L, byte [rax] ; ret ; (1 found)
0x44cda8: add r8d, 0x05428948 ; lea rax, qword [rdx+0x0C] ; ret ; (1 found)
0x44b598: add r8d, 0x05428948 ; mov rax, rdi ; ret ; (1 found)
0x43d8c2: add r8d, 0x0F7F0FF3 ; ret ; (2 found)
0x44cd27: add r8d, 0x48054289 ; lea eax,  [rdx+0x08] ; ret ; (1 found)
0x44b557: add r8d, 0x48054289 ; mov eax, edi ; ret ; (1 found)
0x487307: add r8d, eax ; mov eax, r8d ; ret ; (1 found)
0x449686: add r8d, ecx ; vzeroupper ; ret ; (1 found)
0x4494e8: add r8d, edi ; vzeroupper ; ret ; (1 found)
0x435a4e: add r9, r11 ; jmp r9 ; (6 found)
0x470583: add r9L, byte [r8+0x39] ; ret ; (1 found)
0x4b8726: add r9d,  [r8-0x77] ; ret ; (1 found)
0x475539: add rax, 0x0000000000000200 ; mov qword [fs:rdx], rax ; ret ; (1 found)
0x49ed40: add rax, 0x01 ; ret ; (1 found)
0x49ed37: add rax, 0x02 ; ret ; (1 found)
0x49ed50: add rax, 0x03 ; ret ; (1 found)
0x4bc3c3: add rax, 0x08 ; mov qword [r8], rdx ; ret ; (2 found)
0x4059dc: add rax, qword [0x00000000] ; ret ; (4 found)
0x4059db: add rax, qword [fs:0x00000000] ; ret ; (4 found)
0x4aa625: add rax, qword [r12+0x00] ; call rax ; (1 found)
0x4abd92: add rax, qword [rbp-0x00000098] ; mov qword [rbp-0x00000088], r9 ; call rax ; (1 found)
0x420e59: add rax, r10 ; jmp rax ; (6 found)
0x4b98cf: add rax, r14 ; jmp rax ; (2 found)
0x4b974c: add rax, rbp ; jmp rax ; (1 found)
0x4664dc: add rax, rbx ; jmp rax ; (1 found)
0x403147: add rax, rcx ; jmp rax ; (18 found)
0x434610: add rax, rcx ; ret ; (6 found)
0x44ff25: add rax, rcx ; sub rax, rdi ; ret ; (3 found)
0x43480d: add rax, rcx ; vzeroupper ; ret ; (1 found)
0x43460d: add rax, rdi ; add rax, rcx ; ret ; (4 found)
0x4030a8: add rax, rdi ; jmp rax ; (1 found)
0x434783: add rax, rdi ; ret ; (20 found)
0x4347df: add rax, rdi ; vzeroupper ; ret ; (77 found)
0x40ddf8: add rax, rdx ; jmp rax ; (16 found)
0x41ab8a: add rax, rdx ; ret ; (3 found)
0x449255: add rax, rdx ; sub rax, rdi ; ret ; (3 found)
0x448bdf: add rax, rdx ; vzeroupper ; ret ; (1 found)
0x403116: add rax, rsi ; jmp rax ; (3 found)
0x474770: add rcx, rdi ; jmp rcx ; (1 found)
0x4164d3: add rcx, rdx ; jmp rcx ; (2 found)
0x4becff: add rdi, rbp ; call r12 ; (1 found)
0x435a4b: add rdi, rdx ; add r9, r11 ; jmp r9 ; (2 found)
0x4b05e4: add rdx, qword [rax+0x10] ; mov qword [rsi+0x18], rdx ; ret ; (1 found)
0x416457: add rdx, r12 ; call qword [r10+rax*8] ; (2 found)
0x4ba2c4: add rdx, r14 ; jmp rdx ; (1 found)
0x4bac8b: add rdx, r8 ; jmp rdx ; (1 found)
0x4054b2: add rdx, rcx ; jmp rdx ; (4 found)
0x45c7a2: add rdx, rdi ; jmp rdx ; (1 found)
0x40ada6: add rdx, rsi ; jmp rdx ; (3 found)
0x48f2da: add rsi, rdi ; jmp rsi ; (1 found)
0x4055ae: add rsp, 0x0000000000000098 ; ret ; (2 found)
0x40d41c: add rsp, 0x00000000000000D8 ; ret ; (10 found)
0x44fe6c: add rsp, 0x0000000000000100 ; sub rax, rdx ; ret ; (2 found)
0x40b6e7: add rsp, 0x0000000000000148 ; ret ; (2 found)
0x462acb: add rsp, 0x0000000000001018 ; ret ; (1 found)
0x401016: add rsp, 0x08 ; ret ; (27 found)
0x45a279: add rsp, 0x10 ; pop rbp ; ret ; (3 found)
0x4220e5: add rsp, 0x10 ; pop rbx ; jmp rax ; (2 found)
0x4646b6: add rsp, 0x10 ; pop rbx ; ret ; (3 found)
0x4ace28: add rsp, 0x18 ; jmp r11 ; (3 found)
0x45e6ae: add rsp, 0x18 ; ret ; (9 found)
0x42287f: add rsp, 0x20 ; pop rbx ; jmp rax ; (5 found)
0x458055: add rsp, 0x20 ; pop rbx ; ret ; (2 found)
0x4602bd: add rsp, 0x28 ; ret ; (9 found)
0x4ac716: add rsp, 0x30 ; jmp r11 ; (3 found)
0x4ac804: add rsp, 0x30 ; ret ; (3 found)
0x4841fd: add rsp, 0x38 ; ret ; (10 found)
0x461263: add rsp, 0x58 ; ret ; (10 found)
0x4607ac: add rsp, 0x68 ; ret ; (4 found)
0x460516: add rsp, 0x78 ; ret ; (1 found)
0x4af154: add word [rdx+rax*2], 0x0001 ; ret ; (1 found)
0x4a980d: and  [rax-0x77], ecx ; retn 0x2548 ; (1 found)
0x49de25: and  [rax], eax ; add byte [rax+0x0F], cl ; retn 0x0FC3 ; (1 found)
0x418632: and  [rax], eax ; add dh, dh ; ret ; (1 found)
0x403d05: and  [rcx+0x09], eax ; retn 0x058B ; (1 found)
0x4349fe: and  [rcx-0x77], ecx ; ret ; (1 found)
0x449696: and  [rcx], eax ; enter 0xF8C5, 0x77 ; ret ; (1 found)
0x490ef6: and al, 0x00 ; add byte [rax], al ; call qword [rax+0x68] ; (1 found)
0x412104: and al, 0x00 ; add byte [rcx-0x39], cl ; retn 0xFFA0 ; (1 found)
0x461142: and al, 0x08 ; add cl, byte [rbx+0x750C2444] ; retn 0xD8F7 ; (1 found)
0x460643: and al, 0x08 ; add rsp, 0x28 ; ret ; (6 found)
0x401916: and al, 0x08 ; call qword [rsp+0x00] ; (1 found)
0x4032b5: and al, 0x08 ; call rax ; (4 found)
0x4606c6: and al, 0x08 ; mov eax, 0x00000001 ; syscall ; (1 found)
0x46080e: and al, 0x08 ; mov eax, 0x00000048 ; syscall ; (1 found)
0x476b76: and al, 0x08 ; mov eax, 0x0000013E ; syscall ; (1 found)
0x41d028: and al, 0x08 ; mov rdi, r15 ; call rax ; (2 found)
0x41f651: and al, 0x08 ; mov rdi, rbp ; call rax ; (2 found)
0x460626: and al, 0x08 ; xor eax, eax ; syscall ; (1 found)
0x4608a0: and al, 0x0C ; add rsp, 0x18 ; ret ; (2 found)
0x4632f4: and al, 0x0C ; add rsp, 0x28 ; ret ; (2 found)
0x4632d6: and al, 0x0C ; mov eax, 0x0000002B ; syscall ; (1 found)
0x4bb6a9: and al, 0x10 ; add rsp, 0x28 ; ret ; (3 found)
0x4706d8: and al, 0x10 ; call rax ; (2 found)
0x4609cc: and al, 0x10 ; mov eax, 0x0000004F ; syscall ; (1 found)
0x4653cb: and al, 0x10 ; mov rdi, qword [rsp+0x18] ; call rax ; (2 found)
0x46536e: and al, 0x10 ; mov rdi, qword [rsp+0x18] ; call rcx ; (2 found)
0x41fadf: and al, 0x10 ; mov rdi, rbp ; call qword [r13+0x00000090] ; (1 found)
0x41f494: and al, 0x10 ; mov rdi, rbp ; call qword [rax+0x00000090] ; (1 found)
0x461905: and al, 0x10 ; mov rdi, rbp ; call rax ; (2 found)
0x4bdb3c: and al, 0x10 ; mov rsi, qword [rbx+rcx*8+0x10] ; call rbp ; (2 found)
0x4578d9: and al, 0x18 ; call r13 ; (2 found)
0x4653d1: and al, 0x18 ; call rax ; (9 found)
0x457e75: and al, 0x18 ; call rbx ; (1 found)
0x465374: and al, 0x18 ; call rcx ; (1 found)
0x46057a: and al, 0x18 ; mov eax, 0x00000101 ; syscall ; (1 found)
0x4032b1: and al, 0x18 ; mov rax, qword [rsp+0x08] ; call rax ; (1 found)
0x467808: and al, 0x18 ; xor r8d, r8d ; call rbx ; (1 found)
0x45f19b: and al, 0x20 ; call 0x00000000 ; (2 found)
0x457aef: and al, 0x20 ; call rbx ; (4 found)
0x469fe3: and al, 0x28 ; call rax ; (6 found)
0x41e360: and al, 0x28 ; call rbp ; (4 found)
0x457d29: and al, 0x30 ; call rbx ; (2 found)
0x41ceea: and al, 0x30 ; mov rdi, r15 ; call qword [r14+0x00000090] ; (1 found)
0x4a0f39: and al, 0x38 ; call r12 ; (2 found)
0x471ef8: and al, 0x38 ; call r15 ; (1 found)
0x49e01b: and al, 0x38 ; call rbx ; (2 found)
0x472054: and al, 0x38 ; lea r8, qword [rsp+0x000000A0] ; call r15 ; (1 found)
0x471ef3: and al, 0x40 ; mov rdi, qword [rsp+0x38] ; call r15 ; (1 found)
0x4ace27: and al, 0x48 ; add esp, 0x18 ; jmp r11 ; (3 found)
0x4ac715: and al, 0x48 ; add esp, 0x30 ; jmp r11 ; (3 found)
0x4ac803: and al, 0x48 ; add esp, 0x30 ; ret ; (3 found)
0x4b8e48: and al, 0x48 ; add esp, 0x38 ; ret ; (1 found)
0x46cf2a: and al, 0x48 ; call r14 ; (1 found)
0x46250b: and al, 0x48 ; mov edi,  [rbp+0x00] ; call rbx ; (1 found)
0x4706d4: and al, 0x48 ; mov rax, qword [rsp+0x10] ; call rax ; (1 found)
0x46ef2b: and al, 0x48 ; mov rax, qword [rsp+0x18] ; call rax ; (1 found)
0x46df19: and al, 0x48 ; mov rax, qword [rsp+0x28] ; call rax ; (1 found)
0x46c231: and al, 0x50 ; call r13 ; (3 found)
0x46bbbb: and al, 0x50 ; mov rax, qword [rsp+0x18] ; call rax ; (1 found)
0x469fdf: and al, 0x50 ; mov rax, qword [rsp+0x28] ; call rax ; (2 found)
0x46cf25: and al, 0x50 ; mov rdi, qword [rsp+0x48] ; call r14 ; (1 found)
0x46a59f: and al, 0x58 ; mov rax, qword [rsp+0x18] ; call rax ; (2 found)
0x46c22c: and al, 0x58 ; mov rdi, qword [rsp+0x50] ; call r13 ; (3 found)
0x4aaccd: and al, 0x85 ; div byte [rbp+0x02] ; call rax ; (1 found)
0x4ab5d3: and al, 0x85 ; sal byte [rbp+0x02], cl ; call rax ; (1 found)
0x4bc236: and al, 0x89 ; and al, 0x08 ; call rax ; (1 found)
0x4abb78: and al, 0x89 ; retn 0x8348 ; (1 found)
0x428f20: and al, 0x89 ; retn 0xB48B ; (1 found)
0x4224fb: and al, 0x89 ; retn 0xC883 ; (1 found)
0x480e72: and al, 0xE8 ; ret ; (3 found)
0x421d88: and al, 0xE8 ; retn 0x002B ; (1 found)
0x480e6e: and al, 0xF0 ; fld tword [rsp-0x18] ; ret ; (1 found)
0x483fcc: and al, 0xF0 ; movdqa xmm0,  [rsp-0x18] ; ret ; (2 found)
0x40354c: and al, 0xF3 ; add  [rbp-0x77], ecx ; ret ; (2 found)
0x412051: and al, byte [rax] ; add byte [rcx-0x39], cl ; retn 0xFFA0 ; (1 found)
0x449d3a: and al, byte [rsp-0x00B7F68C] ; retn 0xC148 ; (2 found)
0x4b43ac: and bh, bh ; call qword [rax+0x50B78B48] ; (1 found)
0x49d7af: and bl, al ; xor eax, eax ; ret ; (4 found)
0x454a8c: and byte [gs:rsi], ah ; ret ; (1 found)
0x45c164: and byte [r11+rcx*4+0x34], r9L ; retn 0x0F41 ; (1 found)
0x4a022d: and byte [r15], r11L ; retn 0xC500 ; (1 found)
0x457700: and byte [r15], r15L ; retn 0xC500 ; (2 found)
0x451a21: and byte [r15], r9L ; adc  [rdi+0x30], eax ; ret ; (1 found)
0x41d465: and byte [r8+0x01], r9L ; ret ; (1 found)
0x41d466: and byte [rax+0x01], cl ; ret ; (1 found)
0x480e3e: and byte [rax+0x09], cl ; lock movq xmm0, xmm0 ; ret ; (1 found)
0x42989e: and byte [rax+0x39], cl ; retn 0x4473 ; (1 found)
0x41caa6: and byte [rax+0x39], cl ; retn 0x894C ; (1 found)
0x42cc92: and byte [rax+rcx-0x09], dh ; retn 0x0000 ; (1 found)
0x41f1d2: and byte [rax-0x00000001], bh ; pop rbx ; ret ; (1 found)
0x45e6f7: and byte [rax-0x39], cl ; retn 0xFFA0 ; (1 found)
0x467ccc: and byte [rax-0x77], cl ; ret ; (1 found)
0x427d5b: and byte [rax-0x77], cl ; retn 0x294C ; (1 found)
0x48ce76: and byte [rax], al ; add byte [rax], al ; jmp rdx ; (1 found)
0x4608e5: and byte [rax], al ; add byte [rax], al ; syscall ; (1 found)
0x455e78: and byte [rbp-0x22], dh ; lea rax, qword [rdi+rax+0x20] ; ret ; (1 found)
0x49fb27: and byte [rbp-0x25], dh ; lea rax, qword [rdi+rax*4+0x20] ; ret ; (1 found)
0x49f9a7: and byte [rbp-0x3A], dh ; lea rax, qword [rdi+rax*4+0x20] ; ret ; (1 found)
0x455ce8: and byte [rbp-0x3A], dh ; lea rax, qword [rdi+rax+0x20] ; ret ; (1 found)
0x428df2: and byte [rbp-0x77], cl ; retn 0x75E9 ; (2 found)
0x403e3c: and byte [rbx+0x050B04E0], al ; retn 0x0F4F ; (1 found)
0x4610f8: and byte [rbx+0x2A7409FE], al ; mov eax, 0x00000048 ; syscall ; (1 found)
0x40d8aa: and byte [rbx+0x5D], bl ; pop r12 ; ret ; (8 found)
0x45c165: and byte [rbx+rcx*4+0x34], cl ; retn 0x0F41 ; (1 found)
0x47f4a6: and byte [rcx+0x0FFFFFE2], al ; add byte [rcx], cl ; retn 0x9274 ; (1 found)
0x487e8c: and byte [rcx-0x77], cl ; retn 0xF748 ; (1 found)
0x45e835: and byte [rcx-0x7CB7BFBD], cl ; ret ; (1 found)
0x434e2d: and byte [rcx], ch ; enter 0xF8C5, 0x77 ; ret ; (1 found)
0x455889: and byte [rdi], bh ; ret ; (8 found)
0x455d50: and byte [rdi], bh ; retn 0x6200 ; (6 found)
0x455863: and byte [rdi], bh ; retn 0xC500 ; (10 found)
0x459523: and byte [rdi], bl ; ret ; (2 found)
0x459485: and byte [rdi], bl ; retn 0x6200 ; (4 found)
0x4a022e: and byte [rdi], bl ; retn 0xC500 ; (1 found)
0x451a22: and byte [rdi], cl ; adc  [rdi+0x30], eax ; ret ; (1 found)
0x41b9ff: and byte [rdi], cl ; test  [rdx-0x77000000], edi ; retn 0xE281 ; (1 found)
0x4b5969: and byte [rdi], cl ; xchg eax, ebp ; retn 0xC931 ; (1 found)
0x4576ab: and byte [rdx-0x5F], 0xC5 ; add bh, ch ; jmp qword [rsi+0x66] ; (1 found)
0x454a8d: and byte [rsi], ah ; ret ; (1 found)
0x454a7f: and byte [rsi], ah ; retn 0xFBC5 ; (1 found)
0x49211a: and cl, bl ; clc ; jmp qword [rsi-0x70] ; (1 found)
0x488bc8: and cl, ch ; sal ch, 0xFF ; jmp qword [rsi-0x70] ; (1 found)
0x490e24: and cl, ch ; ud0 edi, edi ; jmp qword [rsi+0x0F] ; (1 found)
0x45a8da: and eax,  [rbp+0x490F44DB] ; ret ; (1 found)
0x419eeb: and eax,  [rcx] ; add byte [rcx-0x77], cl ; retn 0x48E9 ; (1 found)
0x4059df: and eax, 0x00000000 ; ret ; (5 found)
0x491ecd: and eax, 0x00000010 ; mov byte [rax+0x00000972], 0x00 ; ret ; (1 found)
0x425668: and eax, 0x00000010 ; ret ; (1 found)
0x4b3b9c: and eax, 0x00000048 ; ret ; (1 found)
0x42497e: and eax, 0x000002F8 ; ret ; (2 found)
0x4256e1: and eax, 0x00000300 ; call 0x00000000 ; (2 found)
0x42b5c6: and eax, 0x01 ; cmovne rax, rdx ; ret ; (1 found)
0x491f39: and eax, 0x01 ; mov  [0x00000000004F43D0], eax ; ret ; (1 found)
0x47f668: and eax, 0x02 ; sub eax, 0x01 ; ret ; (1 found)
0x42c0e7: and eax, 0x48000029 ; cmovne eax, edx ; ret ; (1 found)
0x42d277: and eax, 0x48000073 ; cmove eax, edx ; ret ; (1 found)
0x4ab0f8: and eax, 0x8348DE74 ; ret ; (1 found)
0x41ec68: and ecx,  [0x0000000001B5EC6E] ; ret ; (1 found)
0x40f1d5: and ecx,  [rax-0x7D] ; ret ; (1 found)
0x45ac04: and ecx,  [rbp+0x63] ; retn 0x8D45 ; (1 found)
0x4b36a9: and ecx, 0x39447FFF ; ret ; (1 found)
0x407b79: and edx,  [rsi-0x7CB70001] ; ret ; (1 found)
0x4bf3e3: and edx, edi ; jmp qword [rsi+0x2E] ; (1 found)
0x492545: and esi, 0x00000080 ; syscall ; (1 found)
0x492d77: and esi, 0x00000080 ; xor sil, 0x81 ; syscall ; (1 found)
0x472b1b: and esi, esp ; clc ; call qword [rax-0x05E1F00D] ; (1 found)
0x41ec67: and r9, qword [0x0000000001B5EC6E] ; ret ; (1 found)
0x4556ab: bsf eax, eax ; add rax, rcx ; ret ; (4 found)
0x434780: bsf eax, eax ; add rax, rdi ; ret ; (27 found)
0x456131: bsf eax, eax ; add rax, rdx ; ret ; (2 found)
0x457160: bsf eax, eax ; lea eax,  [rcx+rax-0x00000081] ; ret ; (2 found)
0x4593d0: bsf eax, eax ; lea eax,  [rcx+rax-0x09] ; ret ; (2 found)
0x4593c0: bsf eax, eax ; lea eax,  [rcx+rax-0x11] ; ret ; (2 found)
0x4593b0: bsf eax, eax ; lea eax,  [rcx+rax-0x19] ; ret ; (2 found)
0x457190: bsf eax, eax ; lea eax,  [rcx+rax-0x21] ; ret ; (4 found)
0x457180: bsf eax, eax ; lea eax,  [rcx+rax-0x41] ; ret ; (2 found)
0x457170: bsf eax, eax ; lea eax,  [rcx+rax-0x61] ; ret ; (2 found)
0x434790: bsf eax, eax ; lea rax, qword [rax+rdi+0x10] ; ret ; (3 found)
0x4347a0: bsf eax, eax ; lea rax, qword [rax+rdi+0x20] ; ret ; (3 found)
0x434770: bsf eax, eax ; lea rax, qword [rax+rdi-0x10] ; ret ; (3 found)
0x49fde0: bsf eax, eax ; lea rax, qword [rdi+rax*4+0x00000080] ; ret ; (10 found)
0x4a0270: bsf eax, eax ; lea rax, qword [rdi+rax*4+0x000000A0] ; ret ; (2 found)
0x4a0280: bsf eax, eax ; lea rax, qword [rdi+rax*4+0x000000C0] ; ret ; (2 found)
0x4a0246: bsf eax, eax ; lea rax, qword [rdi+rax*4+0x000000E0] ; ret ; (2 found)
0x49fdb0: bsf eax, eax ; lea rax, qword [rdi+rax*4+0x20] ; ret ; (4 found)
0x49fdc0: bsf eax, eax ; lea rax, qword [rdi+rax*4+0x40] ; ret ; (8 found)
0x49fdd0: bsf eax, eax ; lea rax, qword [rdi+rax*4+0x60] ; ret ; (8 found)
0x49fd36: bsf eax, eax ; lea rax, qword [rdi+rax*4] ; ret ; (8 found)
0x4556f0: bsf eax, eax ; lea rax, qword [rdi+rax+0x00000080] ; ret ; (16 found)
0x49dae0: bsf eax, eax ; lea rax, qword [rdi+rax+0x000000A0] ; ret ; (2 found)
0x49daf0: bsf eax, eax ; lea rax, qword [rdi+rax+0x000000C0] ; ret ; (2 found)
0x49dac3: bsf eax, eax ; lea rax, qword [rdi+rax+0x000000E0] ; ret ; (2 found)
0x45952f: bsf eax, eax ; lea rax, qword [rdi+rax+0x10] ; ret ; (4 found)
0x4556c0: bsf eax, eax ; lea rax, qword [rdi+rax+0x20] ; ret ; (14 found)
0x434759: bsf eax, eax ; lea rax, qword [rdi+rax+0x30] ; ret ; (3 found)
0x4556d0: bsf eax, eax ; lea rax, qword [rdi+rax+0x40] ; ret ; (19 found)
0x4556e0: bsf eax, eax ; lea rax, qword [rdi+rax+0x60] ; ret ; (16 found)
0x448597: bsf eax, eax ; lea rax, qword [rdi+rax] ; ret ; (4 found)
0x456a2b: bsf eax, eax ; ret ; (18 found)
0x4494a9: bsf eax, eax ; vzeroupper ; ret ; (8 found)
0x4490fa: bsf eax, edx ; ret ; (6 found)
0x458ac8: bsf eax, edx ; shr rax, 0x02 ; ret ; (6 found)
0x456b22: bsf rax, rax ; add rax, rdi ; ret ; (4 found)
0x4560c7: bsf rax, rax ; lea rax, qword [rdi+rax+0x40] ; ret ; (6 found)
0x4486b0: bsf rax, rax ; lea rax, qword [rdi+rax] ; ret ; (1 found)
0x449142: bsf rax, rdx ; ret ; (5 found)
0x458ac7: bsf rax, rdx ; shr rax, 0x02 ; ret ; (5 found)
0x448c4b: bsr eax, eax ; add rax, rdi ; ret ; (1 found)
0x45752d: bsr eax, eax ; lea rax, qword [rdi+rax-0x20] ; ret ; (3 found)
0x448edb: bsr eax, esi ; add rax, rdi ; ret ; (1 found)
0x448de9: bsr esi, esi ; lea rax, qword [rcx+rsi] ; ret ; (1 found)
0x448ce5: bsr esi, esi ; lea rax, qword [rdi+rsi] ; ret ; (1 found)
0x448c4a: bsr rax, rax ; add rax, rdi ; ret ; (1 found)
0x448eda: bsr rax, rsi ; add rax, rdi ; ret ; (1 found)
0x448de6: bsr rsi, rsi ; lea rax, qword [rcx+rsi] ; ret ; (3 found)
0x448ce4: bsr rsi, rsi ; lea rax, qword [rdi+rsi] ; ret ; (1 found)
0x463766: bswap eax ; ret ; (1 found)
0x457151: bts eax, esi ; bsf eax, eax ; ret ; (2 found)
0x457150: bts rax, rsi ; bsf eax, eax ; ret ; (2 found)
0x404a67: call 0x00000000 ; (8 found)
0x41645a: call qword [r10+rax*8] ; (2 found)
0x420001: call qword [r12+0x00000080] ; (1 found)
0x420c99: call qword [r12+0x00000088] ; (1 found)
0x420453: call qword [r12+0x00000090] ; (2 found)
0x423a1e: call qword [r12+0x18] ; (1 found)
0x417717: call qword [r12+0x38] ; (2 found)
0x420a72: call qword [r12+0x48] ; (1 found)
0x41efbb: call qword [r12+0x70] ; (2 found)
0x41d2b4: call qword [r13+0x00000080] ; (1 found)
0x41fae4: call qword [r13+0x00000090] ; (1 found)
0x4157a6: call qword [r13+0x38] ; (8 found)
0x41fd09: call qword [r13+0x40] ; (1 found)
0x422c42: call qword [r13+0x60] ; (1 found)
0x4a738d: call qword [r13+0x68] ; (1 found)
0x41cfd5: call qword [r14+0x00000080] ; (3 found)
0x41ceef: call qword [r14+0x00000090] ; (2 found)
0x4201a3: call qword [r14+0x18] ; (4 found)
0x4914b1: call qword [r14+0x20] ; (1 found)
0x41aa2f: call qword [r14+0x38] ; (8 found)
0x4ae9ac: call qword [r14+0x48] ; (1 found)
0x420b5c: call qword [r14+0x78] ; (1 found)
0x404af9: call qword [r14+r15*8] ; (2 found)
0x41f6df: call qword [r15+0x00000080] ; (1 found)
0x41f0c1: call qword [r15+0x18] ; (1 found)
0x418be9: call qword [r15+0x38] ; (6 found)
0x41812a: call qword [r8+rcx*8-0x40] ; (2 found)
0x41f607: call qword [rax+0x00000080] ; (2 found)
0x41f499: call qword [rax+0x00000090] ; (1 found)
0x4a622e: call qword [rax+0x00002FBE] ; (1 found)
0x41213e: call qword [rax+0x00020025] ; (1 found)
0x49393e: call qword [rax+0x000BBC41] ; (1 found)
0x428b0e: call qword [rax+0x0020BD41] ; (1 found)
0x47487e: call qword [rax+0x009E3D48] ; (1 found)
0x49bcfe: call qword [rax+0x00EA8149] ; (13 found)
0x47434e: call qword [rax+0x01428D41] ; (1 found)
0x4b40de: call qword [rax+0x02C74864] ; (1 found)
0x485dee: call qword [rax+0x04003D66] ; (1 found)
0x46b51e: call qword [rax+0x05FA8341] ; (1 found)
0x46e0fe: call qword [rax+0x082444C7] ; (1 found)
0x48f82e: call qword [rax+0x084A8B44] ; (1 found)
0x4bcc4e: call qword [rax+0x084F8B4C] ; (1 found)
0x4ad61e: call qword [rax+0x08668B45] ; (1 found)
0x48ac3e: call qword [rax+0x087E8B48] ; (2 found)
0x485dde: call qword [rax+0x0C003D66] ; (1 found)
0x48eace: call qword [rax+0x0F09FF83] ; (1 found)
0x4804ee: call qword [rax+0x0F66C031] ; (1 found)
0x48b8ae: call qword [rax+0x0FD2854D] ; (1 found)
0x40267c: call qword [rax+0x0FF3C3C9] ; (2 found)
0x42abbe: call qword [rax+0x10C48348] ; (2 found)
0x42817e: call qword [rax+0x110D8B44] ; (1 found)
0x453d0e: call qword [rax+0x1789168B] ; (1 found)
0x4681fe: call qword [rax+0x18508B48] ; (1 found)
0x41cca0: call qword [rax+0x18] ; (2 found)
0x4871ae: call qword [rax+0x2085C748] ; (1 found)
0x480aee: call qword [rax+0x24048B48] ; (2 found)
0x4b426e: call qword [rax+0x243C8948] ; (1 found)
0x48646e: call qword [rax+0x24448B49] ; (1 found)
0x4a1f6e: call qword [rax+0x24548B48] ; (1 found)
0x4aa8de: call qword [rax+0x24548B49] ; (1 found)
0x41d59e: call qword [rax+0x24748948] ; (1 found)
0x419aae: call qword [rax+0x24848B48] ; (1 found)
0x4a3d6e: call qword [rax+0x28788B48] ; (1 found)
0x48c95e: call qword [rax+0x309D8944] ; (1 found)
0x4b95ee: call qword [rax+0x31C0894C] ; (1 found)
0x4a2eee: call qword [rax+0x344C8348] ; (1 found)
0x41621b: call qword [rax+0x38] ; (4 found)
0x4911ce: call qword [rax+0x40788B48] ; (1 found)
0x41833e: call qword [rax+0x409D894C] ; (1 found)
0x40ce8e: call qword [rax+0x41158B4C] ; (1 found)
0x42730e: call qword [rax+0x41C93145] ; (1 found)
0x4afc01: call qword [rax+0x44B84D8B] ; (1 found)
0x4884ee: call qword [rax+0x45B60F41] ; (1 found)
0x48f4be: call qword [rax+0x45F98949] ; (1 found)
0x47faae: call qword [rax+0x48068B48] ; (1 found)
0x4094ae: call qword [rax+0x480AB60F] ; (1 found)
0x48b64e: call qword [rax+0x4817048D] ; (1 found)
0x422a6e: call qword [rax+0x487B8B48] ; (1 found)
0x4860de: call qword [rax+0x48858B48] ; (1 found)
0x48c93e: call qword [rax+0x48BD8B48] ; (1 found)
0x4a88ee: call qword [rax+0x48C28948] ; (1 found)
0x4b855e: call qword [rax+0x48D8894C] ; (1 found)
0x47e63e: call qword [rax+0x48E0894C] ; (2 found)
0x49301b: call qword [rax+0x48] ; (2 found)
0x482a6e: call qword [rax+0x49F0894C] ; (1 found)
0x4680ae: call qword [rax+0x4C378B49] ; (1 found)
0x4077fe: call qword [rax+0x4CC03145] ; (2 found)
0x48beee: call qword [rax+0x4CD7894C] ; (1 found)
0x4b43ae: call qword [rax+0x50B78B48] ; (1 found)
0x42bb25: call qword [rax+0x521D8948] ; (1 found)
0x476f2e: call qword [rax+0x56415741] ; (4 found)
0x45393e: call qword [rax+0x660EB70F] ; (1 found)
0x421c8e: call qword [rax+0x68538B48] ; (1 found)
0x490efb: call qword [rax+0x68] ; (1 found)
0x46632e: call qword [rax+0x6DE9C031] ; (1 found)
0x45424e: call qword [rax+0x6F7EA1C4] ; (1 found)
0x41c932: call qword [rax+0x70] ; (2 found)
0x4524fe: call qword [rax+0x74C98548] ; (1 found)
0x4253be: call qword [rax+0x74E48545] ; (1 found)
0x46296e: call qword [rax+0x74F5394C] ; (1 found)
0x4bc36b: call qword [rax+0x74] ; (2 found)
0x407dbe: call qword [rax+0x7880C931] ; (1 found)
0x420299: call qword [rax+0x78] ; (1 found)
0x41812b: call qword [rax+rcx*8-0x40] ; (2 found)
0x490afe: call qword [rax-0x00000048] ; (2 found)
0x4afe58: call qword [rax-0x00043517] ; (1 found)
0x4a4752: call qword [rax-0x00083817] ; (1 found)
0x41f8fe: call qword [rax-0x000CA418] ; (1 found)
0x41fd3e: call qword [rax-0x0010E418] ; (1 found)
0x420d7e: call qword [rax-0x00212418] ; (1 found)
0x4a3e5e: call qword [rax-0x01077A3A] ; (1 found)
0x4b554e: call qword [rax-0x04AF7A77] ; (1 found)
0x40555e: call qword [rax-0x05E1F00D] ; (28 found)
0x4027e6: call qword [rax-0x07A274B8] ; (1 found)
0x42be2e: call qword [rax-0x0876B370] ; (1 found)
0x41741e: call qword [rax-0x089F6209] ; (1 found)
0x488c7e: call qword [rax-0x0F3F38B8] ; (1 found)
0x461b9e: call qword [rax-0x160B76B3] ; (1 found)
0x45ed0e: call qword [rax-0x1612CEBB] ; (1 found)
0x49258e: call qword [rax-0x162276BF] ; (1 found)
0x4b9c6e: call qword [rax-0x162876B8] ; (1 found)
0x4bd8ce: call qword [rax-0x163E76B8] ; (1 found)
0x42a68e: call qword [rax-0x170076B4] ; (1 found)
0x48d25e: call qword [rax-0x171876B4] ; (2 found)
0x403ace: call qword [rax-0x173E2777] ; (1 found)
0x47420e: call qword [rax-0x17C474B8] ; (1 found)
0x4019e4: call qword [rax-0x18] ; (5 found)
0x41d46e: call qword [rax-0x275074B7] ; (1 found)
0x4029cb: call qword [rax-0x2F7A74B8] ; (1 found)
0x40b00e: call qword [rax-0x36CE2DCF] ; (1 found)
0x4b1e6c: call qword [rax-0x376974BF] ; (1 found)
0x49d4be: call qword [rax-0x3E28023B] ; (1 found)
0x49d52e: call qword [rax-0x3F43F00D] ; (2 found)
0x41be6e: call qword [rax-0x41FB3380] ; (1 found)
0x4afa3e: call qword [rax-0x57447CB8] ; (1 found)
0x460ebe: call qword [rax-0x5F3C38B8] ; (2 found)
0x4a276e: call qword [rax-0x5F3F38B8] ; (2 found)
0x4b036e: call qword [rax-0x7019FA39] ; (1 found)
0x41cd2e: call qword [rax-0x76AAABBF] ; (1 found)
0x4bcc7e: call qword [rax-0x76B6A8BF] ; (1 found)
0x4b2afe: call qword [rax-0x76B6AABF] ; (1 found)
0x45a02e: call qword [rax-0x76D272B4] ; (1 found)
0x48f48e: call qword [rax-0x7CFBBD75] ; (1 found)
0x42baed: call qword [rax-0x7DE276B8] ; (1 found)
0x4527ee: call qword [rax-0x7E2D76B7] ; (1 found)
0x415eee: call qword [rax-0x7F2376BF] ; (2 found)
0x4063ce: call qword [rax-0x7F8274B8] ; (1 found)
0x402c6f: call qword [rax] ; (18 found)
0x41d2b5: call qword [rbp+0x00000080] ; (6 found)
0x41fae5: call qword [rbp+0x00000090] ; (1 found)
0x421ff3: call qword [rbp+0x18] ; (2 found)
0x422644: call qword [rbp+0x20] ; (3 found)
0x423164: call qword [rbp+0x30] ; (4 found)
0x4157a7: call qword [rbp+0x38] ; (10 found)
0x41fd0a: call qword [rbp+0x40] ; (1 found)
0x4a8353: call qword [rbp+0x53] ; (1 found)
0x41bf48: call qword [rbp+0x60] ; (2 found)
0x42258e: call qword [rbp+0x68] ; (2 found)
0x41fe7c: call qword [rbp+0x70] ; (1 found)
0x403238: call qword [rbp+rbx*8+0x00] ; (1 found)
0x41bdb0: call qword [rbx+0x00000080] ; (5 found)
0x4214f5: call qword [rbx+0x00000088] ; (1 found)
0x48fbbe: call qword [rbx+0x00000090] ; (1 found)
0x4047e0: call qword [rbx+0x10] ; (2 found)
0x42225a: call qword [rbx+0x18] ; (3 found)
0x419233: call qword [rbx+0x38] ; (3 found)
0x45d496: call qword [rbx+0x48924924] ; (2 found)
0x46399d: call qword [rbx+0x48] ; (4 found)
0x40c238: call qword [rbx] ; (5 found)
0x415ca9: call qword [rcx+0x38] ; (6 found)
0x40216a: call qword [rcx+0x48] ; (1 found)
0x402172: call qword [rcx+0x49] ; (1 found)
0x42361d: call qword [rcx+0x58] ; (1 found)
0x485c32: call qword [rcx] ; (5 found)
0x41f6e0: call qword [rdi+0x00000080] ; (1 found)
0x41f0c2: call qword [rdi+0x18] ; (1 found)
0x418bea: call qword [rdi+0x38] ; (6 found)
0x42ac95: call qword [rdi+0x72E80009] ; (1 found)
0x485cdb: call qword [rdi+rcx] ; (1 found)
0x423341: call qword [rdx+0x18] ; (1 found)
0x41645b: call qword [rdx+rax*8] ; (2 found)
0x4a81ad: call qword [rdx-0x76B70005] ; (1 found)
0x41cfd6: call qword [rsi+0x00000080] ; (3 found)
0x41cef0: call qword [rsi+0x00000090] ; (2 found)
0x4201a4: call qword [rsi+0x18] ; (4 found)
0x4914b2: call qword [rsi+0x20] ; (1 found)
0x41aa30: call qword [rsi+0x38] ; (8 found)
0x4ae9ad: call qword [rsi+0x48] ; (1 found)
0x420b5d: call qword [rsi+0x78] ; (1 found)
0x404afa: call qword [rsi+rdi*8] ; (2 found)
0x495c82: call qword [rsi] ; (1 found)
0x420002: call qword [rsp+0x00000080] ; (1 found)
0x420c9a: call qword [rsp+0x00000088] ; (1 found)
0x420454: call qword [rsp+0x00000090] ; (2 found)
0x401918: call qword [rsp+0x00] ; (1 found)
0x423a1f: call qword [rsp+0x18] ; (1 found)
0x417718: call qword [rsp+0x38] ; (2 found)
0x420a73: call qword [rsp+0x48] ; (1 found)
0x41efbd: call qword [rsp+0x70] ; (1 found)
0x4ac745: call r11 ; (3 found)
0x4615c9: call r12 ; (15 found)
0x4578dc: call r13 ; (5 found)
0x468629: call r14 ; (5 found)
0x40c11a: call r15 ; (6 found)
0x48f705: call r8 ; (1 found)
0x4aaf7c: call r9 ; (4 found)
0x401014: call rax ; (54 found)
0x41e363: call rbp ; (15 found)
0x41e5cf: call rbx ; (35 found)
0x465376: call rcx ; (5 found)
0x40c11b: call rdi ; (7 found)
0x424b6f: call rdx ; (2 found)
0x46862a: call rsi ; (4 found)
0x42840d: call rsp ; (17 found)
0x4ac224: cdq ; cmc ; jmp qword [rsi+0x0F] ; (1 found)
0x42c23f: cdq ; std ; jmp qword [rsi+0x0F] ; (1 found)
0x401d3e: cdqe ; leave ; ret ; (2 found)
0x423ee7: clc ; add  [rdi+0x05], edi ; ret ; (1 found)
0x4898c1: clc ; add  [rdi+0x0B], edi ; ret ; (1 found)
0x48b300: clc ; add cl, byte [rax+0x29] ; retn 0x0F48 ; (2 found)
0x43460f: clc ; add rax, rcx ; ret ; (4 found)
0x463765: clc ; bswap eax ; ret ; (1 found)
0x476f2d: clc ; call qword [rax+0x56415741] ; (2 found)
0x472b1d: clc ; call qword [rax-0x05E1F00D] ; (1 found)
0x4a1b8c: clc ; dec  [rax-0x77] ; ret ; (1 found)
0x4a50fe: clc ; dec  [rax-0x77] ; retn 0x8548 ; (2 found)
0x48a19c: clc ; idiv bh ; jmp qword [rax+rcx*2-0x75] ; (1 found)
0x477288: clc ; jmp qword [rsi+0x0F] ; (9 found)
0x492214: clc ; jmp qword [rsi+0x2E] ; (4 found)
0x4a1d27: clc ; jmp qword [rsi+0x48] ; (1 found)
0x47cad0: clc ; jmp qword [rsi+0x66] ; (4 found)
0x4814ec: clc ; jmp qword [rsi-0x70] ; (2 found)
0x4030aa: clc ; jmp rax ; (1 found)
0x4027eb: clc ; leave ; ret ; (4 found)
0x4374c3: clc ; mov qword [rdi-0x08], rdx ; ret ; (4 found)
0x403234: clc ; nop  [rax] ; call qword [rbp+rbx*8+0x00] ; (1 found)
0x41ab5b: clc ; ret ; (152 found)
0x463775: clc ; rol ax, 0x0008 ; ret ; (1 found)
0x458bdf: clc ; shr rax, 0x02 ; ret ; (3 found)
0x4892fd: clc ; test bh, dh ; jmp qword [rsi+0x2E] ; (1 found)
0x4347e1: clc ; vzeroupper ; ret ; (76 found)
0x45a1a6: cld ; dec  [rax-0x77] ; ret ; (4 found)
0x46439d: cld ; dec  [rax-0x77] ; retn 0x8548 ; (1 found)
0x458527: cld ; jmp qword [rsi+0x0F] ; (7 found)
0x4a1930: cld ; jmp qword [rsi+0x2E] ; (1 found)
0x4a08be: cld ; jmp qword [rsi+0x66] ; (3 found)
0x49e07c: cld ; jmp qword [rsi-0x70] ; (1 found)
0x4023be: cld ; leave ; ret ; (2 found)
0x437c32: cld ; mov  [rdi-0x04], edx ; ret ; (4 found)
0x4503d9: cld ; mov  [rdi], esi ; ret ; (3 found)
0x4944c6: cld ; or byte [rax+0x0F], cl ; ret ; (1 found)
0x437511: cld ; ret ; (120 found)
0x451c25: cld ; vzeroupper ; ret ; (1 found)
0x46c9f8: cli ; add al, 0x77 ; retn 0x3948 ; (2 found)
0x45fb85: cli ; dec  [rax-0x77] ; ret ; (1 found)
0x4beaf1: cli ; dec  [rax-0x7D] ; ret ; (1 found)
0x457f38: cli ; jmp qword [rsi+0x0F] ; (6 found)
0x458944: cli ; jmp qword [rsi+0x2E] ; (11 found)
0x4b4553: cli ; jmp qword [rsi+0x66] ; (2 found)
0x4b612c: cli ; jmp qword [rsi-0x70] ; (1 found)
0x45c7a4: cli ; jmp rdx ; (1 found)
0x466453: cli ; lea rax, qword [0x00000000004F2380] ; ret ; (1 found)
0x438038: cli ; mov  [rdi-0x04], ecx ; ret ; (4 found)
0x4af333: cli ; mov eax,  [0x00000000004F8C20] ; ret ; (1 found)
0x4612e3: cli ; mov eax, 0x00000001 ; syscall ; (1 found)
0x461093: cli ; mov eax, 0x00000003 ; syscall ; (1 found)
0x460723: cli ; mov eax, 0x00000008 ; syscall ; (1 found)
0x461543: cli ; mov eax, 0x0000000A ; syscall ; (1 found)
0x461513: cli ; mov eax, 0x0000000B ; syscall ; (1 found)
0x461353: cli ; mov eax, 0x0000000C ; syscall ; (1 found)
0x460253: cli ; mov eax, 0x00000018 ; syscall ; (1 found)
0x461573: cli ; mov eax, 0x0000001C ; syscall ; (1 found)
0x4608e3: cli ; mov eax, 0x00000020 ; syscall ; (1 found)
0x4b4a33: cli ; mov eax, 0x00000026 ; syscall ; (1 found)
0x45fb23: cli ; mov eax, 0x00000027 ; syscall ; (1 found)
0x4633d3: cli ; mov eax, 0x00000029 ; syscall ; (1 found)
0x463333: cli ; mov eax, 0x00000031 ; syscall ; (1 found)
0x463363: cli ; mov eax, 0x00000032 ; syscall ; (1 found)
0x4a1723: cli ; mov eax, 0x0000003F ; syscall ; (1 found)
0x460913: cli ; mov eax, 0x00000050 ; syscall ; (1 found)
0x462e73: cli ; mov eax, 0x00000063 ; syscall ; (1 found)
0x4a1753: cli ; mov eax, 0x00000066 ; syscall ; (1 found)
0x4a1773: cli ; mov eax, 0x00000068 ; syscall ; (1 found)
0x4a1763: cli ; mov eax, 0x0000006B ; syscall ; (1 found)
0x4a1783: cli ; mov eax, 0x0000006C ; syscall ; (1 found)
0x4a1793: cli ; mov eax, 0x0000008F ; syscall ; (1 found)
0x4a17c3: cli ; mov eax, 0x00000090 ; syscall ; (1 found)
0x4a17f3: cli ; mov eax, 0x00000091 ; syscall ; (1 found)
0x4a1823: cli ; mov eax, 0x00000092 ; syscall ; (1 found)
0x4a1853: cli ; mov eax, 0x00000093 ; syscall ; (1 found)
0x422603: cli ; mov eax, 0xFFFFFFFF ; ret ; (3 found)
0x4bb663: cli ; mov qword [rdi+0x00000098], rsi ; ret ; (1 found)
0x423113: cli ; mov rax, 0xFFFFFFFFFFFFFFFF ; ret ; (3 found)
0x423e33: cli ; mov rax, qword [0x00000000004F1260] ; ret ; (1 found)
0x4686e3: cli ; mov rax, qword [0x00000000004F8F60] ; ret ; (1 found)
0x4686f3: cli ; mov rax, qword [0x00000000004F8F68] ; ret ; (1 found)
0x472333: cli ; mov rax, qword [0x00000000004F8FA8] ; ret ; (1 found)
0x425663: cli ; mov rax, qword [fs:0x00000010] ; ret ; (1 found)
0x4ad7d3: cli ; mov rax, qword [rax+0x08] ; ret ; (1 found)
0x4bb5d3: cli ; mov rax, qword [rdi+0x00000090] ; ret ; (1 found)
0x4bb633: cli ; mov rax, qword [rdi+0x00000098] ; ret ; (1 found)
0x4bb673: cli ; mov rax, qword [rdi+0x000000A0] ; ret ; (1 found)
0x4bb6d3: cli ; mov rax, qword [rdi+0x000000A8] ; ret ; (1 found)
0x4bb6c3: cli ; mov rax, qword [rdi+0x000000B0] ; ret ; (1 found)
0x4bb683: cli ; mov rax, qword [rdi+0x000000B8] ; ret ; (1 found)
0x423e53: cli ; mov rax, qword [rdi+0x68] ; ret ; (1 found)
0x423e63: cli ; mov rax, rdi ; ret ; (1 found)
0x419962: cli ; mov rdi, rbp ; call qword [r13+0x38] ; (1 found)
0x41922f: cli ; mov rdi, rbp ; call qword [rbx+0x38] ; (1 found)
0x41a00a: cli ; out 0xFF, eax ; jmp qword [rsi-0x70] ; (1 found)
0x401a93: cli ; ret ; (5 found)
0x458942: cli ; sar edx, 1 ; jmp qword [rsi+0x2E] ; (1 found)
0x424943: cli ; setnb al ; ret ; (1 found)
0x423093: cli ; xor eax, eax ; ret ; (3 found)
0x4612b3: cli ; xor eax, eax ; syscall ; (1 found)
0x4a88ed: cmc ; call qword [rax+0x48C28948] ; (1 found)
0x4b027d: cmc ; call qword [rax-0x05E1F00D] ; (3 found)
0x4b2afd: cmc ; call qword [rax-0x76B6AABF] ; (1 found)
0x4b4124: cmc ; cli ; jmp qword [rsi+0x0F] ; (1 found)
0x4ad142: cmc ; dec  [rax-0x39] ; retn 0xFFFF ; (1 found)
0x4a1c5b: cmc ; dec  [rax-0x77] ; ret ; (1 found)
0x4a1f47: cmc ; dec  [rax-0x77] ; retn 0x8948 ; (2 found)
0x4a8338: cmc ; jmp qword [rsi+0x0F] ; (7 found)
0x4a8b33: cmc ; jmp qword [rsi+0x2E] ; (7 found)
0x4a6482: cmc ; jmp qword [rsi+0x66] ; (5 found)
0x43ceaa: cmc ; mov  [rdi-0x04], ecx ; ret ; (2 found)
0x4378bd: cmc ; mov  [rdi-0x04], edx ; ret ; (36 found)
0x474d47: cmc ; ret ; (1 found)
0x44f437: cmc ; sub eax, edx ; ret ; (1 found)
0x4248f0: cmovb eax, edx ; sub rax, qword [rdi+0x18] ; ret ; (1 found)
0x4573ba: cmovb eax, esi ; ret ; (2 found)
0x4498c7: cmovb eax, esi ; vzeroupper ; ret ; (1 found)
0x4248ef: cmovb rax, rdx ; sub rax, qword [rdi+0x18] ; ret ; (1 found)
0x4a85ff: cmove eax, eax ; mov rax, r8 ; ret ; (1 found)
0x462b25: cmove eax, edx ; add rsp, 0x08 ; ret ; (1 found)
0x42c2e5: cmove eax, edx ; ret ; (33 found)
0x4b3c15: cmove esi, eax ; mov eax, 0x0000009E ; syscall ; (1 found)
0x4a85fe: cmove r8, rax ; mov rax, r8 ; ret ; (1 found)
0x42c2e4: cmove rax, rdx ; ret ; (32 found)
0x455bba: cmovl ecx,  [rcx+0x48F9174C] ; lea eax,  [rdi+rdx] ; ret ; (1 found)
0x49d62d: cmovle eax, ecx ; ret ; (4 found)
0x494b2d: cmovle eax, ecx ; vzeroupper ; ret ; (2 found)
0x49d62c: cmovle rax, rcx ; ret ; (4 found)
0x494b2c: cmovle rax, rcx ; vzeroupper ; ret ; (2 found)
0x425903: cmovnbe eax, edx ; mov qword [0x00000000004F8418], rax ; ret ; (1 found)
0x4a16ed: cmovnbe edx, eax ; mov eax, 0x000000D9 ; syscall ; (1 found)
0x425902: cmovnbe rax, rdx ; mov qword [0x00000000004F8418], rax ; ret ; (1 found)
0x4a16ec: cmovnbe rdx, rax ; mov eax, 0x000000D9 ; syscall ; (1 found)
0x4bb6a8: cmovne eax,  [rsp+0x10] ; add rsp, 0x28 ; ret ; (1 found)
0x41e4e4: cmovne eax, ecx ; ret ; (1 found)
0x4489ca: cmovne eax, ecx ; vzeroupper ; ret ; (2 found)
0x42b5ca: cmovne eax, edx ; ret ; (20 found)
0x4bb6a7: cmovne rax, qword [rsp+0x10] ; add rsp, 0x28 ; ret ; (1 found)
0x41e4e2: cmovne rax, rcx ; ret ; (2 found)
0x4489c9: cmovne rax, rcx ; vzeroupper ; ret ; (2 found)
0x42b5c9: cmovne rax, rdx ; ret ; (20 found)
0x469e20: cmovs eax, edx ; ret ; (1 found)
0x426666: cmovs ecx,  [rbx-0x173EF7BE] ; add al, 0x39 ; ret ; (1 found)
0x44d8d9: cmovs ecx,  [rcx-0x72B7F8A9] ; push cs ; ret ; (1 found)
0x45fe5a: cmp  [rax+0x00000001], 0xFB82BA48 ; jmp qword [rbx+0x0001FFDE] ; (1 found)
0x475f5d: cmp  [rax-0x7D], ecx ; retn 0x4801 ; (1 found)
0x43c9d8: cmp  [rbx-0x01], 0xFFFFFFFF ; dec  [rax-0x007F] ; retn 0x0080 ; (2 found)
0x41e4e1: cmp  [rdx+0x48], eax ; cmovne eax, ecx ; ret ; (1 found)
0x4bc7ce: cmp  [rdx-0x0C], edx ; jmp qword [rsi+0x66] ; (1 found)
0x42d02e: cmp  [rdx], eax ; add byte [rax+0x0F], cl ; retn 0x66C3 ; (1 found)
0x464103: cmp  [rdx], ebx ; cli ; jmp qword [rsi+0x0F] ; (1 found)
0x4bb86d: cmp ah, 0xFF ; jmp qword [rsi+0x0F] ; (2 found)
0x450bea: cmp ah, al ; vzeroupper ; ret ; (1 found)
0x456321: cmp ah, byte [rax] ; sub eax, edx ; ret ; (1 found)
0x457bc2: cmp ah, byte [rdi+0x09] ; add byte [rax+0x39], cl ; ret ; (1 found)
0x411930: cmp al, 0x00 ; add byte [rax-0x77], cl ; ret ; (1 found)
0x42c1c6: cmp al, 0x02 ; add byte [rax+0x0F], cl ; retn 0x66C3 ; (1 found)
0x4b89a6: cmp al, 0x0F ; mov ds, word [0x8D41FFFF+rdi*8] ; ret ; (1 found)
0x4b8975: cmp al, 0x0F ; mov gs, word [rax-0x72000003] ; ret ; (1 found)
0x461717: cmp al, 0x24 ; call rbx ; (4 found)
0x4134d2: cmp al, 0x89 ; retn 0xC083 ; (1 found)
0x411bbb: cmp al, byte [rax] ; add byte [rax-0x7D], cl ; ret ; (1 found)
0x434776: cmp al, dh ; ret ; (3 found)
0x434775: cmp al, r14L ; ret ; (3 found)
0x4bf54b: cmp bh, 0xFF ; dec  [rax-0x39] ; retn 0xE3A0 ; (1 found)
0x4063a1: cmp bh, 0xFF ; jmp qword [rax+rcx*2-0x75] ; (8 found)
0x45786f: cmp bh, 0xFF ; jmp qword [rsi+0x0F] ; (1 found)
0x457a76: cmp bh, 0xFF ; jmp qword [rsi+0x48] ; (1 found)
0x45140e: cmp bh, bh ; ret ; (2 found)
0x49de5e: cmp bh, bl ; push rsi ; retn 0x7420 ; (1 found)
0x48fccc: cmp bh, ch ; call qword [rax-0x05E1F00D] ; (1 found)
0x4209c1: cmp byte [0xFFFFFFFF8986E63B], bl ; out 0xE8, eax ; ret ; (1 found)
0x4225c8: cmp byte [r11+0x5D], bl ; pop r12 ; ret ; (1 found)
0x41fcc4: cmp byte [r8+0x0F], r9L ; retn 0x110F ; (2 found)
0x494a77: cmp byte [rax+0x01], cl ; clc ; ret ; (1 found)
0x41fcc5: cmp byte [rax+0x0F], cl ; retn 0x110F ; (2 found)
0x4abb03: cmp byte [rax+0x29], cl ; enter 0x8D48, 0x04 ; retn 0x3948 ; (1 found)
0x4186d3: cmp byte [rax+0x39], cl ; ret ; (4 found)
0x4b05d3: cmp byte [rax+0x39], cl ; retn 0x1776 ; (1 found)
0x4bd036: cmp byte [rax+0x39], cl ; retn 0x3C74 ; (1 found)
0x4a3923: cmp byte [rax+0x39], cl ; retn 0x4776 ; (1 found)
0x4bd06b: cmp byte [rax+0x39], cl ; retn 0xCB75 ; (1 found)
0x4b4143: cmp byte [rax-0x39], cl ; ret ; (1 found)
0x464cb8: cmp byte [rax-0x77], cl ; mov byte [rdx+0x50], 0x01 ; ret ; (2 found)
0x48f6b3: cmp byte [rax-0x77], cl ; retn 0x4F8D ; (1 found)
0x4883b7: cmp byte [rax-0x7D], cl ; ret ; (1 found)
0x4347a6: cmp byte [rax], ah ; ret ; (3 found)
0x45f631: cmp byte [rax], al ; add byte [rax], al ; syscall ; (1 found)
0x44fece: cmp byte [rax], al ; retn 0x0F66 ; (1 found)
0x448374: cmp byte [rax], dh ; cmovne rax, rdx ; ret ; (2 found)
0x434796: cmp byte [rax], dl ; ret ; (3 found)
0x434795: cmp byte [rax], r10L ; ret ; (3 found)
0x4347a5: cmp byte [rax], r12L ; ret ; (3 found)
0x448373: cmp byte [rax], sil ; cmovne rax, rdx ; ret ; (2 found)
0x464c0e: cmp byte [rbp-0x6AF0BE37], al ; ret ; (1 found)
0x4256c0: cmp byte [rbx+0x017408F8], al ; ret ; (1 found)
0x491e86: cmp byte [rbx+0x017408FA], al ; ret ; (1 found)
0x4225c9: cmp byte [rbx+0x5D], bl ; pop r12 ; ret ; (1 found)
0x41e194: cmp byte [rbx+0x5D], bl ; ret ; (2 found)
0x41995f: cmp byte [rcx+rcx*4-0x06], cl ; mov rdi, rbp ; call qword [r13+0x38] ; (1 found)
0x41922c: cmp byte [rcx+rcx*4-0x06], cl ; mov rdi, rbp ; call qword [rbx+0x38] ; (1 found)
0x4ac720: cmp byte [rcx-0x7D], cl ; retn 0x4908 ; (3 found)
0x418bb4: cmp byte [rcx], ch ; ret ; (1 found)
0x42a6e5: cmp byte [rsi+0x22E80009], cl ; mov dl, 0xFF ; jmp qword [rsi-0x70] ; (1 found)
0x435e8a: cmp ch, 0xFF ; jmp qword [rsi+0x0F] ; (5 found)
0x4bad32: cmp cl, byte [rax-0x7D] ; retn 0x4801 ; (1 found)
0x4bbe48: cmp dh, 0xFF ; jmp qword [rsi+0x0F] ; (1 found)
0x45057e: cmp dh, al ; ret ; (1 found)
0x48fccb: cmp dil, r13L ; call qword [rax-0x05E1F00D] ; (1 found)
0x4bb78c: cmp dl, 0xFF ; dec  [rax-0x7D] ; retn 0x4C01 ; (1 found)
0x42ce1e: cmp eax,  [rdx] ; add byte [rax+0x0F], cl ; retn 0x66C3 ; (1 found)
0x464fd9: cmp eax, 0x0006196D ; mov eax, 0x00000015 ; syscall ; (1 found)
0x4299b5: cmp eax, 0x000CEA45 ; add byte [rbp+0x03], dh ; ret ; (1 found)
0x416b02: cmp eax, 0x000D6CB9 ; jmp qword [rdi+rax*8] ; (1 found)
0x421a62: cmp eax, 0x08C48348 ; ret ; (1 found)
0x49deae: cmp eax, 0x0F48FFFB ; retn 0x66C3 ; (1 found)
0x448f44: cmp eax, 0x89000001 ; retn 0x8948 ; (1 found)
0x4b3eed: cmp eax, 0xE800029C ; sbb al, 0xF5 ; jmp qword [rsi+0x2E] ; (1 found)
0x4a1b32: cmp eax, 0xFFFFFFFF ; nop  [rax] ; ret ; (1 found)
0x410020: cmp ebp, 0xFFFFFFFF ; dec  [rcx-0x39] ; retn 0xFFA0 ; (1 found)
0x48bfd1: cmp ebx, 0x15E9FFFF ; in al, 0xFF ; jmp qword [rsi+0x0F] ; (1 found)
0x4afe56: cmp ebx, edi ; call qword [rax-0x00043517] ; (1 found)
0x467948: cmp ecx,  [rax-0x7D] ; ret ; (2 found)
0x4ae616: cmp ecx, 0xE0757FFF ; mov eax, 0x00000001 ; ret ; (1 found)
0x4a226e: cmp ecx, ecx ; xor eax, eax ; ret ; (1 found)
0x4afbff: cmp edi, ebx ; call qword [rax+0x44B84D8B] ; (1 found)
0x49de8f: cmp edi, ebx ; dec  [rax+0x0F] ; retn 0x66C3 ; (1 found)
0x48d2fa: cmp edx, 0xFFFFFFFF ; jmp qword [rsi-0x70] ; (1 found)
0x424942: cmp edx, edi ; setnb al ; ret ; (1 found)
0x46bcce: cmp esi, 0xFFFFFFFF ; jmp qword [rsi+0x0F] ; (1 found)
0x4badea: cmp esi, 0xFFFFFFFF ; jmp qword [rsi-0x70] ; (1 found)
0x4573b8: cmp esi, eax ; cmovb eax, esi ; ret ; (2 found)
0x47fd31: cmp esi, edi ; jmp qword [rsi+0x2E] ; (1 found)
0x45fe59: cmp qword [r8+0x00000001], 0xFFFFFFFFFB82BA48 ; jmp qword [rbx+0x0001FFDE] ; (1 found)
0x41e4df: cmp qword [rdx+0x48], r8 ; cmovne eax, ecx ; ret ; (2 found)
0x450be9: cmp r12L, al ; vzeroupper ; ret ; (1 found)
0x45057d: cmp r14L, al ; ret ; (1 found)
0x45140d: cmp r15L, dil ; ret ; (2 found)
0x424941: cmp rdx, rdi ; setnb al ; ret ; (1 found)
0x4573b7: cmp rsi, rax ; cmovb eax, esi ; ret ; (2 found)
0x49cd17: cmpsb ; add eax, 0x83480000 ; retn 0x4910 ; (1 found)
0x45f84d: cmpsb ; cld ; jmp qword [rsi+0x0F] ; (1 found)
0x42c23e: cqo ; std ; jmp qword [rsi+0x0F] ; (1 found)
0x4af337: cwde ; add al, 0x00 ; ret ; (1 found)
0x4aead2: cwde ; cmc ; jmp qword [rsi+0x2E] ; (1 found)
0x401d3f: cwde ; leave ; ret ; (2 found)
0x46807a: cwde ; mov rdi, r12 ; call rax ; (2 found)
0x48f994: dec  [r9-0x74B6CFBD] ; add byte [rcx+0x39], cl ; ret ; (1 found)
0x427bd8: dec  [r9-0x7B] ; ret ; (1 found)
0x40f739: dec  [rax+0x01] ; ret ; (12 found)
0x40fd11: dec  [rax+0x01] ; retn 0x0348 ; (1 found)
0x4a389e: dec  [rax+0x01] ; retn 0x3948 ; (1 found)
0x448ed9: dec  [rax+0x0F] ; mov ebp, 0xF80148C6 ; ret ; (1 found)
0x49de91: dec  [rax+0x0F] ; retn 0x66C3 ; (2 found)
0x46f7b1: dec  [rax+0x0F] ; retn 0x8948 ; (5 found)
0x408faf: dec  [rax+0x29] ; ret ; (3 found)
0x44b392: dec  [rax+0x29] ; retn 0x280F ; (2 found)
0x4a91a5: dec  [rax+0x29] ; retn 0x394C ; (1 found)
0x40af0f: dec  [rax+0x39] ; ret ; (4 found)
0x41f431: dec  [rax+0x39] ; retn 0x860F ; (1 found)
0x424478: dec  [rax+0x39] ; ror byte [rax+0x0F], 1 ; retn 0x8949 ; (1 found)
0x47547a: dec  [rax+0x63] ; jmp qword [rax+rcx*2-0x75] ; (1 found)
0x4b96c8: dec  [rax+0x63] ; ret ; (1 found)
0x43c9dc: dec  [rax-0x007F] ; retn 0x0080 ; (2 found)
0x4047bf: dec  [rax-0x39] ; ret ; (8 found)
0x4bf54e: dec  [rax-0x39] ; retn 0xE3A0 ; (1 found)
0x4bf5ef: dec  [rax-0x39] ; retn 0xEDA0 ; (1 found)
0x4bf574: dec  [rax-0x39] ; retn 0xEE20 ; (1 found)
0x4bf59d: dec  [rax-0x39] ; retn 0xEFE0 ; (1 found)
0x4bf5c6: dec  [rax-0x39] ; retn 0xF060 ; (1 found)
0x4bf618: dec  [rax-0x39] ; retn 0xF5A0 ; (1 found)
0x4bf641: dec  [rax-0x39] ; retn 0xF600 ; (1 found)
0x4bf66a: dec  [rax-0x39] ; retn 0xF680 ; (1 found)
0x4bf693: dec  [rax-0x39] ; retn 0xF740 ; (1 found)
0x4bf6bc: dec  [rax-0x39] ; retn 0xF7C0 ; (1 found)
0x4bf6e5: dec  [rax-0x39] ; retn 0xF820 ; (1 found)
0x4bf525: dec  [rax-0x39] ; retn 0xF8E0 ; (1 found)
0x46059f: dec  [rax-0x39] ; retn 0xFFA0 ; (1 found)
0x4850be: dec  [rax-0x39] ; retn 0xFFE0 ; (1 found)
0x40dba3: dec  [rax-0x39] ; retn 0xFFFE ; (2 found)
0x4777e4: dec  [rax-0x39] ; retn 0xFFFF ; (9 found)
0x4baf40: dec  [rax-0x47] ; mov eax, 0x0000000F ; syscall ; (1 found)
0x455bf1: dec  [rax-0x73] ; add al, 0x17 ; ret ; (2 found)
0x42019f: dec  [rax-0x77] ; out dx, eax ; call qword [r14+0x18] ; (1 found)
0x422256: dec  [rax-0x77] ; out dx, eax ; call qword [rbx+0x18] ; (2 found)
0x40274c: dec  [rax-0x77] ; ret ; (40 found)
0x462a0a: dec  [rax-0x77] ; retn 0x0ABE ; (1 found)
0x426845: dec  [rax-0x77] ; retn 0x3948 ; (1 found)
0x4a9192: dec  [rax-0x77] ; retn 0x81E9 ; (1 found)
0x4a8e0e: dec  [rax-0x77] ; retn 0x8341 ; (1 found)
0x4150da: dec  [rax-0x77] ; retn 0x8348 ; (2 found)
0x410159: dec  [rax-0x77] ; retn 0x83E9 ; (1 found)
0x45b11f: dec  [rax-0x77] ; retn 0x8548 ; (4 found)
0x4a1f49: dec  [rax-0x77] ; retn 0x8948 ; (2 found)
0x4aa865: dec  [rax-0x77] ; retn 0x894C ; (1 found)
0x40efe1: dec  [rax-0x77] ; retn 0x8B48 ; (1 found)
0x401fd9: dec  [rax-0x77] ; retn 0x8D48 ; (8 found)
0x4a91b1: dec  [rax-0x77] ; retn 0xB8EB ; (1 found)
0x406cf2: dec  [rax-0x77] ; retn 0xC031 ; (3 found)
0x4bfb1c: dec  [rax-0x77] ; retn 0xC148 ; (3 found)
0x4bc017: dec  [rax-0x77] ; retn 0xE0E8 ; (1 found)
0x478861: dec  [rax-0x77] ; retn 0xF748 ; (4 found)
0x45d97e: dec  [rax-0x77] ; ror  [rdi], 0xFFFFFF88 ; retn 0x0005 ; (1 found)
0x42aade: dec  [rax-0x7B] ; retn 0x840F ; (1 found)
0x4aafbd: dec  [rax-0x7B] ; ror byte [rax+0x0F], 0x44 ; ret ; (2 found)
0x480925: dec  [rax-0x7B] ; ror byte [rdi], 0x84 ; retn 0xFFFD ; (1 found)
0x42880b: dec  [rax-0x7B] ; sal byte [rsp+rdi+0x48], 0x89 ; retn 0x8D4C ; (1 found)
0x407aea: dec  [rax-0x7D] ; ret ; (22 found)
0x419874: dec  [rax-0x7D] ; retn 0x0F01 ; (1 found)
0x41a468: dec  [rax-0x7D] ; retn 0x0F03 ; (2 found)
0x48eaf6: dec  [rax-0x7D] ; retn 0x0F0C ; (1 found)
0x435528: dec  [rax-0x7D] ; retn 0x4880 ; (2 found)
0x40950a: dec  [rax-0x7D] ; retn 0x4901 ; (1 found)
0x4bb78f: dec  [rax-0x7D] ; retn 0x4C01 ; (1 found)
0x48dc52: dec  [rax-0x7D] ; retn 0x6604 ; (1 found)
0x40f406: dec  [rax-0x7D] ; retn 0x8401 ; (1 found)
0x41b11a: dec  [rax-0x7D] ; rol byte [rdx], 0xEB ; retn 0x05B8 ; (1 found)
0x4a85da: dec  [rbp+0x0F] ; scasd ; retn 0x8348 ; (1 found)
0x4801bc: dec  [rbp+rcx*4+0x1C] ; ret ; (1 found)
0x45e831: dec  [rbp+rcx*4+0x75] ; and byte [rcx-0x7CB7BFBD], cl ; ret ; (1 found)
0x467679: dec  [rbp+rcx*4+0x7B] ; jmp qword [rbp+rax*2-0x75] ; (1 found)
0x4b7f0a: dec  [rbp-0x76B63FB6] ; retn 0xD349 ; (1 found)
0x40ec56: dec  [rbp-0x77] ; dec byte [rbx-0x0005FF7B] ; jmp qword [rcx+rax*2-0x77] ; (2 found)
0x46f61a: dec  [rbp-0x77] ; ret ; (1 found)
0x470dec: dec  [rbp-0x77] ; retn 0xC1E9 ; (1 found)
0x45d5c7: dec  [rbp-0x7B] ; test byte [rdi], 0x84 ; ret ; (2 found)
0x404b56: dec  [rbx+0x0F41EB15] ; add bh, dh ; retn 0x0000 ; (1 found)
0x4b0a16: dec  [rbx+rcx*4+0x25] ; retn 0x0418 ; (1 found)
0x4ab9ab: dec  [rbx+rcx*4-0x73] ; push 0x41FFFFFF ; call rcx ; (1 found)
0x4681f8: dec  [rbx-0x0000834B] ; call qword [rax+0x18508B48] ; (1 found)
0x406b78: dec  [rbx-0x0000C373] ; jmp qword [rcx+rcx*4+0x08] ; (3 found)
0x4a467c: dec  [rbx-0x0000DF7B] ; jmp qword [rsi+0x0F] ; (1 found)
0x41335b: dec  [rbx-0x0005FF7B] ; jmp qword [rcx+rax*2-0x77] ; (4 found)
0x423198: dec  [rbx-0x14F3DB8C] ; retn 0xF390 ; (1 found)
0x48ecd0: dec  [rbx-0x7CB7FBB1] ; ret ; (1 found)
0x4b838b: dec  [rcx+0x09] ; retn 0xC031 ; (1 found)
0x46f1f9: dec  [rcx+0x3948FC51] ; ret ; (1 found)
0x45de32: dec  [rcx+0x63] ; ror  [rax+0x39], 1 ; retn 0x830F ; (1 found)
0x485f4c: dec  [rcx+rcx*4+0x04] ; retn 0x85C7 ; (2 found)
0x486f73: dec  [rcx+rcx*4+0x44] ; retn 0xE9F8 ; (1 found)
0x46923f: dec  [rcx+rcx*4+0x55] ; mov byte [rax-0x7D], cl ; ret ; (1 found)
0x48ad7b: dec  [rcx+rcx*4-0x0E] ; call qword [r13+0x38] ; (1 found)
0x48c39e: dec  [rcx+rcx*4-0x16] ; mov rsi, r10 ; call qword [r14+0x38] ; (1 found)
0x48a34a: dec  [rcx+rcx*4-0x16] ; mov rsi, r10 ; call qword [r15+0x38] ; (1 found)
0x48b4c5: dec  [rcx+rcx*4-0x16] ; mov rsi, r15 ; call qword [r14+0x38] ; (1 found)
0x48b7fc: dec  [rcx+rcx*4-0x16] ; mov rsi, r15 ; call qword [rax+0x38] ; (1 found)
0x4a8c19: dec  [rcx+rcx*4-0x1E] ; mov eax, 0x00000014 ; syscall ; (1 found)
0x41f0bd: dec  [rcx+rcx*4-0x39] ; call qword [r15+0x18] ; (1 found)
0x41cc9c: dec  [rcx+rcx*4-0x39] ; call qword [rax+0x18] ; (1 found)
0x4498b5: dec  [rcx+rcx*4-0x40] ; vzeroupper ; ret ; (2 found)
0x4a3996: dec  [rcx-0x00011743] ; jmp qword [rsi-0x7D] ; (1 found)
0x4b95dc: dec  [rcx-0x39] ; ret ; (1 found)
0x40f778: dec  [rcx-0x39] ; retn 0xFFA0 ; (19 found)
0x4bc48f: dec  [rcx-0x39] ; retn 0xFFFF ; (2 found)
0x48f995: dec  [rcx-0x74B6CFBD] ; add byte [rcx+0x39], cl ; ret ; (1 found)
0x4bc25c: dec  [rcx-0x75] ; call rax ; (1 found)
0x470de9: dec  [rcx-0x77] ; dec  [rbp-0x77] ; retn 0xC1E9 ; (1 found)
0x4174e0: dec  [rcx-0x77] ; ret ; (4 found)
0x48b018: dec  [rcx-0x77] ; retn 0x0F44 ; (1 found)
0x4941f3: dec  [rcx-0x77] ; retn 0x3948 ; (1 found)
0x4a4933: dec  [rcx-0x77] ; retn 0x8348 ; (1 found)
0x46897b: dec  [rcx-0x77] ; retn 0x8548 ; (1 found)
0x48be22: dec  [rcx-0x77] ; retn 0xF1E9 ; (1 found)
0x427bd9: dec  [rcx-0x7B] ; ret ; (1 found)
0x4b8d32: dec  [rcx-0x7D] ; ret ; (1 found)
0x4090e2: dec  [rcx-0x7D] ; vpsubsb xmm14, xmm15,  [rax+rax*4+0x2948FFFF] ; ret ; (1 found)
0x422e68: dec  [rdi] ; adc  [rdi+0x000000A0], eax ; ret ; (2 found)
0x4ae558: dec  [rdi] ; add byte [rax+0x21], cl ; retn 0xC148 ; (1 found)
0x47f4aa: dec  [rdi] ; add byte [rcx], cl ; retn 0x9274 ; (1 found)
0x4112cc: dec  [rdi] ; lahf ; retn 0xD729 ; (3 found)
0x4af9c1: dec  [rdi] ; mov dh, 0x75 ; ret ; (1 found)
0x469e1f: dec  [rdi] ; retn 0x66C3 ; (1 found)
0x412d24: dec  [rdi] ; test  [rdx+rbp*8-0x38B60001], ebp ; retn 0xFFA0 ; (1 found)
0x4102a3: dec  [rdi] ; test  [rsi-0x76000020], ecx ; ret ; (1 found)
0x46cfff: dec  [rdi] ; test byte [0xFFFFFFFFF746D00B], dh ; retn 0x0000 ; (1 found)
0x46d00b: dec  [rdi] ; test byte [0xFFFFFFFFF746D018], dl ; retn 0x0000 ; (1 found)
0x4bd66c: dec  [rdi] ; test byte [rax-0x76FFFFFE], dl ; retn 0xE283 ; (1 found)
0x417748: dec  [rdi] ; xchg eax, edx ; retn 0x3948 ; (1 found)
0x4a114a: dec  [rdi] ; xchg eax, esp ; ret ; (1 found)
0x44b251: dec byte [r8+0x29] ; retn 0x280F ; (2 found)
0x44b252: dec byte [rax+0x29] ; retn 0x280F ; (2 found)
0x440ce6: dec byte [rax+0x6F] ; pop rcx ; jmp qword [rdx-0x2F] ; (1 found)
0x451ce4: dec byte [rax+0x7F] ; adc dil, r15L ; ret ; (1 found)
0x45140a: dec byte [rax+0x7F] ; cmp r15L, dil ; ret ; (1 found)
0x490cea: dec byte [rax-0x77] ; out dx, eax ; call qword [r14+0x18] ; (2 found)
0x4ae1d4: dec byte [rbp+rcx*4+0x04] ; ret ; (1 found)
0x40ec59: dec byte [rbx-0x0005FF7B] ; jmp qword [rcx+rax*2-0x77] ; (2 found)
0x48d115: dec byte [rcx+rcx*4-0x19] ; call qword [rbx+0x38] ; (1 found)
0x475b42: dec byte [rcx+rcx*4-0x19] ; mov rdx, r14 ; call rbp ; (1 found)
0x46232b: dec byte [rcx-0x77] ; ret ; (1 found)
0x403519: dec byte [rcx-0x77] ; retn 0x014D ; (1 found)
0x44b391: dec qword [r8+0x29] ; retn 0x280F ; (2 found)
0x409509: dec qword [rax-0x7D] ; retn 0x4901 ; (1 found)
0x4aa25e: div  [rbp+0x07] ; pop rbx ; ret ; (1 found)
0x4a18bd: div  [rbp-0x28] ; mov eax, r8d ; ret ; (1 found)
0x4aaccf: div byte [rbp+0x02] ; call rax ; (1 found)
0x449266: div byte [rbp+0x04] ; xor rax, rax ; ret ; (2 found)
0x468cb4: div byte [rcx] ; jmp qword [rsi+0x0F] ; (1 found)
0x4a6481: div ch ; jmp qword [rsi+0x66] ; (1 found)
0x4b9245: divps xmm0,  [0x00000000004DDEC0] ; ret ; (1 found)
0x4b9244: divss xmm0,  [0x00000000004DDEC0] ; ret ; (1 found)
0x466450: endbr64 ; lea rax, qword [0x00000000004F2380] ; ret ; (1 found)
0x4af330: endbr64 ; mov eax,  [0x00000000004F8C20] ; ret ; (1 found)
0x4612e0: endbr64 ; mov eax, 0x00000001 ; syscall ; (1 found)
0x461090: endbr64 ; mov eax, 0x00000003 ; syscall ; (1 found)
0x460720: endbr64 ; mov eax, 0x00000008 ; syscall ; (1 found)
0x461540: endbr64 ; mov eax, 0x0000000A ; syscall ; (1 found)
0x461510: endbr64 ; mov eax, 0x0000000B ; syscall ; (1 found)
0x461350: endbr64 ; mov eax, 0x0000000C ; syscall ; (1 found)
0x460250: endbr64 ; mov eax, 0x00000018 ; syscall ; (1 found)
0x461570: endbr64 ; mov eax, 0x0000001C ; syscall ; (1 found)
0x4608e0: endbr64 ; mov eax, 0x00000020 ; syscall ; (1 found)
0x4b4a30: endbr64 ; mov eax, 0x00000026 ; syscall ; (1 found)
0x45fb20: endbr64 ; mov eax, 0x00000027 ; syscall ; (1 found)
0x4633d0: endbr64 ; mov eax, 0x00000029 ; syscall ; (1 found)
0x463330: endbr64 ; mov eax, 0x00000031 ; syscall ; (1 found)
0x463360: endbr64 ; mov eax, 0x00000032 ; syscall ; (1 found)
0x4a1720: endbr64 ; mov eax, 0x0000003F ; syscall ; (1 found)
0x460910: endbr64 ; mov eax, 0x00000050 ; syscall ; (1 found)
0x462e70: endbr64 ; mov eax, 0x00000063 ; syscall ; (1 found)
0x4a1750: endbr64 ; mov eax, 0x00000066 ; syscall ; (1 found)
0x4a1770: endbr64 ; mov eax, 0x00000068 ; syscall ; (1 found)
0x4a1760: endbr64 ; mov eax, 0x0000006B ; syscall ; (1 found)
0x4a1780: endbr64 ; mov eax, 0x0000006C ; syscall ; (1 found)
0x4a1790: endbr64 ; mov eax, 0x0000008F ; syscall ; (1 found)
0x4a17c0: endbr64 ; mov eax, 0x00000090 ; syscall ; (1 found)
0x4a17f0: endbr64 ; mov eax, 0x00000091 ; syscall ; (1 found)
0x4a1820: endbr64 ; mov eax, 0x00000092 ; syscall ; (1 found)
0x4a1850: endbr64 ; mov eax, 0x00000093 ; syscall ; (1 found)
0x422600: endbr64 ; mov eax, 0xFFFFFFFF ; ret ; (3 found)
0x4bb660: endbr64 ; mov qword [rdi+0x00000098], rsi ; ret ; (1 found)
0x423110: endbr64 ; mov rax, 0xFFFFFFFFFFFFFFFF ; ret ; (3 found)
0x423e30: endbr64 ; mov rax, qword [0x00000000004F1260] ; ret ; (1 found)
0x4686e0: endbr64 ; mov rax, qword [0x00000000004F8F60] ; ret ; (1 found)
0x4686f0: endbr64 ; mov rax, qword [0x00000000004F8F68] ; ret ; (1 found)
0x472330: endbr64 ; mov rax, qword [0x00000000004F8FA8] ; ret ; (1 found)
0x425660: endbr64 ; mov rax, qword [fs:0x00000010] ; ret ; (1 found)
0x4ad7d0: endbr64 ; mov rax, qword [rax+0x08] ; ret ; (1 found)
0x4bb5d0: endbr64 ; mov rax, qword [rdi+0x00000090] ; ret ; (1 found)
0x4bb630: endbr64 ; mov rax, qword [rdi+0x00000098] ; ret ; (1 found)
0x4bb670: endbr64 ; mov rax, qword [rdi+0x000000A0] ; ret ; (1 found)
0x4bb6d0: endbr64 ; mov rax, qword [rdi+0x000000A8] ; ret ; (1 found)
0x4bb6c0: endbr64 ; mov rax, qword [rdi+0x000000B0] ; ret ; (1 found)
0x4bb680: endbr64 ; mov rax, qword [rdi+0x000000B8] ; ret ; (1 found)
0x423e50: endbr64 ; mov rax, qword [rdi+0x68] ; ret ; (1 found)
0x423e60: endbr64 ; mov rax, rdi ; ret ; (1 found)
0x401a90: endbr64 ; ret ; (5 found)
0x423090: endbr64 ; xor eax, eax ; ret ; (3 found)
0x4612b0: endbr64 ; xor eax, eax ; syscall ; (1 found)
0x487d5f: enter 0x0F41, 0x94 ; retn 0x894C ; (2 found)
0x4483c9: enter 0x0F66, 0xEB ; ret ; (2 found)
0x42ffa1: enter 0x1D75, 0x83 ; retn 0x8101 ; (3 found)
0x41ed4e: enter 0x1F76, 0x48 ; mov edi, ebx ; call qword [rbp+0x00000080] ; (1 found)
0x434431: enter 0x2275, 0x83 ; retn 0x8101 ; (3 found)
0x44ff27: enter 0x2948, 0xF8 ; ret ; (3 found)
0x42e73d: enter 0x31C3, 0xC0 ; ret ; (13 found)
0x409d51: enter 0x4866, 0x0F ; outsb ; retn 0x0F66 ; (1 found)
0x4ae71d: enter 0x4866, 0x0F ; outsb ; retn 0xD1B8 ; (1 found)
0x4905bf: enter 0x4BE8, 0x31 ; std ; jmp qword [rsi+0x2E] ; (1 found)
0x45a9d7: enter 0x5C29, 0x8F ; retn 0x8141 ; (2 found)
0x43520c: enter 0x66C3, 0x90 ; xor eax, eax ; ret ; (1 found)
0x4bd031: enter 0x8348, 0xC0 ; cmp byte [rax+0x39], cl ; retn 0x3C74 ; (2 found)
0x4aa738: enter 0x8D48, 0x04 ; retn 0x3948 ; (3 found)
0x44b38e: enter 0x8D48, 0x49 ; dec  [rax+0x29] ; retn 0x280F ; (2 found)
0x44b24e: enter 0x8D48, 0x49 ; dec byte [rax+0x29] ; retn 0x280F ; (2 found)
0x4adf26: enter 0x8D4C, 0x34 ; retn 0x8D4A ; (1 found)
0x44f914: enter 0xC019, 0x83 ; fdivr st0, st7 ; ret ; (1 found)
0x473040: enter 0xC084, 0x75 ; mov ebx, 0x752FFA80 ; retn 0x8341 ; (1 found)
0x47311f: enter 0xC084, 0x75 ; mov esp, 0x752FFA80 ; retn 0x8341 ; (1 found)
0x4562d3: enter 0xC1FF, 0x0F ; test byte [rdi+rdi*8-0x01], dh ; jmp qword [rdx-0x4E] ; (1 found)
0x45786b: enter 0xC748, 0xC0 ; cmp bh, 0xFF ; jmp qword [rsi+0x0F] ; (1 found)
0x42324a: enter 0xE883, 0x01 ; ret ; (1 found)
0x42ffc0: enter 0xF8C5, 0x77 ; ret ; (17 found)
0x424a74: enter 0xFFA1, 0xFF ; nop  [rax+rax+0x00000000] ; ret ; (1 found)
0x4a4cf6: enter 0xFFFB, 0xE9 ; ret ; (1 found)
0x4172ea: fadd  [0xFFFFFFFFC78972F0] ; ret ; (1 found)
0x40d41f: fadd  [rax] ; add byte [rax], al ; ret ; (10 found)
0x45ab6f: fadd  [rbp+0x01] ; retn 0x2945 ; (1 found)
0x4a18bf: fadd  [rcx+rcx*4-0x40] ; ret ; (1 found)
0x459851: fadd  [rcx-0x77] ; ret ; (1 found)
0x464634: fadd  [rdx] ; add byte [rax], al ; syscall ; (1 found)
0x42c168: fadd qword [rcx] ; add byte [rax+0x0F], cl ; retn 0x85C3 ; (1 found)
0x4209ab: fcomp  [rbx+0x5D] ; pop r12 ; ret ; (1 found)
0x42be1b: fcos ; dec  [rax-0x77] ; ret ; (3 found)
0x483e9b: fcos ; jmp qword [rsi-0x70] ; (1 found)
0x4bab54: fdiv  [0xFFFFFFFF8993AB5A] ; ret ; (1 found)
0x4a8337: fdiv st0, st5 ; jmp qword [rsi+0x0F] ; (1 found)
0x457f37: fdiv st2, st0 ; jmp qword [rsi+0x0F] ; (1 found)
0x48c70c: fdiv st7, st0 ; call qword [rax+0x087E8B48] ; (1 found)
0x4142d2: fdiv st7, st0 ; jmp qword [rsi+0x0F] ; (2 found)
0x47f33b: fdiv st7, st0 ; jmp qword [rsi-0x70] ; (1 found)
0x42bd35: fdivp st7, st0 ; dec  [rax-0x77] ; ret ; (1 found)
0x4664de: fdivr  [rsi] ; jmp rax ; (1 found)
0x48cb0c: fdivr st0, st7 ; call qword [rax-0x05E1F00D] ; (1 found)
0x413266: fdivr st0, st7 ; dec  [rcx-0x39] ; retn 0xFFA0 ; (1 found)
0x479b9b: fdivr st0, st7 ; jmp qword [rsi-0x70] ; (1 found)
0x44f918: fdivr st0, st7 ; ret ; (1 found)
0x4645d8: fiadd  [rax] ; add byte [rax], al ; syscall ; (1 found)
0x47e2a0: fiadd  [rbp+0x450F48DB] ; retn 0x8948 ; (1 found)
0x478867: fiadd  [rbp-0x7B] ; dec  [rax+0x0F] ; retn 0x8948 ; (3 found)
0x46f283: fiadd  [rbx-0x09BEF81E] ; ret ; (1 found)
0x403a8e: fiadd  [rcx+0x0003FFE2] ; add byte [rbx-0x50F0FE3E], al ; retn 0xEBE9 ; (1 found)
0x42d18c: fiadd word [rax] ; add byte [rax+0x0F], cl ; retn 0x0FC3 ; (1 found)
0x4b195e: fiadd word [rcx-0x0B] ; jmp qword [rsi+0x66] ; (1 found)
0x429a15: ficomp word [rbx+0x5D] ; pop r12 ; ret ; (1 found)
0x4b0b75: fidiv  [rbp-0x78] ; ret ; (1 found)
0x4b1ab2: fidiv  [rdi] ; sti ; jmp qword [rsi+0x2E] ; (1 found)
0x40b07e: fidivr  [rsi] ; jmp r10 ; (1 found)
0x4afbfe: fidivr word [rbx] ; sti ; call qword [rax+0x44B84D8B] ; (1 found)
0x41e8cf: fidivr word [rdi+0x00000002] ; mov eax, r9d ; syscall ; (2 found)
0x45a8dc: fild  [rdi+rcx+0x49] ; ret ; (1 found)
0x42555e: fild word [rax-0x0080] ; test byte [rcx+0x0000CAB8], 0x00 ; syscall ; (1 found)
0x42cfac: fild word [rax] ; add byte [rax+0x0F], cl ; retn 0x0FC3 ; (1 found)
0x46e7ab: fild word [rbx-0x7FBF0F19] ; jmp rax ; (1 found)
0x46c9f2: fimul  [rax+0x01] ; retn 0x8348 ; (6 found)
0x42a470: fimul  [rax+0x21] ; retn 0x8D48 ; (1 found)
0x45994a: fimul  [rax+0x63] ; retn 0x6948 ; (1 found)
0x433376: fimul  [rax+rax] ; add byte [rax-0x7D], cl ; retn 0x4910 ; (1 found)
0x4186cb: fimul  [rax-0x77] ; out dx, eax ; call qword [r12+0x38] ; (1 found)
0x4261e4: fimul  [rax-0x77] ; ror  [rax+0x21], cl ; ret ; (1 found)
0x418c7d: fimul  [rcx+rcx*4-0x0A] ; mov rdi, rbp ; call qword [r15+0x38] ; (1 found)
0x404af2: fimul  [rcx+rcx*4-0x12] ; mov edi, r12d ; call qword [r14+r15*8] ; (2 found)
0x48cc3b: fimul  [rcx+rcx*4-0x19] ; call qword [rbp+0x38] ; (1 found)
0x41c425: fimul  [rcx+rcx*4-0x1A] ; call qword [r13+0x38] ; (1 found)
0x4ab0fa: fimul word [rax-0x7D] ; ret ; (1 found)
0x417713: fimul word [rcx+rcx*4-0x09] ; call qword [r12+0x38] ; (1 found)
0x4170f6: fimul word [rcx+rcx*4-0x09] ; call qword [rcx+0x38] ; (1 found)
0x48115e: fimul word [rcx-0x08] ; jmp qword [rsi+0x66] ; (1 found)
0x46c12e: fimul word [rcx-0x77] ; ret ; (2 found)
0x45a5ec: fimul word [rcx] ; add byte [rbp+0x01], cl ; retn 0x894C ; (1 found)
0x464669: fistp qword [rax+0x0000014E] ; syscall ; (1 found)
0x4b8595: fisttp  [rax+0x01] ; ror  [rdi], 0xFFFFFF92 ; ret ; (1 found)
0x47e2a2: fisttp  [rax+0x0F] ; retn 0x8948 ; (1 found)
0x4269af: fisttp  [rax+0x21] ; ret ; (1 found)
0x49fb29: fisttp  [rax-0x73] ; xchg  [rax], r12d ; ret ; (1 found)
0x47fdb5: fisttp  [rax-0x77] ; ret ; (1 found)
0x4b8ba0: fisttp  [rax-0x7B] ; test byte [rcx+0x0F], 0x95 ; ret ; (1 found)
0x47fdcf: fisttp  [rcx-0x77] ; retn 0x8B4A ; (1 found)
0x461ab0: fisttp  [rdi] ; lahf ; ret ; (1 found)
0x4a0c71: fisttp  [rdi] ; sahf ; retn 0x2148 ; (1 found)
0x49f992: fisttp qword [rax-0x73] ; test byte [rdi+0x00000080], al ; ret ; (1 found)
0x461ce4: fisttp qword [rax-0x77] ; out dx, eax ; call r12 ; (1 found)
0x48deff: fisttp qword [rax-0x77] ; retn 0x8348 ; (1 found)
0x483699: fisttp qword [rdi] ; test  [rdx-0x7CFFFFFC], eax ; ret ; (1 found)
0x4474bd: fisttp word [0xFFFFFFFF838C74C3] ; retn 0x4910 ; (1 found)
0x41efb8: fisttp word [rax+0x29] ; call qword [r12+0x70] ; (1 found)
0x41c92f: fisttp word [rax+0x29] ; call qword [rax+0x70] ; (1 found)
0x4096fa: fisttp word [rax-0x7D] ; ret ; (1 found)
0x45a5e2: fisttp word [rcx] ; add byte [rbp+0x29], cl ; retn 0x634C ; (1 found)
0x4aaca5: fisub  [rsi+0x0F] ; insb ; ret ; (1 found)
0x4a16f1: fld  [rax] ; add byte [rax], al ; syscall ; (1 found)
0x40b61e: fld st0, st3 ; ret ; (1 found)
0x480e70: fld tword [rsp-0x18] ; ret ; (1 found)
0x434661: fldenv  [rsi+0x0F] ; xlatb ; ret ; (16 found)
0x41250b: fmul  [rax+0x01] ; ret ; (2 found)
0x4589fc: fmul  [rax+0x0F] ; retn 0x8348 ; (1 found)
0x480dd4: fmul  [rax+0x11] ; rcr byte [rbp+0x5B], 1 ; ret ; (2 found)
0x47cf2a: fmul  [rax-0x39] ; ret ; (1 found)
0x41e9fe: fmul  [rax-0x77] ; ret ; (1 found)
0x426047: fmul  [rax-0x7B] ; ror byte [rax-0x39], cl ; retn 0x0000 ; (7 found)
0x469f1a: fmul  [rcx+0x0F] ; ret ; (1 found)
0x4a0782: fmul  [rdi] ; sub  [rsp+0x00], ebx ; call rbx ; (1 found)
0x4739df: fmul qword [rax-0x77] ; ret ; (1 found)
0x40952e: fmul qword [rax-0x7D] ; retn 0x8801 ; (1 found)
0x4af7c1: fmul qword [rcx-0x00009F7B] ; inc esi ; ret ; (1 found)
0x44111f: fmul qword [rcx-0x7D] ; retn 0x0F10 ; (60 found)
0x42d4f9: fmul qword [rcx-0x7D] ; retn 0x7F10 ; (60 found)
0x435a50: fstcw word [rsi] ; jmp r9 ; (6 found)
0x4acdf3: fstp  [rax+0x00] ; add byte [rcx-0x77], cl ; ret ; (1 found)
0x405acf: fstsw word [rcx-0x76B7FFFB] ; ret ; (1 found)
0x46026c: fsub  [rcx+rcx*4+0x01] ; or rax, 0xFFFFFFFFFFFFFFFF ; ret ; (17 found)
0x45e700: fsub  [rcx+rcx*4+0x02] ; mov eax, 0xFFFFFFFF ; ret ; (8 found)
0x460658: fsub  [rcx+rcx*4+0x02] ; mov rax, 0xFFFFFFFFFFFFFFFF ; ret ; (9 found)
0x428cb2: fsub  [rsi+0x0F] ; insb ; ret ; (1 found)
0x44a0c4: fsub  [rsi+0x0F] ; xlatb ; ret ; (2 found)
0x4484ec: fsub qword [rsi+0x0F] ; xlatb ; ret ; (2 found)
0x42d53f: fsub st1, st0 ; imul edi, edi, 0xFF ; jmp qword [rsi+0x66] ; (15 found)
0x45984f: fsubr  [rcx] ; fadd  [rcx-0x77] ; ret ; (1 found)
0x434453: fsubr qword [rcx] ; enter 0xF8C5, 0x77 ; ret ; (1 found)
0x466451: hint_nop edx ; lea rax, qword [0x00000000004F2380] ; ret ; (1 found)
0x4af331: hint_nop edx ; mov eax,  [0x00000000004F8C20] ; ret ; (1 found)
0x4612e1: hint_nop edx ; mov eax, 0x00000001 ; syscall ; (1 found)
0x461091: hint_nop edx ; mov eax, 0x00000003 ; syscall ; (1 found)
0x460721: hint_nop edx ; mov eax, 0x00000008 ; syscall ; (1 found)
0x461541: hint_nop edx ; mov eax, 0x0000000A ; syscall ; (1 found)
0x461511: hint_nop edx ; mov eax, 0x0000000B ; syscall ; (1 found)
0x461351: hint_nop edx ; mov eax, 0x0000000C ; syscall ; (1 found)
0x460251: hint_nop edx ; mov eax, 0x00000018 ; syscall ; (1 found)
0x461571: hint_nop edx ; mov eax, 0x0000001C ; syscall ; (1 found)
0x4608e1: hint_nop edx ; mov eax, 0x00000020 ; syscall ; (1 found)
0x4b4a31: hint_nop edx ; mov eax, 0x00000026 ; syscall ; (1 found)
0x45fb21: hint_nop edx ; mov eax, 0x00000027 ; syscall ; (1 found)
0x4633d1: hint_nop edx ; mov eax, 0x00000029 ; syscall ; (1 found)
0x463331: hint_nop edx ; mov eax, 0x00000031 ; syscall ; (1 found)
0x463361: hint_nop edx ; mov eax, 0x00000032 ; syscall ; (1 found)
0x4a1721: hint_nop edx ; mov eax, 0x0000003F ; syscall ; (1 found)
0x460911: hint_nop edx ; mov eax, 0x00000050 ; syscall ; (1 found)
0x462e71: hint_nop edx ; mov eax, 0x00000063 ; syscall ; (1 found)
0x4a1751: hint_nop edx ; mov eax, 0x00000066 ; syscall ; (1 found)
0x4a1771: hint_nop edx ; mov eax, 0x00000068 ; syscall ; (1 found)
0x4a1761: hint_nop edx ; mov eax, 0x0000006B ; syscall ; (1 found)
0x4a1781: hint_nop edx ; mov eax, 0x0000006C ; syscall ; (1 found)
0x4a1791: hint_nop edx ; mov eax, 0x0000008F ; syscall ; (1 found)
0x4a17c1: hint_nop edx ; mov eax, 0x00000090 ; syscall ; (1 found)
0x4a17f1: hint_nop edx ; mov eax, 0x00000091 ; syscall ; (1 found)
0x4a1821: hint_nop edx ; mov eax, 0x00000092 ; syscall ; (1 found)
0x4a1851: hint_nop edx ; mov eax, 0x00000093 ; syscall ; (1 found)
0x422601: hint_nop edx ; mov eax, 0xFFFFFFFF ; ret ; (3 found)
0x4bb661: hint_nop edx ; mov qword [rdi+0x00000098], rsi ; ret ; (1 found)
0x423111: hint_nop edx ; mov rax, 0xFFFFFFFFFFFFFFFF ; ret ; (3 found)
0x423e31: hint_nop edx ; mov rax, qword [0x00000000004F1260] ; ret ; (1 found)
0x4686e1: hint_nop edx ; mov rax, qword [0x00000000004F8F60] ; ret ; (1 found)
0x4686f1: hint_nop edx ; mov rax, qword [0x00000000004F8F68] ; ret ; (1 found)
0x472331: hint_nop edx ; mov rax, qword [0x00000000004F8FA8] ; ret ; (1 found)
0x425661: hint_nop edx ; mov rax, qword [fs:0x00000010] ; ret ; (1 found)
0x4ad7d1: hint_nop edx ; mov rax, qword [rax+0x08] ; ret ; (1 found)
0x4bb5d1: hint_nop edx ; mov rax, qword [rdi+0x00000090] ; ret ; (1 found)
0x4bb631: hint_nop edx ; mov rax, qword [rdi+0x00000098] ; ret ; (1 found)
0x4bb671: hint_nop edx ; mov rax, qword [rdi+0x000000A0] ; ret ; (1 found)
0x4bb6d1: hint_nop edx ; mov rax, qword [rdi+0x000000A8] ; ret ; (1 found)
0x4bb6c1: hint_nop edx ; mov rax, qword [rdi+0x000000B0] ; ret ; (1 found)
0x4bb681: hint_nop edx ; mov rax, qword [rdi+0x000000B8] ; ret ; (1 found)
0x423e51: hint_nop edx ; mov rax, qword [rdi+0x68] ; ret ; (1 found)
0x423e61: hint_nop edx ; mov rax, rdi ; ret ; (1 found)
0x401a91: hint_nop edx ; ret ; (5 found)
0x423091: hint_nop edx ; xor eax, eax ; ret ; (3 found)
0x4612b1: hint_nop edx ; xor eax, eax ; syscall ; (1 found)
0x41fd08: hlt ; call qword [r13+0x40] ; (1 found)
0x4bb41c: hlt ; call qword [rax+0x56415741] ; (2 found)
0x4bcc7c: hlt ; call qword [rax-0x76B6A8BF] ; (2 found)
0x4b96c7: hlt ; dec  [rax+0x63] ; ret ; (1 found)
0x4b989d: hlt ; inc  [rbx+0x634801EB] ; ret ; (1 found)
0x4bcb4f: hlt ; jmp qword [rsi+0x0F] ; (6 found)
0x4be0c4: hlt ; jmp qword [rsi+0x2E] ; (2 found)
0x4bc7d0: hlt ; jmp qword [rsi+0x66] ; (5 found)
0x43ce2a: hlt ; mov  [rdi-0x04], ecx ; ret ; (2 found)
0x437aad: hlt ; mov  [rdi-0x04], edx ; ret ; (36 found)
0x45f6cc: hlt ; mov eax, esi ; syscall ; (1 found)
0x484247: hlt ; std ; jmp qword [rsi+0x0F] ; (1 found)
0x44f427: hlt ; sub eax, edx ; ret ; (1 found)
0x419aac: idiv bh ; call qword [rax+0x24848B48] ; (1 found)
0x48a68e: idiv bh ; dec  [rax-0x77] ; ret ; (1 found)
0x47b6af: idiv bh ; dec  [rax-0x77] ; retn 0xF748 ; (1 found)
0x45baeb: idiv bh ; dec  [rax-0x7D] ; ret ; (1 found)
0x4174de: idiv bh ; dec  [rcx-0x77] ; ret ; (2 found)
0x416058: idiv bh ; jmp qword [rax+rcx*2-0x75] ; (2 found)
0x48bb77: idiv bh ; jmp qword [rsi+0x0F] ; (1 found)
0x46637b: idiv bh ; jmp qword [rsi-0x70] ; (3 found)
0x4bf3af: idiv bh ; nop  [rax+0x00000000] ; ret ; (1 found)
0x4bf94d: idiv bh ; ret ; (1 found)
0x424d03: idiv byte [rax+0x000000EA] ; syscall ; (1 found)
0x424e25: idiv byte [rdi+0x00000002] ; mov eax, 0x0000000E ; syscall ; (1 found)
0x404d8b: idiv byte [rdi+0x00003003] ; mov eax, 0x0000009E ; syscall ; (1 found)
0x41d499: idiv byte [rdx+0x00000001] ; mov rdi, r15 ; call qword [rbp+0x00000080] ; (1 found)
0x41f859: idiv byte [rdx+0x00000001] ; mov rdi, rbp ; call qword [rbx+0x00000080] ; (1 found)
0x41d2ab: idiv byte [rdx+0x00000002] ; mov rdi, r15 ; call qword [r13+0x00000080] ; (1 found)
0x41bda7: idiv byte [rdx+0x00000002] ; mov rdi, rbp ; call qword [rbx+0x00000080] ; (2 found)
0x42098c: idiv byte [rdx+0x00000002] ; mov rdi, rbx ; call qword [rbp+0x00000080] ; (1 found)
0x469e1a: idiv byte [rdx-0x00000001] ; cmovs eax, edx ; ret ; (1 found)
0x472da7: idiv dh ; jmp qword [rsi+0x0F] ; (1 found)
0x483f4b: idiv ebp ; jmp qword [rsi-0x70] ; (1 found)
0x48b64b: idiv edi ; call qword [rax+0x4817048D] ; (2 found)
0x407dbc: idiv edi ; call qword [rax+0x7880C931] ; (1 found)
0x4019e2: idiv edi ; call qword [rax-0x18] ; (5 found)
0x4171cf: idiv edi ; call qword [rax] ; (8 found)
0x45cee2: idiv edi ; dec  [rax+0x01] ; ret ; (1 found)
0x416bb6: idiv edi ; dec  [rax-0x39] ; ret ; (1 found)
0x48ed44: idiv edi ; dec  [rax-0x7D] ; ret ; (1 found)
0x48ad79: idiv edi ; dec  [rcx+rcx*4-0x0E] ; call qword [r13+0x38] ; (1 found)
0x40f776: idiv edi ; dec  [rcx-0x39] ; retn 0xFFA0 ; (1 found)
0x417522: idiv edi ; dec  [rcx-0x77] ; ret ; (2 found)
0x48b016: idiv edi ; dec  [rcx-0x77] ; retn 0x0F44 ; (1 found)
0x48be20: idiv edi ; dec  [rcx-0x77] ; retn 0xF1E9 ; (1 found)
0x4bbb1d: idiv edi ; inc  [rbx-0x7AF0F808] ; retn 0xFFFE ; (1 found)
0x48b19c: idiv edi ; jmp qword [rax] ; (7 found)
0x417377: idiv edi ; jmp qword [rsi+0x0F] ; (8 found)
0x4176b3: idiv edi ; jmp qword [rsi+0x2E] ; (3 found)
0x4662bb: idiv edi ; jmp qword [rsi-0x70] ; (2 found)
0x41828a: idiv edi ; jmp qword [rsi-0x77] ; (2 found)
0x404856: idiv esi ; jmp qword [rsi+0x0F] ; (1 found)
0x48ad78: idiv rdi ; dec  [rcx+rcx*4-0x0E] ; call qword [r13+0x38] ; (1 found)
0x417521: idiv rdi ; dec  [rcx-0x77] ; ret ; (2 found)
0x405acd: imul al ; fstsw word [rcx-0x76B7FFFB] ; ret ; (1 found)
0x45c178: imul al ; retn 0xFA4F ; (1 found)
0x41e798: imul al ; retn 0xFE28 ; (1 found)
0x423cd7: imul eax ; ret ; (1 found)
0x470de2: imul eax,  [0x000000004D9DF5EC], 0x8949FFF9 ; dec  [rbp-0x77] ; retn 0xC1E9 ; (1 found)
0x4a1b31: imul eax,  [rbx+0x1F0FFFF8], 0x00 ; ret ; (1 found)
0x44df81: imul eax,  [rcx], 0x00 ; add dh, dh ; retn 0x7502 ; (1 found)
0x402fb1: imul eax, ecx ; imul eax, edx ; ret ; (1 found)
0x4aee96: imul eax, ecx ; lea rax, qword [rax+rdx+0x00004000] ; ret ; (1 found)
0x402fb4: imul eax, edx ; ret ; (1 found)
0x45b60e: imul ecx,  [rdi], 0xFFFF3E85 ; jmp qword [rsi-0x007F] ; (1 found)
0x4060a3: imul edi, edi, 0xFF ; jmp qword [rsi+0x0F] ; (1 found)
0x42d541: imul edi, edi, 0xFF ; jmp qword [rsi+0x66] ; (15 found)
0x4777e1: imul edi, esi, 0xC748FFFF ; retn 0xFFFF ; (4 found)
0x4b5f46: imul esi, ebp, 0xFF ; jmp qword [rsi+0x0F] ; (1 found)
0x48df5e: imul esi, esp, 0xFF ; jmp qword [rsi+0x0F] ; (1 found)
0x4239d9: imul esp,  [rax+0x5B], 0x5D ; pop r12 ; ret ; (1 found)
0x4aee95: imul rax, rcx ; lea rax, qword [rax+rdx+0x00004000] ; ret ; (1 found)
0x45e6e9: in al, 0x00 ; add byte [rax], al ; syscall ; (1 found)
0x4157a2: in al, 0x4C ; mov edx, esp ; call qword [r13+0x38] ; (1 found)
0x449d3c: in al, 0x74 ; or  [rax-0x01], ecx ; retn 0xC148 ; (2 found)
0x481fb4: in al, 0x74 ; ror  [rax-0x73], 0x3D ; retn 0x054E ; (1 found)
0x4616e0: in al, 0x75 ; mov rdi, qword [rbp+0x00] ; call rbx ; (1 found)
0x43ce09: in al, 0xF3 ; movq qword [rdi-0x10], mm1 ; ret ; (4 found)
0x4934da: in al, 0xF6 ; jmp qword [rsi-0x70] ; (2 found)
0x48bfd7: in al, 0xFF ; jmp qword [rsi+0x0F] ; (1 found)
0x48ee6b: in al, 0xFF ; jmp qword [rsi-0x70] ; (1 found)
0x476f2c: in al, dx ; clc ; call qword [rax+0x56415741] ; (1 found)
0x4b4142: in al, dx ; cmp byte [rax-0x39], cl ; ret ; (1 found)
0x49fb18: in al, dx ; lea rax, qword [rdi+rax*4] ; ret ; (1 found)
0x43d209: in al, dx ; movdqu  [rdi-0x10], xmm1 ; ret ; (4 found)
0x429eb5: in al, dx ; sbb byte [rax-0x39], cl ; ret ; (1 found)
0x4b3f68: in al, dx ; sbb byte [rax-0x39], cl ; retn 0xFFF8 ; (1 found)
0x45f078: in al, dx ; sub byte [rax-0x39], cl ; ret ; (1 found)
0x42d078: in eax, 0x01 ; add byte [rax+0x0F], cl ; retn 0x85C3 ; (1 found)
0x4a7388: in eax, 0x05 ; add r13, rax ; call qword [r13+0x68] ; (1 found)
0x4a8a0d: in eax, 0x48 ; mov esi, ebp ; syscall ; (1 found)
0x43ce89: in eax, 0xF3 ; movq qword [rdi-0x10], mm1 ; ret ; (4 found)
0x48beec: in eax, 0xFF ; call qword [rax+0x4CD7894C] ; (1 found)
0x417d94: in eax, 0xFF ; jmp qword [rsi+0x0F] ; (2 found)
0x4b4913: in eax, dx ; cli ; jmp qword [rsi+0x2E] ; (2 found)
0x44fc42: in eax, dx ; lea rax, qword [rcx-0x01] ; ret ; (1 found)
0x48d937: in eax, dx ; mov rdx, qword [r8+rdx*8] ; jmp rdx ; (1 found)
0x43d289: in eax, dx ; movdqu  [rdi-0x10], xmm1 ; ret ; (4 found)
0x421f3a: in eax, dx ; ret ; (4 found)
0x44fd92: in eax, dx ; sub rax, 0x01 ; ret ; (1 found)
0x447c9d: inc  [0xFFFFFFFF838C7CA3] ; retn 0x4910 ; (1 found)
0x486db6: inc  [rax-0x00013B43] ; jmp qword [rdi+0x75] ; (1 found)
0x486a4e: inc  [rax-0x00013B43] ; jmp qword [rdi-0x75] ; (1 found)
0x41a6b7: inc  [rax-0x0080] ; jmp qword [rdi+rcx] ; (2 found)
0x487740: inc  [rax] ; add byte [rcx+0x21], cl ; ret ; (1 found)
0x42575a: inc  [rax] ; add byte [rsi+0x01], dh ; ret ; (1 found)
0x4789b2: inc  [rbp+0x01] ; dec  [rax-0x7D] ; ret ; (3 found)
0x418188: inc  [rbp+0x31] ; ror byte [rcx-0x77], cl ; ret ; (1 found)
0x46ec23: inc  [rbp+0x31] ; ror byte [rcx-0x7D], cl ; retn 0x4B01 ; (1 found)
0x462afc: inc  [rbp+0x480F74C0] ; add esp, 0x08 ; ret ; (1 found)
0x4b989e: inc  [rbx+0x634801EB] ; ret ; (1 found)
0x4ab0f4: inc  [rbx+0x7425087B] ; fimul word [rax-0x7D] ; ret ; (1 found)
0x4866b4: inc  [rbx-0x00009B43] ; jmp qword [rsi+0x0F] ; (2 found)
0x49300f: inc  [rbx-0x1F7CE940] ; test  [rdi], 0xFFFD7384 ; call qword [rax+0x48] ; (1 found)
0x411405: inc  [rbx-0x78F0D006] ; ret ; (1 found)
0x4bbb1f: inc  [rbx-0x7AF0F808] ; retn 0xFFFE ; (1 found)
0x490e74: inc  [rcx+rcx*4-0x02] ; mov rdi, rbp ; call qword [r14+0x18] ; (1 found)
0x45163a: inc  [rcx-0x0000FF3E] ; jmp qword [rdx-0x1F] ; (2 found)
0x4b89ac: inc  [rcx-0x73] ; ret ; (1 found)
0x46f6a1: inc  [rcx-0x77] ; ret ; (1 found)
0x46b9f8: inc  [rcx-0x77] ; retn 0x29E9 ; (1 found)
0x4b2e48: inc  [rcx-0x77] ; retn 0xE883 ; (1 found)
0x4b8cb4: inc  [rcx-0x77] ; ror  [rcx-0x77], 1 ; ret ; (1 found)
0x416d58: inc  [rcx] ; ret ; (4 found)
0x4090a9: inc  [rcx] ; retn 0xD089 ; (1 found)
0x403158: inc  [rdi+rcx-0x4A] ; retn 0x58E9 ; (1 found)
0x4b7112: inc  [rdi] ; add byte [rax+0x21], cl ; retn 0x8548 ; (1 found)
0x49fbb7: inc  [rdx] ; lea eax,  [rdi+rax+0x08] ; ret ; (1 found)
0x49fbc7: inc  [rdx] ; lea eax,  [rdi+rax+0x10] ; ret ; (1 found)
0x49fbd7: inc  [rdx] ; lea eax,  [rdi+rax+0x18] ; ret ; (1 found)
0x49fbe7: inc  [rdx] ; lea eax,  [rdi+rax+0x20] ; ret ; (1 found)
0x459546: inc  [rdx] ; lea rax, qword [rdi+rax+0x08] ; ret ; (2 found)
0x459505: inc  [rdx] ; lea rax, qword [rdi+rax+0x10] ; ret ; (2 found)
0x4595f0: inc  [rdx] ; lea rax, qword [rdi+rax+0x18] ; ret ; (1 found)
0x459595: inc  [rdx] ; lea rax, qword [rdi+rax+0x20] ; ret ; (1 found)
0x4aa024: inc  [rsi+0x10] ; pop rbx ; ret ; (1 found)
0x477f98: inc byte [rbx-0x7BF0FE06] ; ret ; (1 found)
0x492d97: inc ecx ; call qword [rbx] ; (1 found)
0x485158: inc edi ; test  [rdi+rdi*8-0x01], esp ; jmp qword [rsi+0x00] ; (2 found)
0x4af7c7: inc esi ; ret ; (1 found)
0x480e71: insb ; and al, 0xE8 ; ret ; (1 found)
0x472338: insb ; or byte [rax], al ; ret ; (1 found)
0x40bd26: insb ; ret ; (7 found)
0x4bd170: insb ; retn 0x0003 ; (1 found)
0x4246f4: insb ; retn 0x0F41 ; (4 found)
0x41cbf2: insb ; retn 0x110F ; (3 found)
0x4b48c3: insb ; retn 0x290F ; (1 found)
0x4a7a9b: insb ; retn 0x3948 ; (1 found)
0x426300: insb ; retn 0x3B48 ; (1 found)
0x428a87: insb ; retn 0x8348 ; (1 found)
0x45f706: insb ; retn 0x8948 ; (1 found)
0x473217: insb ; sti ; jmp qword [rsi+0x0F] ; (1 found)
0x454a7e: insd ; and byte [rsi], ah ; retn 0xFBC5 ; (1 found)
0x45c2e7: insd ; retn 0x0009 ; (1 found)
0x42c2e1: int 0x01 ; add byte [rax+0x0F], cl ; retn 0x0FC3 ; (1 found)
0x42c0bd: int 0x0C ; add dh, dh ; retn 0x7420 ; (1 found)
0x407029: int 0x0E ; add byte [rax-0x77], cl ; ret ; (2 found)
0x45af5f: int 0x0F ; pushfq ; retn 0xD089 ; (1 found)
0x4933ff: int 0x39 ; retn 0x3C75 ; (1 found)
0x4a3046: int 0x66 ; nop  [rax+rax+0x00000000] ; ret ; (1 found)
0x46f6b9: int 0x80 ; (2 found)
0x475680: int 0x90 ; jmp rdx ; (1 found)
0x4b45c1: int1 ; cli ; jmp qword [rsi+0x2E] ; (2 found)
0x4b4552: int1 ; cli ; jmp qword [rsi+0x66] ; (1 found)
0x4b612b: int1 ; cli ; jmp qword [rsi-0x70] ; (1 found)
0x48c70b: int1 ; fdiv st7, st0 ; call qword [rax+0x087E8B48] ; (1 found)
0x43cc7b: int1 ; mov qword [rdi-0x08], rcx ; ret ; (2 found)
0x43807e: int1 ; mov qword [rdi-0x08], rdx ; ret ; (36 found)
0x49e09e: int1 ; ret ; (1 found)
0x435074: int1 ; sub eax, ecx ; ret ; (3 found)
0x44f3f7: int1 ; sub eax, edx ; ret ; (1 found)
0x449c33: int1 ; vzeroupper ; ret ; (1 found)
0x4a1100: int3 ; idiv edi ; jmp qword [rsi+0x2E] ; (1 found)
0x4bbbab: int3 ; pop rcx ; jmp rcx ; (4 found)
0x42c30d: iretq ; (11 found)
0x436056: iretw ; (4 found)
0x440b6d: jmp qword [r10+0x71] ; (1 found)
0x440ab4: jmp qword [r10-0x0F] ; (1 found)
0x440b25: jmp qword [r10-0x2F] ; (1 found)
0x44a1f8: jmp qword [r14+0x0F] ; (2 found)
0x41afbf: jmp qword [r14+0x48] ; (1 found)
0x434eeb: jmp qword [rax+0x73] ; (3 found)
0x40e3ef: jmp qword [rax+rax+0x00] ; (3 found)
0x4059da: jmp qword [rax+rcx*2+0x03] ; (4 found)
0x464683: jmp qword [rax+rcx*2+0x2B] ; (1 found)
0x492861: jmp qword [rax+rcx*2-0x39] ; (3 found)
0x405e59: jmp qword [rax+rcx*2-0x75] ; (59 found)
0x47544e: jmp qword [rax+rcx*2-0x77] ; (3 found)
0x466c25: jmp qword [rax] ; (10 found)
0x4120d3: jmp qword [rbp+0x31] ; (1 found)
0x4117fd: jmp qword [rbp+0x48] ; (1 found)
0x45eed4: jmp qword [rbp+rax*2-0x75] ; (2 found)
0x42a06f: jmp qword [rbp+rax*2-0x77] ; (1 found)
0x40178d: jmp qword [rbp-0x08BEFFF5] ; (1 found)
0x45fe64: jmp qword [rbx+0x0001FFDE] ; (1 found)
0x4055c6: jmp qword [rbx+rax*4+0x38] ; (15 found)
0x45fcfe: jmp qword [rbx+rax*4+0x3A] ; (1 found)
0x4278ab: jmp qword [rbx+rax*4+0x3C] ; (1 found)
0x40fa47: jmp qword [rbx+rcx*4+0x00] ; (15 found)
0x460cdc: jmp qword [rbx+rcx*4+0x03] ; (1 found)
0x491da2: jmp qword [rbx+rcx*4+0x0A] ; (1 found)
0x460db9: jmp qword [rbx+rcx*4+0x13] ; (4 found)
0x492c30: jmp qword [rbx+rcx*4+0x14] ; (1 found)
0x410121: jmp qword [rbx+rcx*4+0x18] ; (1 found)
0x413bf5: jmp qword [rbx-0x76BB0001] ; (1 found)
0x40bc72: jmp qword [rcx+rax*2-0x75] ; (16 found)
0x40bc89: jmp qword [rcx+rax*2-0x77] ; (10 found)
0x40b666: jmp qword [rcx+rcx*4+0x02] ; (6 found)
0x4b55a0: jmp qword [rcx+rcx*4+0x06] ; (1 found)
0x406b7e: jmp qword [rcx+rcx*4+0x08] ; (3 found)
0x40dbaa: jmp qword [rcx+rcx*4+0x18] ; (1 found)
0x429f10: jmp qword [rcx+rcx*4+0x2B] ; (2 found)
0x41962d: jmp qword [rcx+rdx*8] ; (2 found)
0x4a977e: jmp qword [rdi+0x6D] ; (1 found)
0x486dbc: jmp qword [rdi+0x75] ; (1 found)
0x40b718: jmp qword [rdi+rax*8+0x00] ; (103 found)
0x47cf1f: jmp qword [rdi+rax*8+0x02] ; (1 found)
0x46103d: jmp qword [rdi+rax*8+0x03] ; (2 found)
0x4a7bb0: jmp qword [rdi+rax*8+0x04] ; (3 found)
0x416b07: jmp qword [rdi+rax*8] ; (1 found)
0x40c668: jmp qword [rdi+rcx] ; (4 found)
0x413590: jmp qword [rdi+rdi*2] ; (1 found)
0x486a54: jmp qword [rdi-0x75] ; (1 found)
0x440a06: jmp qword [rdx+0x51] ; (1 found)
0x440b67: jmp qword [rdx+0x71] ; (2 found)
0x454c07: jmp qword [rdx-0x0D] ; (1 found)
0x440665: jmp qword [rdx-0x0F] ; (7 found)
0x4510bb: jmp qword [rdx-0x1F] ; (42 found)
0x440b1f: jmp qword [rdx-0x2F] ; (3 found)
0x454a7b: jmp qword [rdx-0x4E] ; (3 found)
0x48515e: jmp qword [rsi+0x00] ; (2 found)
0x401b76: jmp qword [rsi+0x0F] ; (662 found)
0x4857a7: jmp qword [rsi+0x25] ; (1 found)
0x402e81: jmp qword [rsi+0x2E] ; (249 found)
0x488cf8: jmp qword [rsi+0x3D] ; (1 found)
0x44ff64: jmp qword [rsi+0x41] ; (17 found)
0x41a5fa: jmp qword [rsi+0x44] ; (5 found)
0x43b31f: jmp qword [rsi+0x45] ; (30 found)
0x40dc08: jmp qword [rsi+0x48] ; (14 found)
0x468421: jmp qword [rsi+0x49] ; (3 found)
0x403200: jmp qword [rsi+0x66] ; (163 found)
0x429fba: jmp qword [rsi+rax*8+0x04] ; (1 found)
0x48ac8a: jmp qword [rsi+rax*8] ; (1 found)
0x48d9b9: jmp qword [rsi+rdx*8] ; (2 found)
0x41abc1: jmp qword [rsi-0x007F] ; (6 found)
0x40235d: jmp qword [rsi-0x39] ; (1 found)
0x403b8d: jmp qword [rsi-0x70] ; (156 found)
0x41828c: jmp qword [rsi-0x77] ; (4 found)
0x4aaecb: jmp qword [rsi-0x7B] ; (5 found)
0x404984: jmp qword [rsi-0x7D] ; (6 found)
0x45f546: jmp qword [rsp+rax*2-0x75] ; (7 found)
0x421165: jmp qword [rsp+rax*2-0x77] ; (1 found)
0x40c5ba: jmp qword [rsp+rcx*2-0x75] ; (11 found)
0x40b07f: jmp r10 ; (28 found)
0x4ac71a: jmp r11 ; (6 found)
0x435a51: jmp r9 ; (260 found)
0x401abc: jmp rax ; (137 found)
0x4ac71b: jmp rbx ; (6 found)
0x4164d6: jmp rcx ; (172 found)
0x4054b5: jmp rdx ; (370 found)
0x48f2dd: jmp rsi ; (2 found)
0x45555c: kmovd k1, ecx ; vmovdqu8  [rax], ymm16 ; ret ; (1 found)
0x451d1e: kmovq k1, rcx ; vmovdqu8  [rax], zmm16 ; ret ; (1 found)
0x4aead0: kortestb k5, byte [rsi] ; cmc ; jmp qword [rsi+0x2E] ; (1 found)
0x4b285b: lahf ; nop  [rax+0x00] ; call rax ; (1 found)
0x4293dd: lahf ; ret ; (3 found)
0x403071: lahf ; retn 0x3145 ; (1 found)
0x4244ca: lahf ; retn 0x3949 ; (1 found)
0x424562: lahf ; retn 0x63E9 ; (1 found)
0x40366a: lahf ; retn 0xC031 ; (1 found)
0x40ea89: lahf ; retn 0xD629 ; (2 found)
0x4112ce: lahf ; retn 0xD729 ; (3 found)
0x4897d4: lahf ; std ; jmp qword [rsi+0x0F] ; (1 found)
0x42cddd: lahf ; xor eax, 0x0F480002 ; retn 0x66C3 ; (1 found)
0x44808d: lar eax, word [rax] ; add byte [rax-0x7D], cl ; retn 0x4910 ; (1 found)
0x43cbe6: lddqu xmm0,  [rsi-0x10] ; movdqu  [rdi-0x10], xmm0 ; ret ; (2 found)
0x43d406: lddqu xmm0,  [rsi] ; movdqu  [rdi], xmm0 ; ret ; (2 found)
0x42d275: lea eax,  [0x00000000004345A0] ; cmove rax, rdx ; ret ; (1 found)
0x42d2ee: lea eax,  [0x0000000000448550] ; cmove rax, rdx ; ret ; (1 found)
0x42c45e: lea eax,  [0x0000000000448BF0] ; cmove rax, rdx ; ret ; (1 found)
0x42c2de: lea eax,  [0x00000000004490C0] ; cmove rax, rdx ; ret ; (1 found)
0x42c34e: lea eax,  [0x0000000000449260] ; cmove rax, rdx ; ret ; (1 found)
0x42cc73: lea eax,  [0x000000000044F930] ; cmove rax, rdx ; ret ; (1 found)
0x42c1c3: lea eax,  [0x000000000044FDD0] ; cmovne rax, rdx ; ret ; (1 found)
0x42cfeb: lea eax,  [0x0000000000450340] ; cmove rax, rdx ; ret ; (1 found)
0x42cddb: lea eax,  [0x0000000000450380] ; cmove rax, rdx ; ret ; (2 found)
0x42d02b: lea eax,  [0x0000000000450950] ; cmove rax, rdx ; ret ; (1 found)
0x42ce1b: lea eax,  [0x0000000000450980] ; cmove rax, rdx ; ret ; (2 found)
0x42cfd3: lea eax,  [0x00000000004510D0] ; cmove rax, rdx ; ret ; (1 found)
0x42cdc3: lea eax,  [0x0000000000451100] ; cmove rax, rdx ; ret ; (2 found)
0x42ce9a: lea eax,  [0x0000000000451900] ; cmovne rax, rdx ; ret ; (1 found)
0x42ce7c: lea eax,  [0x0000000000451B00] ; cmove rax, rdx ; ret ; (1 found)
0x49deab: lea eax,  [0x0000000000451C40] ; cmovne rax, rdx ; ret ; (1 found)
0x42cf71: lea eax,  [0x00000000004522D0] ; cmove rax, rdx ; ret ; (1 found)
0x42cd61: lea eax,  [0x0000000000452300] ; cmove rax, rdx ; ret ; (2 found)
0x42ceea: lea eax,  [0x0000000000452A80] ; cmove rax, rdx ; ret ; (1 found)
0x42d00b: lea eax,  [0x0000000000454C90] ; cmove rax, rdx ; ret ; (1 found)
0x42cdfb: lea eax,  [0x0000000000454CC0] ; cmove rax, rdx ; ret ; (2 found)
0x42cf16: lea eax,  [0x0000000000455500] ; cmove rax, rdx ; ret ; (1 found)
0x42d292: lea eax,  [0x00000000004575C0] ; cmove rax, rdx ; ret ; (1 found)
0x493f15: lea eax,  [0x0000000000494790] ; cmove rax, rdx ; ret ; (1 found)
0x493f32: lea eax,  [0x000000000049D8A0] ; cmove rax, rdx ; ret ; (1 found)
0x49de05: lea eax,  [0x000000000049E0A0] ; cmove rax, rdx ; ret ; (1 found)
0x49dd1e: lea eax,  [0x000000000049E730] ; cmove rax, rdx ; ret ; (1 found)
0x49de22: lea eax,  [0x00000000004A0000] ; cmove rax, rdx ; ret ; (1 found)
0x4aeec3: lea eax,  [0x00000000004AEF30] ; cmovne rax, rdx ; ret ; (1 found)
0x41ab52: lea eax,  [0x00000000004EDEC0] ; mov rax, qword [rax+rdi*8] ; ret ; (1 found)
0x466455: lea eax,  [0x00000000004F2380] ; ret ; (1 found)
0x463893: lea eax,  [0x00000000004F8BE8] ; ret ; (2 found)
0x42115b: lea eax,  [r8] ; add byte [rax-0x39], cl ; ret ; (1 found)
0x434794: lea eax,  [rax+rdi+0x10] ; ret ; (3 found)
0x4347a4: lea eax,  [rax+rdi+0x20] ; ret ; (3 found)
0x434774: lea eax,  [rax+rdi-0x10] ; ret ; (3 found)
0x45ea90: lea eax,  [rax+rdx*8] ; ret ; (1 found)
0x4aee9a: lea eax,  [rax+rdx+0x00004000] ; ret ; (1 found)
0x42115c: lea eax,  [rax] ; add byte [rax-0x39], cl ; ret ; (1 found)
0x402f5d: lea eax,  [rbx+0x01] ; pop rbx ; ret ; (1 found)
0x457164: lea eax,  [rcx+rax-0x00000081] ; ret ; (1 found)
0x4593d4: lea eax,  [rcx+rax-0x09] ; ret ; (1 found)
0x4593c4: lea eax,  [rcx+rax-0x11] ; ret ; (1 found)
0x4593b4: lea eax,  [rcx+rax-0x19] ; ret ; (1 found)
0x457194: lea eax,  [rcx+rax-0x21] ; ret ; (2 found)
0x457184: lea eax,  [rcx+rax-0x41] ; ret ; (1 found)
0x457174: lea eax,  [rcx+rax-0x61] ; ret ; (1 found)
0x448ded: lea eax,  [rcx+rsi] ; ret ; (1 found)
0x44fc44: lea eax,  [rcx-0x01] ; ret ; (1 found)
0x44d7a7: lea eax,  [rdi+0x01] ; ret ; (3 found)
0x44dde7: lea eax,  [rdi+0x01] ; vzeroupper ; ret ; (1 found)
0x44d7ba: lea eax,  [rdi+0x02] ; ret ; (3 found)
0x44ddfb: lea eax,  [rdi+0x02] ; vzeroupper ; ret ; (1 found)
0x44d7c5: lea eax,  [rdi+0x03] ; ret ; (4 found)
0x44de15: lea eax,  [rdi+0x03] ; vzeroupper ; ret ; (1 found)
0x44d7d8: lea eax,  [rdi+0x04] ; ret ; (2 found)
0x44d7ed: lea eax,  [rdi+0x05] ; ret ; (2 found)
0x44d80b: lea eax,  [rdi+0x06] ; ret ; (2 found)
0x44d817: lea eax,  [rdi+0x07] ; ret ; (3 found)
0x44d82a: lea eax,  [rdi+0x08] ; ret ; (2 found)
0x44d83f: lea eax,  [rdi+0x09] ; ret ; (2 found)
0x44d85d: lea eax,  [rdi+0x0A] ; ret ; (2 found)
0x44d87d: lea eax,  [rdi+0x0B] ; ret ; (3 found)
0x44d89f: lea eax,  [rdi+0x0C] ; ret ; (2 found)
0x44d8bf: lea eax,  [rdi+0x0D] ; ret ; (2 found)
0x44d8df: lea eax,  [rdi+0x0E] ; ret ; (2 found)
0x44d8f9: lea eax,  [rdi+0x0F] ; ret ; (3 found)
0x44d90c: lea eax,  [rdi+0x10] ; ret ; (1 found)
0x44d921: lea eax,  [rdi+0x11] ; ret ; (1 found)
0x44d93f: lea eax,  [rdi+0x12] ; ret ; (1 found)
0x44d95f: lea eax,  [rdi+0x13] ; ret ; (1 found)
0x44d982: lea eax,  [rdi+0x14] ; ret ; (1 found)
0x44d9a1: lea eax,  [rdi+0x15] ; ret ; (1 found)
0x44d9c1: lea eax,  [rdi+0x16] ; ret ; (1 found)
0x44d9e1: lea eax,  [rdi+0x17] ; ret ; (1 found)
0x44da04: lea eax,  [rdi+0x18] ; ret ; (1 found)
0x44da29: lea eax,  [rdi+0x19] ; ret ; (1 found)
0x44da47: lea eax,  [rdi+0x1A] ; ret ; (1 found)
0x44da67: lea eax,  [rdi+0x1B] ; ret ; (1 found)
0x44da83: lea eax,  [rdi+0x1C] ; ret ; (1 found)
0x44daa3: lea eax,  [rdi+0x1D] ; ret ; (1 found)
0x44dac3: lea eax,  [rdi+0x1E] ; ret ; (1 found)
0x44dae3: lea eax,  [rdi+0x1F] ; ret ; (1 found)
0x49f994: lea eax,  [rdi+rax*4+0x00000080] ; ret ; (6 found)
0x4a0275: lea eax,  [rdi+rax*4+0x000000A0] ; ret ; (1 found)
0x4a0285: lea eax,  [rdi+rax*4+0x000000C0] ; ret ; (1 found)
0x4a024b: lea eax,  [rdi+rax*4+0x000000E0] ; ret ; (1 found)
0x49f9ab: lea eax,  [rdi+rax*4+0x20] ; ret ; (6 found)
0x49f9c4: lea eax,  [rdi+rax*4+0x40] ; ret ; (8 found)
0x49f96b: lea eax,  [rdi+rax*4+0x60] ; ret ; (5 found)
0x49fd69: lea eax,  [rdi+rax*4] ; cmovle rax, rcx ; ret ; (2 found)
0x49fb1a: lea eax,  [rdi+rax*4] ; ret ; (5 found)
0x49ff45: lea eax,  [rdi+rax*4] ; vzeroupper ; ret ; (1 found)
0x4556f5: lea eax,  [rdi+rax+0x00000080] ; ret ; (11 found)
0x49dae5: lea eax,  [rdi+rax+0x000000A0] ; ret ; (1 found)
0x49daf5: lea eax,  [rdi+rax+0x000000C0] ; ret ; (1 found)
0x49dac8: lea eax,  [rdi+rax+0x000000E0] ; ret ; (1 found)
0x459549: lea eax,  [rdi+rax+0x08] ; ret ; (3 found)
0x459508: lea eax,  [rdi+rax+0x10] ; ret ; (7 found)
0x4595f3: lea eax,  [rdi+rax+0x18] ; ret ; (2 found)
0x4556c5: lea eax,  [rdi+rax+0x20] ; ret ; (18 found)
0x49d805: lea eax,  [rdi+rax+0x20] ; vzeroupper ; ret ; (2 found)
0x43475d: lea eax,  [rdi+rax+0x30] ; ret ; (5 found)
0x4556d5: lea eax,  [rdi+rax+0x40] ; ret ; (18 found)
0x49d7dd: lea eax,  [rdi+rax+0x40] ; vzeroupper ; ret ; (2 found)
0x4556e5: lea eax,  [rdi+rax+0x60] ; ret ; (11 found)
0x4557c5: lea eax,  [rdi+rax-0x0080] ; vzeroupper ; ret ; (1 found)
0x457531: lea eax,  [rdi+rax-0x20] ; ret ; (3 found)
0x449035: lea eax,  [rdi+rax-0x20] ; vzeroupper ; ret ; (3 found)
0x4557ab: lea eax,  [rdi+rax-0x40] ; vzeroupper ; ret ; (1 found)
0x4557d5: lea eax,  [rdi+rax-0x60] ; vzeroupper ; ret ; (1 found)
0x49d629: lea eax,  [rdi+rax] ; cmovle rax, rcx ; ret ; (2 found)
0x44859b: lea eax,  [rdi+rax] ; ret ; (4 found)
0x455b9d: lea eax,  [rdi+rdx] ; ret ; (4 found)
0x44de2d: lea eax,  [rdi+rdx] ; vzeroupper ; ret ; (4 found)
0x448ce9: lea eax,  [rdi+rsi] ; ret ; (1 found)
0x44d793: lea eax,  [rdi] ; ret ; (3 found)
0x44dd65: lea eax,  [rdi] ; vzeroupper ; ret ; (1 found)
0x44cca7: lea eax,  [rdx+0x01] ; ret ; (1 found)
0x44ccbd: lea eax,  [rdx+0x02] ; ret ; (1 found)
0x44ccd5: lea eax,  [rdx+0x03] ; ret ; (1 found)
0x44cceb: lea eax,  [rdx+0x04] ; ret ; (1 found)
0x44ccfd: lea eax,  [rdx+0x05] ; ret ; (1 found)
0x44cd1b: lea eax,  [rdx+0x06] ; ret ; (1 found)
0x44cc27: lea eax,  [rdx+0x07] ; ret ; (1 found)
0x44cd2d: lea eax,  [rdx+0x08] ; ret ; (1 found)
0x44cd4d: lea eax,  [rdx+0x09] ; ret ; (1 found)
0x44cd6d: lea eax,  [rdx+0x0A] ; ret ; (1 found)
0x44cd8d: lea eax,  [rdx+0x0B] ; ret ; (1 found)
0x44cdaf: lea eax,  [rdx+0x0C] ; ret ; (1 found)
0x44cdcf: lea eax,  [rdx+0x0D] ; ret ; (1 found)
0x44cdef: lea eax,  [rdx+0x0E] ; ret ; (1 found)
0x44cc7f: lea eax,  [rdx+0x0F] ; ret ; (1 found)
0x49fb73: lea eax,  [rdx+rax*4] ; ret ; (1 found)
0x42323d: lea eax,  [rdx+rdi] ; ret ; (4 found)
0x44cc95: lea eax,  [rdx] ; ret ; (1 found)
0x472057: lea eax,  [rsp+0x000000A0] ; call r15 ; (1 found)
0x464d0a: lea eax, ebx ; nop  [rax+0x00] ; ret ; (1 found)
0x403232: lea ebp,  [rax-0x08] ; nop  [rax] ; call qword [rbp+rbx*8+0x00] ; (1 found)
0x4af375: lea ebx,  [rbp+rdx*8+0x00] ; nop  [rax+0x00000000] ; call qword [rbx] ; (1 found)
0x48551e: lea ebx,  [rdi+rdi*8-0x01] ; jmp qword [rsi+0x0F] ; (1 found)
0x491c7f: lea ebx,  [rdx] ; std ; jmp qword [rsi+0x66] ; (1 found)
0x49e016: lea ecx,  [rax+0x01] ; lea r9, qword [rsp+0x38] ; call rbx ; (1 found)
0x457b66: lea ecx,  [rax+0x04] ; lea r9, qword [rsp+0x20] ; call rbx ; (1 found)
0x435ab0: lea ecx,  [rbx+rcx] ; jmp r9 ; (4 found)
0x44d01e: lea ecx,  [rbx+rcx] ; jmp rcx ; (16 found)
0x416454: lea ecx,  [rbx+rdx] ; add rdx, r12 ; call qword [r10+rax*8] ; (2 found)
0x435f81: lea ecx,  [rcx-0x00000007] ; lea rdx, qword [rdx-0x40] ; jmp r9 ; (60 found)
0x45f7e6: lea ecx,  [rcx] ; add byte [rax-0x77], cl ; ret ; (1 found)
0x4634d6: lea ecx,  [rsi+rcx*4] ; add eax,  [rcx+rdx] ; ret ; (1 found)
0x4578d8: lea ecx,  [rsp+0x18] ; call r13 ; (1 found)
0x457aee: lea ecx,  [rsp+0x20] ; call rbx ; (2 found)
0x41e35f: lea ecx,  [rsp+0x28] ; call rbp ; (2 found)
0x457d28: lea ecx,  [rsp+0x30] ; call rbx ; (1 found)
0x49e01a: lea ecx,  [rsp+0x38] ; call rbx ; (1 found)
0x468faf: lea ecx, ebx ; stc ; jmp qword [rsi+0x66] ; (1 found)
0x464fd8: lea edi,  [0x00000000004C694B] ; mov eax, 0x00000015 ; syscall ; (1 found)
0x416b01: lea edi,  [0x00000000004ED7C0] ; jmp qword [rdi+rax*8] ; (1 found)
0x4a7c33: lea edi,  [rax+0x1C] ; mov eax, 0x000000CA ; syscall ; (5 found)
0x4645d1: lea edi,  [rbx+0x000002D0] ; mov eax, 0x000000DA ; syscall ; (1 found)
0x465170: lea edi,  [rcx+rax+0x48] ; jmp rdx ; (1 found)
0x4226db: lea edi,  [rsi+0x01] ; mov rdi, r12 ; call qword [rbx+0x18] ; (1 found)
0x45f199: lea edi,  [rsp+0x20] ; call 0x00000000 ; (2 found)
0x42c0e5: lea edx,  [0x000000000042EA10] ; cmovne rax, rdx ; ret ; (1 found)
0x42c3d9: lea edx,  [0x0000000000431920] ; cmovne rax, rdx ; ret ; (1 found)
0x42cfa9: lea edx,  [0x000000000043AFA0] ; cmovne rax, rdx ; ret ; (1 found)
0x42d189: lea edx,  [0x000000000043AFC0] ; cmovne rax, rdx ; ret ; (1 found)
0x42cd99: lea edx,  [0x000000000043DAB0] ; cmovne rax, rdx ; ret ; (1 found)
0x42d0fc: lea edx,  [0x0000000000442FB0] ; cmovne rax, rdx ; ret ; (1 found)
0x42c165: lea edx,  [0x0000000000449E40] ; cmovne rax, rdx ; ret ; (1 found)
0x42d075: lea edx,  [0x000000000044B5F0] ; cmovne rax, rdx ; ret ; (1 found)
0x42c069: lea edx,  [0x000000000044DEA0] ; cmovne rax, rdx ; ret ; (1 found)
0x42ccb7: lea edx,  [0x000000000044E1C0] ; cmovne rax, rdx ; ret ; (1 found)
0x49de8c: lea edx,  [0x0000000000451A80] ; cmove rax, rdx ; ret ; (1 found)
0x42ced3: lea edx,  [0x0000000000451C60] ; cmove rax, rdx ; ret ; (1 found)
0x457f67: lea edx,  [0x0000000000458A10] ; cmovne rax, rdx ; ret ; (1 found)
0x493f7c: lea edx,  [0x0000000000497410] ; cmovne rax, rdx ; ret ; (1 found)
0x49dd67: lea edx,  [0x000000000049EDE0] ; cmovne rax, rdx ; ret ; (1 found)
0x41ab84: lea edx,  [0x00000000004C2700] ; add rax, rdx ; ret ; (1 found)
0x45f62a: lea edx,  [rax+0x000002D0] ; mov eax, 0x00000038 ; syscall ; (1 found)
0x425744: lea edx,  [rax+0x01] ; mov qword [0x00000000004F18C8], rdx ; ret ; (1 found)
0x414f7f: lea edx,  [rax-0x77000005] ; add cl, byte [rax-0x7D] ; ret ; (1 found)
0x435b84: lea edx,  [rbx+rdx] ; jmp rdx ; (150 found)
0x42d3a6: lea edx,  [rdx+rcx] ; jmp r10 ; (13 found)
0x435f88: lea edx,  [rdx-0x40] ; jmp r9 ; (60 found)
0x424c6a: lea esi,  [0x00000000004C32A0] ; mov eax, 0x0000000E ; syscall ; (1 found)
0x424ddd: lea esi,  [0x00000000004C32A0] ; syscall ; (1 found)
0x48ac80: lea esi,  [0x00000000004EE6A0] ; movzx eax, byte [rdi+rax] ; jmp qword [rsi+rax*8] ; (1 found)
0x48d9b3: lea esi,  [0x00000000004EEAA0] ; jmp qword [rsi+rdx*8] ; (1 found)
0x48da4c: lea esi,  [0x00000000004EEBA0] ; jmp qword [rsi+rdx*8] ; (1 found)
0x4be7b3: lea esi,  [rdx] ; hlt ; jmp qword [rsi+0x0F] ; (1 found)
0x41fadd: lea esi,  [rsp+0x10] ; mov rdi, rbp ; call qword [r13+0x00000090] ; (1 found)
0x41f492: lea esi,  [rsp+0x10] ; mov rdi, rbp ; call qword [rax+0x00000090] ; (1 found)
0x41cee8: lea esi,  [rsp+0x30] ; mov rdi, r15 ; call qword [r14+0x00000090] ; (1 found)
0x4a474f: lea esi, eax ; sti ; call qword [rax-0x00083817] ; (1 found)
0x42d3a5: lea r10, qword [r10+r9] ; jmp r10 ; (13 found)
0x45f629: lea r10, qword [rax+0x000002D0] ; mov eax, 0x00000038 ; syscall ; (1 found)
0x4226d9: lea r15, qword [r14+0x01] ; mov rdi, r12 ; call qword [rbx+0x18] ; (2 found)
0x472056: lea r8, qword [rsp+0x000000A0] ; call r15 ; (1 found)
0x435aaf: lea r9, qword [r11+r9] ; jmp r9 ; (4 found)
0x435f80: lea r9, qword [r9-0x00000007] ; lea rdx, qword [rdx-0x40] ; jmp r9 ; (60 found)
0x4578d7: lea r9, qword [rsp+0x18] ; call r13 ; (1 found)
0x457aed: lea r9, qword [rsp+0x20] ; call rbx ; (2 found)
0x41e35e: lea r9, qword [rsp+0x28] ; call rbp ; (2 found)
0x457d27: lea r9, qword [rsp+0x30] ; call rbx ; (1 found)
0x49e019: lea r9, qword [rsp+0x38] ; call rbx ; (1 found)
0x42d274: lea rax, qword [0x00000000004345A0] ; cmove rax, rdx ; ret ; (1 found)
0x42d2ed: lea rax, qword [0x0000000000448550] ; cmove rax, rdx ; ret ; (1 found)
0x42c45d: lea rax, qword [0x0000000000448BF0] ; cmove rax, rdx ; ret ; (1 found)
0x42c2dd: lea rax, qword [0x00000000004490C0] ; cmove rax, rdx ; ret ; (1 found)
0x42c34d: lea rax, qword [0x0000000000449260] ; cmove rax, rdx ; ret ; (1 found)
0x42cc72: lea rax, qword [0x000000000044F930] ; cmove rax, rdx ; ret ; (1 found)
0x42c1c2: lea rax, qword [0x000000000044FDD0] ; cmovne rax, rdx ; ret ; (1 found)
0x42cfea: lea rax, qword [0x0000000000450340] ; cmove rax, rdx ; ret ; (1 found)
0x42cdda: lea rax, qword [0x0000000000450380] ; cmove rax, rdx ; ret ; (2 found)
0x42d02a: lea rax, qword [0x0000000000450950] ; cmove rax, rdx ; ret ; (1 found)
0x42ce1a: lea rax, qword [0x0000000000450980] ; cmove rax, rdx ; ret ; (2 found)
0x42cfd2: lea rax, qword [0x00000000004510D0] ; cmove rax, rdx ; ret ; (1 found)
0x42cdc2: lea rax, qword [0x0000000000451100] ; cmove rax, rdx ; ret ; (2 found)
0x42ce99: lea rax, qword [0x0000000000451900] ; cmovne rax, rdx ; ret ; (1 found)
0x42ce7b: lea rax, qword [0x0000000000451B00] ; cmove rax, rdx ; ret ; (1 found)
0x49deaa: lea rax, qword [0x0000000000451C40] ; cmovne rax, rdx ; ret ; (1 found)
0x42cf70: lea rax, qword [0x00000000004522D0] ; cmove rax, rdx ; ret ; (1 found)
0x42cd60: lea rax, qword [0x0000000000452300] ; cmove rax, rdx ; ret ; (2 found)
0x42cee9: lea rax, qword [0x0000000000452A80] ; cmove rax, rdx ; ret ; (1 found)
0x42d00a: lea rax, qword [0x0000000000454C90] ; cmove rax, rdx ; ret ; (1 found)
0x42cdfa: lea rax, qword [0x0000000000454CC0] ; cmove rax, rdx ; ret ; (2 found)
0x42cf15: lea rax, qword [0x0000000000455500] ; cmove rax, rdx ; ret ; (1 found)
0x42d291: lea rax, qword [0x00000000004575C0] ; cmove rax, rdx ; ret ; (1 found)
0x493f14: lea rax, qword [0x0000000000494790] ; cmove rax, rdx ; ret ; (1 found)
0x493f31: lea rax, qword [0x000000000049D8A0] ; cmove rax, rdx ; ret ; (1 found)
0x49de04: lea rax, qword [0x000000000049E0A0] ; cmove rax, rdx ; ret ; (1 found)
0x49dd1d: lea rax, qword [0x000000000049E730] ; cmove rax, rdx ; ret ; (1 found)
0x49de21: lea rax, qword [0x00000000004A0000] ; cmove rax, rdx ; ret ; (1 found)
0x4aeec2: lea rax, qword [0x00000000004AEF30] ; cmovne rax, rdx ; ret ; (1 found)
0x41ab51: lea rax, qword [0x00000000004EDEC0] ; mov rax, qword [rax+rdi*8] ; ret ; (1 found)
0x466454: lea rax, qword [0x00000000004F2380] ; ret ; (1 found)
0x463892: lea rax, qword [0x00000000004F8BE8] ; ret ; (2 found)
0x434793: lea rax, qword [rax+rdi+0x10] ; ret ; (3 found)
0x4347a3: lea rax, qword [rax+rdi+0x20] ; ret ; (3 found)
0x434773: lea rax, qword [rax+rdi-0x10] ; ret ; (3 found)
0x45ea8f: lea rax, qword [rax+rdx*8] ; ret ; (1 found)
0x4aee99: lea rax, qword [rax+rdx+0x00004000] ; ret ; (1 found)
0x402f5c: lea rax, qword [rbx+0x01] ; pop rbx ; ret ; (1 found)
0x448dec: lea rax, qword [rcx+rsi] ; ret ; (1 found)
0x44fc43: lea rax, qword [rcx-0x01] ; ret ; (1 found)
0x44d7a6: lea rax, qword [rdi+0x01] ; ret ; (3 found)
0x44dde6: lea rax, qword [rdi+0x01] ; vzeroupper ; ret ; (1 found)
0x44d7b9: lea rax, qword [rdi+0x02] ; ret ; (3 found)
0x44ddfa: lea rax, qword [rdi+0x02] ; vzeroupper ; ret ; (1 found)
0x44d7c4: lea rax, qword [rdi+0x03] ; ret ; (4 found)
0x44de14: lea rax, qword [rdi+0x03] ; vzeroupper ; ret ; (1 found)
0x44d7d7: lea rax, qword [rdi+0x04] ; ret ; (2 found)
0x44d7ec: lea rax, qword [rdi+0x05] ; ret ; (2 found)
0x44d80a: lea rax, qword [rdi+0x06] ; ret ; (2 found)
0x44d816: lea rax, qword [rdi+0x07] ; ret ; (3 found)
0x44d829: lea rax, qword [rdi+0x08] ; ret ; (2 found)
0x44d83e: lea rax, qword [rdi+0x09] ; ret ; (2 found)
0x44d85c: lea rax, qword [rdi+0x0A] ; ret ; (2 found)
0x44d87c: lea rax, qword [rdi+0x0B] ; ret ; (3 found)
0x44d89e: lea rax, qword [rdi+0x0C] ; ret ; (2 found)
0x44d8be: lea rax, qword [rdi+0x0D] ; ret ; (2 found)
0x44d8de: lea rax, qword [rdi+0x0E] ; ret ; (2 found)
0x44d8f8: lea rax, qword [rdi+0x0F] ; ret ; (3 found)
0x44d90b: lea rax, qword [rdi+0x10] ; ret ; (1 found)
0x44d920: lea rax, qword [rdi+0x11] ; ret ; (1 found)
0x44d93e: lea rax, qword [rdi+0x12] ; ret ; (1 found)
0x44d95e: lea rax, qword [rdi+0x13] ; ret ; (1 found)
0x44d981: lea rax, qword [rdi+0x14] ; ret ; (1 found)
0x44d9a0: lea rax, qword [rdi+0x15] ; ret ; (1 found)
0x44d9c0: lea rax, qword [rdi+0x16] ; ret ; (1 found)
0x44d9e0: lea rax, qword [rdi+0x17] ; ret ; (1 found)
0x44da03: lea rax, qword [rdi+0x18] ; ret ; (1 found)
0x44da28: lea rax, qword [rdi+0x19] ; ret ; (1 found)
0x44da46: lea rax, qword [rdi+0x1A] ; ret ; (1 found)
0x44da66: lea rax, qword [rdi+0x1B] ; ret ; (1 found)
0x44da82: lea rax, qword [rdi+0x1C] ; ret ; (1 found)
0x44daa2: lea rax, qword [rdi+0x1D] ; ret ; (1 found)
0x44dac2: lea rax, qword [rdi+0x1E] ; ret ; (1 found)
0x44dae2: lea rax, qword [rdi+0x1F] ; ret ; (1 found)
0x49f993: lea rax, qword [rdi+rax*4+0x00000080] ; ret ; (6 found)
0x4a0274: lea rax, qword [rdi+rax*4+0x000000A0] ; ret ; (1 found)
0x4a0284: lea rax, qword [rdi+rax*4+0x000000C0] ; ret ; (1 found)
0x4a024a: lea rax, qword [rdi+rax*4+0x000000E0] ; ret ; (1 found)
0x49f9aa: lea rax, qword [rdi+rax*4+0x20] ; ret ; (6 found)
0x49f9c3: lea rax, qword [rdi+rax*4+0x40] ; ret ; (8 found)
0x49f96a: lea rax, qword [rdi+rax*4+0x60] ; ret ; (5 found)
0x49fd68: lea rax, qword [rdi+rax*4] ; cmovle rax, rcx ; ret ; (2 found)
0x49fb19: lea rax, qword [rdi+rax*4] ; ret ; (5 found)
0x49ff44: lea rax, qword [rdi+rax*4] ; vzeroupper ; ret ; (1 found)
0x4556f4: lea rax, qword [rdi+rax+0x00000080] ; ret ; (10 found)
0x49dae4: lea rax, qword [rdi+rax+0x000000A0] ; ret ; (1 found)
0x49daf4: lea rax, qword [rdi+rax+0x000000C0] ; ret ; (1 found)
0x49dac7: lea rax, qword [rdi+rax+0x000000E0] ; ret ; (1 found)
0x459548: lea rax, qword [rdi+rax+0x08] ; ret ; (2 found)
0x459507: lea rax, qword [rdi+rax+0x10] ; ret ; (6 found)
0x4595f2: lea rax, qword [rdi+rax+0x18] ; ret ; (1 found)
0x4556c4: lea rax, qword [rdi+rax+0x20] ; ret ; (16 found)
0x49d804: lea rax, qword [rdi+rax+0x20] ; vzeroupper ; ret ; (2 found)
0x43475c: lea rax, qword [rdi+rax+0x30] ; ret ; (5 found)
0x4556d4: lea rax, qword [rdi+rax+0x40] ; ret ; (17 found)
0x49d7dc: lea rax, qword [rdi+rax+0x40] ; vzeroupper ; ret ; (2 found)
0x4556e4: lea rax, qword [rdi+rax+0x60] ; ret ; (10 found)
0x4557c4: lea rax, qword [rdi+rax-0x0080] ; vzeroupper ; ret ; (1 found)
0x457530: lea rax, qword [rdi+rax-0x20] ; ret ; (3 found)
0x449034: lea rax, qword [rdi+rax-0x20] ; vzeroupper ; ret ; (3 found)
0x4557aa: lea rax, qword [rdi+rax-0x40] ; vzeroupper ; ret ; (1 found)
0x4557d4: lea rax, qword [rdi+rax-0x60] ; vzeroupper ; ret ; (1 found)
0x49d628: lea rax, qword [rdi+rax] ; cmovle rax, rcx ; ret ; (2 found)
0x44859a: lea rax, qword [rdi+rax] ; ret ; (4 found)
0x455b9c: lea rax, qword [rdi+rdx] ; ret ; (4 found)
0x44de2c: lea rax, qword [rdi+rdx] ; vzeroupper ; ret ; (4 found)
0x448ce8: lea rax, qword [rdi+rsi] ; ret ; (1 found)
0x44d792: lea rax, qword [rdi] ; ret ; (3 found)
0x44dd64: lea rax, qword [rdi] ; vzeroupper ; ret ; (1 found)
0x44cca6: lea rax, qword [rdx+0x01] ; ret ; (1 found)
0x44ccbc: lea rax, qword [rdx+0x02] ; ret ; (1 found)
0x44ccd4: lea rax, qword [rdx+0x03] ; ret ; (1 found)
0x44ccea: lea rax, qword [rdx+0x04] ; ret ; (1 found)
0x44ccfc: lea rax, qword [rdx+0x05] ; ret ; (1 found)
0x44cd1a: lea rax, qword [rdx+0x06] ; ret ; (1 found)
0x44cc26: lea rax, qword [rdx+0x07] ; ret ; (1 found)
0x44cd2c: lea rax, qword [rdx+0x08] ; ret ; (1 found)
0x44cd4c: lea rax, qword [rdx+0x09] ; ret ; (1 found)
0x44cd6c: lea rax, qword [rdx+0x0A] ; ret ; (1 found)
0x44cd8c: lea rax, qword [rdx+0x0B] ; ret ; (1 found)
0x44cdae: lea rax, qword [rdx+0x0C] ; ret ; (1 found)
0x44cdce: lea rax, qword [rdx+0x0D] ; ret ; (1 found)
0x44cdee: lea rax, qword [rdx+0x0E] ; ret ; (1 found)
0x44cc7e: lea rax, qword [rdx+0x0F] ; ret ; (1 found)
0x49fb72: lea rax, qword [rdx+rax*4] ; ret ; (1 found)
0x44cc94: lea rax, qword [rdx] ; ret ; (1 found)
0x403231: lea rbp, qword [rax-0x08] ; nop  [rax] ; call qword [rbp+rbx*8+0x00] ; (1 found)
0x4af374: lea rbx, qword [rbp+rdx*8+0x00] ; nop  [rax+0x00000000] ; call qword [rbx] ; (1 found)
0x44d01d: lea rcx, qword [r11+rcx] ; jmp rcx ; (16 found)
0x49e015: lea rcx, qword [rax+0x01] ; lea r9, qword [rsp+0x38] ; call rbx ; (1 found)
0x457b65: lea rcx, qword [rax+0x04] ; lea r9, qword [rsp+0x20] ; call rbx ; (1 found)
0x416453: lea rcx, qword [rbx+rdx] ; add rdx, r12 ; call qword [r10+rax*8] ; (2 found)
0x4634d5: lea rcx, qword [rsi+rcx*4] ; add eax,  [rcx+rdx] ; ret ; (1 found)
0x464fd7: lea rdi, qword [0x00000000004C694B] ; mov eax, 0x00000015 ; syscall ; (1 found)
0x416b00: lea rdi, qword [0x00000000004ED7C0] ; jmp qword [rdi+rax*8] ; (1 found)
0x4a7c32: lea rdi, qword [rax+0x1C] ; mov eax, 0x000000CA ; syscall ; (5 found)
0x4645d0: lea rdi, qword [rbx+0x000002D0] ; mov eax, 0x000000DA ; syscall ; (1 found)
0x46516f: lea rdi, qword [rcx+rax+0x48] ; jmp rdx ; (1 found)
0x45f198: lea rdi, qword [rsp+0x20] ; call 0x00000000 ; (2 found)
0x42c0e4: lea rdx, qword [0x000000000042EA10] ; cmovne rax, rdx ; ret ; (1 found)
0x42c3d8: lea rdx, qword [0x0000000000431920] ; cmovne rax, rdx ; ret ; (1 found)
0x42cfa8: lea rdx, qword [0x000000000043AFA0] ; cmovne rax, rdx ; ret ; (1 found)
0x42d188: lea rdx, qword [0x000000000043AFC0] ; cmovne rax, rdx ; ret ; (1 found)
0x42cd98: lea rdx, qword [0x000000000043DAB0] ; cmovne rax, rdx ; ret ; (1 found)
0x42d0fb: lea rdx, qword [0x0000000000442FB0] ; cmovne rax, rdx ; ret ; (1 found)
0x42c164: lea rdx, qword [0x0000000000449E40] ; cmovne rax, rdx ; ret ; (1 found)
0x42d074: lea rdx, qword [0x000000000044B5F0] ; cmovne rax, rdx ; ret ; (1 found)
0x42c068: lea rdx, qword [0x000000000044DEA0] ; cmovne rax, rdx ; ret ; (1 found)
0x42ccb6: lea rdx, qword [0x000000000044E1C0] ; cmovne rax, rdx ; ret ; (1 found)
0x49de8b: lea rdx, qword [0x0000000000451A80] ; cmove rax, rdx ; ret ; (1 found)
0x42ced2: lea rdx, qword [0x0000000000451C60] ; cmove rax, rdx ; ret ; (1 found)
0x457f66: lea rdx, qword [0x0000000000458A10] ; cmovne rax, rdx ; ret ; (1 found)
0x493f7b: lea rdx, qword [0x0000000000497410] ; cmovne rax, rdx ; ret ; (1 found)
0x49dd66: lea rdx, qword [0x000000000049EDE0] ; cmovne rax, rdx ; ret ; (1 found)
0x41ab83: lea rdx, qword [0x00000000004C2700] ; add rax, rdx ; ret ; (1 found)
0x435b83: lea rdx, qword [r11+rdx] ; jmp rdx ; (150 found)
0x425743: lea rdx, qword [rax+0x01] ; mov qword [0x00000000004F18C8], rdx ; ret ; (1 found)
0x435f87: lea rdx, qword [rdx-0x40] ; jmp r9 ; (60 found)
0x424c69: lea rsi, qword [0x00000000004C32A0] ; mov eax, 0x0000000E ; syscall ; (1 found)
0x424ddb: lea rsi, qword [0x00000000004C32A0] ; syscall ; (2 found)
0x48ac7f: lea rsi, qword [0x00000000004EE6A0] ; movzx eax, byte [rdi+rax] ; jmp qword [rsi+rax*8] ; (1 found)
0x48d9b2: lea rsi, qword [0x00000000004EEAA0] ; jmp qword [rsi+rdx*8] ; (1 found)
0x48da4b: lea rsi, qword [0x00000000004EEBA0] ; jmp qword [rsi+rdx*8] ; (1 found)
0x41fadc: lea rsi, qword [rsp+0x10] ; mov rdi, rbp ; call qword [r13+0x00000090] ; (1 found)
0x41f491: lea rsi, qword [rsp+0x10] ; mov rdi, rbp ; call qword [rax+0x00000090] ; (1 found)
0x41cee7: lea rsi, qword [rsp+0x30] ; mov rdi, r15 ; call qword [r14+0x00000090] ; (1 found)
0x4b6d71: leave ; cli ; jmp qword [rsi+0x66] ; (1 found)
0x429b36: leave ; mov  [0x00000000004F8404], 0x00000000 ; ret ; (1 found)
0x4a22af: leave ; mov eax, 0x00000001 ; ret ; (1 found)
0x4351bd: leave ; or eax, ecx ; ret ; (2 found)
0x401c3e: leave ; ret ; (16 found)
0x45555f: leave ; vmovdqu8  [rax], ymm16 ; ret ; (1 found)
0x451d22: leave ; vmovdqu8  [rax], zmm16 ; ret ; (1 found)
0x4a226f: leave ; xor eax, eax ; ret ; (1 found)
0x42963c: lock add  [rbx-0x72B7FE20], eax ; push rsp ; retn 0xE8F0 ; (2 found)
0x465bd2: lock add eax,  [rax] ; add dh, dh ; retn 0x7402 ; (2 found)
0x457153: lock bsf eax, eax ; ret ; (2 found)
0x449653: lock bsf eax, eax ; vzeroupper ; ret ; (1 found)
0x480e6f: lock fld tword [rsp-0x18] ; ret ; (1 found)
0x4aa023: lock inc  [rsi+0x10] ; pop rbx ; ret ; (1 found)
0x435fe6: lock jmp r9 ; (30 found)
0x403118: lock jmp rax ; (5 found)
0x4b3c16: lock mov eax, 0x0000009E ; syscall ; (2 found)
0x437357: lock mov qword [rdi-0x08], rcx ; ret ; (4 found)
0x437395: lock mov qword [rdi-0x08], rdx ; ret ; (12 found)
0x4bb9fa: lock mov r15, qword [rbp-0x08] ; leave ; ret ; (3 found)
0x483fce: lock movdqa xmm0,  [rsp-0x18] ; ret ; (1 found)
0x43cbe8: lock movdqu  [rdi-0x10], xmm0 ; ret ; (6 found)
0x43d393: lock movdqu  [rdi-0x11], xmm0 ; movdqu  [rdi-0x10], xmm1 ; ret ; (6 found)
0x43d313: lock movdqu  [rdi-0x12], xmm0 ; movdqu  [rdi-0x10], xmm1 ; ret ; (6 found)
0x43d283: lock movdqu  [rdi-0x13], xmm0 ; movdqu  [rdi-0x10], xmm1 ; ret ; (6 found)
0x43d203: lock movdqu  [rdi-0x14], xmm0 ; movdqu  [rdi-0x10], xmm1 ; ret ; (6 found)
0x43d183: lock movdqu  [rdi-0x15], xmm0 ; movdqu  [rdi-0x10], xmm1 ; ret ; (6 found)
0x43d103: lock movdqu  [rdi-0x16], xmm0 ; movdqu  [rdi-0x10], xmm1 ; ret ; (6 found)
0x43d083: lock movdqu  [rdi-0x17], xmm0 ; movdqu  [rdi-0x10], xmm1 ; ret ; (6 found)
0x43d003: lock movdqu  [rdi-0x18], xmm0 ; movdqu  [rdi-0x10], xmm1 ; ret ; (6 found)
0x43cf83: lock movdqu  [rdi-0x19], xmm0 ; movdqu  [rdi-0x10], xmm1 ; ret ; (6 found)
0x43cf03: lock movdqu  [rdi-0x1A], xmm0 ; movdqu  [rdi-0x10], xmm1 ; ret ; (6 found)
0x43ce83: lock movdqu  [rdi-0x1B], xmm0 ; movdqu  [rdi-0x10], xmm1 ; ret ; (6 found)
0x43ce03: lock movdqu  [rdi-0x1C], xmm0 ; movdqu  [rdi-0x10], xmm1 ; ret ; (6 found)
0x43cd73: lock movdqu  [rdi-0x1D], xmm0 ; movdqu  [rdi-0x10], xmm1 ; ret ; (6 found)
0x43cce3: lock movdqu  [rdi-0x1E], xmm0 ; movdqu  [rdi-0x10], xmm1 ; ret ; (6 found)
0x43cc53: lock movdqu  [rdi-0x1F], xmm0 ; movdqu  [rdi-0x10], xmm1 ; ret ; (6 found)
0x480e41: lock movq xmm0, xmm0 ; ret ; (1 found)
0x450406: lock movups  [rdi+rdx-0x20], xmm3 ; ret ; (1 found)
0x4502b2: lock movups  [rdi], xmm0 ; movups  [rdi+rdx-0x10], xmm1 ; ret ; (2 found)
0x451930: lock movups  [rdi], xmm0 ; ret ; (1 found)
0x43526c: lock movzx eax, byte [rdi+rax-0x10] ; sub eax, ecx ; ret ; (1 found)
0x44f3e2: lock movzx edx, byte [rsi-0x10] ; sub eax, edx ; ret ; (2 found)
0x491e9b: lock or  [rcx+0x00000308], 0x10 ; mov rdi, qword [fs:0x00000300] ; call 0x00000000 ; (1 found)
0x4256d5: lock or  [rdx+0x00000308], 0x10 ; mov rdi, qword [fs:0x00000300] ; call 0x00000000 ; (1 found)
0x422f47: lock ret ; (92 found)
0x43ccca: lock retn 0x0FF3 ; (2 found)
0x4a4750: lock sti ; call qword [rax-0x00083817] ; (1 found)
0x4a1687: lock sti ; jmp qword [rsi+0x0F] ; (1 found)
0x435271: lock sub eax, ecx ; ret ; (1 found)
0x44f3e7: lock sub eax, edx ; ret ; (1 found)
0x440728: lock vmovdqu  [rdi], xmm0 ; vmovdqu  [r9-0x10], xmm1 ; ret ; (2 found)
0x4509eb: lock vmovdqu  [rdi], xmm0 ; vmovdqu  [rdi+rdx-0x10], xmm1 ; ret ; (4 found)
0x451c0b: lock vzeroupper ; ret ; (1 found)
0x4b2890: lodsb ; xor dh, ch ; jmp qword [rsi+0x66] ; (1 found)
0x49f9c2: lodsd ; lea rax, qword [rdi+rax*4+0x40] ; ret ; (1 found)
0x4647aa: lodsd ; ret ; (3 found)
0x46718a: mov  [0x00000000004F0A50], eax ; pop rbx ; ret ; (1 found)
0x425983: mov  [0x00000000004F1860], eax ; ret ; (1 found)
0x4259a3: mov  [0x00000000004F1868], eax ; ret ; (1 found)
0x4259c3: mov  [0x00000000004F1870], eax ; ret ; (1 found)
0x425709: mov  [0x00000000004F1878], eax ; ret ; (1 found)
0x4256f9: mov  [0x00000000004F1880], eax ; ret ; (1 found)
0x4259e2: mov  [0x00000000004F18A0], eax ; ret ; (1 found)
0x4259d8: mov  [0x00000000004F18A8], 0x00000001 ; mov  [0x00000000004F18A0], eax ; ret ; (1 found)
0x425978: mov  [0x00000000004F18A8], 0x00000001 ; mov qword [0x00000000004F1860], rax ; ret ; (1 found)
0x425998: mov  [0x00000000004F18A8], 0x00000001 ; mov qword [0x00000000004F1868], rax ; ret ; (1 found)
0x4259b8: mov  [0x00000000004F18A8], 0x00000001 ; mov qword [0x00000000004F1870], rax ; ret ; (1 found)
0x425748: mov  [0x00000000004F18C8], edx ; ret ; (1 found)
0x425762: mov  [0x00000000004F18D8], eax ; ret ; (1 found)
0x425779: mov  [0x00000000004F18E0], eax ; ret ; (1 found)
0x491ee7: mov  [0x00000000004F2BD0], eax ; ret ; (1 found)
0x491ef7: mov  [0x00000000004F2BD4], eax ; ret ; (1 found)
0x491f07: mov  [0x00000000004F2BD8], eax ; ret ; (1 found)
0x491f17: mov  [0x00000000004F2BDC], eax ; ret ; (1 found)
0x492237: mov  [0x00000000004F2BE0], eax ; ret ; (1 found)
0x493692: mov  [0x00000000004F2BE8], eax ; add rsp, 0x08 ; ret ; (1 found)
0x492248: mov  [0x00000000004F2BF0], eax ; ret ; (1 found)
0x423f05: mov  [0x00000000004F4390], 0x00000000 ; mov qword [0x00000000004F4398], 0x0000000000000000 ; ret ; (1 found)
0x423f10: mov  [0x00000000004F4398], 0x00000000 ; ret ; (1 found)
0x491f3c: mov  [0x00000000004F43D0], eax ; ret ; (1 found)
0x429b37: mov  [0x00000000004F8404], 0x00000000 ; ret ; (1 found)
0x4259f8: mov  [0x00000000004F8414], eax ; ret ; (1 found)
0x425907: mov  [0x00000000004F8418], eax ; ret ; (1 found)
0x4bec0d: mov  [0x00000000004F84B0], 0x00000000 ; ret ; (1 found)
0x4638c4: mov  [0x00000000004F8BF0], eax ; lea rax, qword [0x00000000004F8BE8] ; ret ; (1 found)
0x4aec4a: mov  [0x00000000004F8C48], 0x00000000 ; ret ; (2 found)
0x4b2c03: mov  [0x00000000004F8C90], eax ; add rsp, 0x18 ; ret ; (1 found)
0x403451: mov  [0x00000000004F8CE0], 0x00000800 ; pop rbx ; ret ; (1 found)
0x403448: mov  [0x00000000004F8CE0], eax ; pop rbx ; ret ; (1 found)
0x4bf43c: mov  [0x00000000004F8FB0], 0x00000000 ; add rsp, 0x08 ; ret ; (1 found)
0x4bf88e: mov  [0x00000000004F9158], 0x00000000 ; add rsp, 0x08 ; ret ; (1 found)
0x4a82a1: mov  [0x00000000004F9218], eax ; add rsp, 0x08 ; ret ; (1 found)
0x4ad7c1: mov  [0x00000000004F9278], 0x00000000 ; add rsp, 0x08 ; ret ; (1 found)
0x4b14bd: mov  [0x00000000004F9388], 0x00000000 ; pop rbx ; ret ; (1 found)
0x4b3b9a: mov  [0x00000048], eax ; ret ; (1 found)
0x4b3b99: mov  [0x00000048], r8d ; ret ; (1 found)
0x42497c: mov  [0x000002F8], edi ; ret ; (2 found)
0x45c90e: mov  [0x00016D05C0920F00], eax ; add byte [rcx+0x29], al ; retn 0x8944 ; (1 found)
0x47c76e: mov  [0x059DB23D8D480005], eax ; add al, ch ; ret ; (1 found)
0x4758d9: mov  [0x480F75C0850001DC], eax ; add esp, 0x08 ; ret ; (1 found)
0x4be27c: mov  [0x894CE18948000000], eax ; retn 0xD5E8 ; (1 found)
0x4bf590: mov  [0xC7481F7400000319], eax ; ror byte [rax+0x48FFFFFF], 0xC7 ; retn 0xEFE0 ; (1 found)
0x4b3b98: mov  [fs:0x00000048], r8d ; ret ; (1 found)
0x41e62f: mov  [fs:rax], 0x00000009 ; mov eax, 0xFFFFFFFF ; ret ; (2 found)
0x461377: mov  [fs:rax], 0x0000000C ; mov eax, 0xFFFFFFFF ; ret ; (1 found)
0x428b57: mov  [fs:rax], 0x0000000C ; xor eax, eax ; ret ; (1 found)
0x45eea0: mov  [fs:rax], 0x00000016 ; mov eax, 0xFFFFFFFF ; ret ; (2 found)
0x40b719: mov  [fs:rax], 0x00000016 ; mov rax, 0xFFFFFFFFFFFFFFFF ; ret ; (3 found)
0x45e71f: mov  [fs:rax], 0x00000026 ; mov eax, 0xFFFFFFFF ; ret ; (1 found)
0x46026d: mov  [fs:rcx], eax ; or rax, 0xFFFFFFFFFFFFFFFF ; ret ; (17 found)
0x45e701: mov  [fs:rdx], eax ; mov eax, 0xFFFFFFFF ; ret ; (8 found)
0x45f68f: mov  [fs:rdx], eax ; mov eax, r8d ; ret ; (1 found)
0x460659: mov  [fs:rdx], eax ; mov rax, 0xFFFFFFFFFFFFFFFF ; ret ; (9 found)
0x44076a: mov  [r9-0x02], ecx ; ret ; (1 found)
0x440755: mov  [r9-0x04], ecx ; ret ; (1 found)
0x492095: mov  [rax+0x0000006E], edi ; ret ; (1 found)
0x423071: mov  [rax+0x000000A0], 0xFFFFFFFF ; mov qword [rax+0x000000A8], 0x0000000000000000 ; ret ; (1 found)
0x423065: mov  [rax+0x000000A8], 0x00000000 ; ret ; (2 found)
0x4ac1a9: mov  [rax+0x00000310], edx ; movups  [rax+0x00000300], xmm0 ; ret ; (1 found)
0x4b3ec5: mov  [rax+0x00000378], edx ; pop rbx ; ret ; (1 found)
0x40a478: mov  [rax+0x04], ebx ; pop rbx ; ret ; (1 found)
0x422fb0: mov  [rax+0x08], 0x00000000 ; ret ; (1 found)
0x463834: mov  [rax+0x08], edx ; ret ; (1 found)
0x423b73: mov  [rax+0x08], esi ; xor eax, eax ; ret ; (2 found)
0x4b142d: mov  [rax+0x10], 0x00000000 ; ret ; (1 found)
0x426318: mov  [rax+0x20], edx ; add rsp, 0x08 ; ret ; (1 found)
0x464766: mov  [rax+0x40], edx ; mov byte [rax+0x50], 0x01 ; ret ; (1 found)
0x4908cf: mov  [rax+0x40], edx ; movups  [rax], xmm0 ; ret ; (1 found)
0x490894: mov  [rax+0x40], edx ; movups  [rax], xmm1 ; ret ; (1 found)
0x464780: mov  [rax+0x48], edx ; ret ; (2 found)
0x49df16: mov  [rax+0x74FFFFFF], 0xC0C74853 ; cmp bh, 0xFF ; jmp qword [rax+rcx*2-0x75] ; (1 found)
0x49eac6: mov  [rax+0x7507343B], 0xF8014807 ; vzeroupper ; ret ; (1 found)
0x4b7c33: mov  [rax+rcx*2], 0xE900D283 ; sal ch, 0xFF ; jmp qword [rsi-0x70] ; (1 found)
0x451a6b: mov  [rax+rdx-0x04], edi ; ret ; (3 found)
0x451c22: mov  [rax+rdx-0x04], edi ; vzeroupper ; ret ; (1 found)
0x451a64: mov  [rax+rdx-0x08], edi ; ret ; (3 found)
0x451c14: mov  [rax+rdx-0x08], edi ; vzeroupper ; ret ; (1 found)
0x4bfef8: mov  [rax-0x77], ecx ; retn 0xC148 ; (1 found)
0x422fa9: mov  [rax], 0x00000000 ; mov qword [rax+0x08], 0x0000000000000000 ; ret ; (1 found)
0x41e630: mov  [rax], 0x00000009 ; mov eax, 0xFFFFFFFF ; ret ; (2 found)
0x461378: mov  [rax], 0x0000000C ; mov eax, 0xFFFFFFFF ; ret ; (1 found)
0x428b58: mov  [rax], 0x0000000C ; xor eax, eax ; ret ; (1 found)
0x45eea1: mov  [rax], 0x00000016 ; mov eax, 0xFFFFFFFF ; ret ; (2 found)
0x40b71a: mov  [rax], 0x00000016 ; mov rax, 0xFFFFFFFFFFFFFFFF ; ret ; (3 found)
0x45e720: mov  [rax], 0x00000026 ; mov eax, 0xFFFFFFFF ; ret ; (1 found)
0x466c1f: mov  [rax], 0x25810000 ; jmp qword [rax] ; (1 found)
0x41c044: mov  [rax], 0x89480000 ; ret ; (1 found)
0x451a69: mov  [rax], edi ; mov  [rax+rdx-0x04], edi ; ret ; (3 found)
0x451a71: mov  [rax], edi ; mov byte [rax+rdx-0x01], dil ; ret ; (3 found)
0x451a61: mov  [rax], edi ; mov qword [rax+rdx-0x08], rdi ; ret ; (3 found)
0x4b4385: mov  [rax], edi ; pop rbx ; ret ; (1 found)
0x4aec47: mov  [rax], edx ; mov qword [0x00000000004F8C48], 0x0000000000000000 ; ret ; (1 found)
0x4b4379: mov  [rax], edx ; pop rbx ; ret ; (2 found)
0x4bc3b1: mov  [rax], edx ; ret ; (6 found)
0x491948: mov  [rax], edx ; xor eax, eax ; ret ; (2 found)
0x493d88: mov  [rax], esi ; ret ; (2 found)
0x4abd9a: mov  [rbp-0x00000088], ecx ; call rax ; (1 found)
0x4ab87e: mov  [rbp-0x000000A0], ebx ; call r9 ; (1 found)
0x4ab659: mov  [rbp-0x000000A0], edx ; call rax ; (1 found)
0x4aaf76: mov  [rbp-0x000000B0], edx ; call r9 ; (1 found)
0x4aae02: mov  [rbp-0x000000B0], edx ; call rax ; (1 found)
0x4ab877: mov  [rbp-0x000000D0], edx ; mov qword [rbp-0x000000A0], r11 ; call r9 ; (1 found)
0x485d21: mov  [rbp-0x000000E8], eax ; call rax ; (1 found)
0x4aaf6f: mov  [rbp-0x000000E8], ebx ; mov qword [rbp-0x000000B0], r10 ; call r9 ; (1 found)
0x418124: mov  [rbp-0x000008A0], esi ; call qword [r8+rcx*8-0x40] ; (1 found)
0x41811d: mov  [rbp-0x000008A8], eax ; mov qword [rbp-0x000008A0], rsi ; call qword [r8+rcx*8-0x40] ; (1 found)
0x48c7ae: mov  [rbp-0x000008B0], esi ; call qword [r8+rcx*8-0x40] ; (1 found)
0x48c7a7: mov  [rbp-0x000008C8], eax ; mov qword [rbp-0x000008B0], rsi ; call qword [r8+rcx*8-0x40] ; (1 found)
0x472b62: mov  [rbx+0x10], 0x00000000 ; pop rbx ; ret ; (2 found)
0x4b4729: mov  [rbx+0x18], eax ; pop rbx ; ret ; (1 found)
0x4b486d: mov  [rbx+0x20], eax ; pop rbx ; ret ; (2 found)
0x4755ef: mov  [rbx+0x40], esi ; pop rbx ; ret ; (1 found)
0x4208ce: mov  [rbx+0x70], 0xFFFFFFFF ; pop rbx ; ret ; (2 found)
0x4b49f2: mov  [rbx], 0x00000000 ; pop rbx ; ret ; (1 found)
0x491071: mov  [rbx], ecx ; pop rbx ; ret ; (1 found)
0x49f007: mov  [rcx+0x01], 0x02E8C1F8 ; vzeroupper ; ret ; (1 found)
0x4494e7: mov  [rcx+0x01], 0x77F8C5F8 ; ret ; (1 found)
0x492040: mov  [rcx+rsi-0x3A], eax ; xor r8d, r8d ; syscall ; (1 found)
0x44076b: mov  [rcx-0x02], ecx ; ret ; (1 found)
0x45e793: mov  [rcx-0x04], ebp ; jmp qword [rsi+0x0F] ; (1 found)
0x440756: mov  [rcx-0x04], ecx ; ret ; (1 found)
0x440745: mov  [rcx-0x08], ecx ; ret ; (1 found)
0x49efc7: mov  [rcx], 0x02E8C1F8 ; vzeroupper ; ret ; (1 found)
0x42c461: mov  [rcx], 0x440F4800 ; retn 0x0FC3 ; (1 found)
0x4494c7: mov  [rcx], 0x77F8C5F8 ; ret ; (1 found)
0x46026e: mov  [rcx], eax ; or rax, 0xFFFFFFFFFFFFFFFF ; ret ; (17 found)
0x4bb61b: mov  [rcx], edx ; ret ; (1 found)
0x4bb665: mov  [rdi+0x00000098], esi ; ret ; (1 found)
0x422e5f: mov  [rdi+0x000000C0], 0xFFFFFFFF ; movups  [rdi+0x000000A0], xmm0 ; ret ; (2 found)
0x463a54: mov  [rdi+0x00000460], edx ; add rsp, 0x08 ; ret ; (1 found)
0x43d8d5: mov  [rdi+0x01], edx ; mov  [rdi], ecx ; ret ; (2 found)
0x43d718: mov  [rdi+0x01], edx ; mov qword [rdi], rcx ; ret ; (2 found)
0x43d9b8: mov  [rdi+0x01], edx ; mov word [rdi], cx ; ret ; (2 found)
0x43d865: mov  [rdi+0x02], edx ; mov  [rdi], ecx ; ret ; (2 found)
0x43d6a8: mov  [rdi+0x02], edx ; mov qword [rdi], rcx ; ret ; (2 found)
0x44d807: mov  [rdi+0x03], edx ; lea rax, qword [rdi+0x06] ; ret ; (1 found)
0x43d7f5: mov  [rdi+0x03], edx ; mov  [rdi], ecx ; ret ; (2 found)
0x43d638: mov  [rdi+0x03], edx ; mov qword [rdi], rcx ; ret ; (2 found)
0x44d1c7: mov  [rdi+0x03], edx ; ret ; (1 found)
0x44d7e9: mov  [rdi+0x04], edx ; lea rax, qword [rdi+0x05] ; ret ; (1 found)
0x43d5c8: mov  [rdi+0x04], edx ; mov qword [rdi], rcx ; ret ; (2 found)
0x44d1b9: mov  [rdi+0x04], edx ; ret ; (1 found)
0x44d89b: mov  [rdi+0x05], edx ; lea rax, qword [rdi+0x0C] ; ret ; (1 found)
0x43d558: mov  [rdi+0x05], edx ; mov qword [rdi], rcx ; ret ; (2 found)
0x44d22b: mov  [rdi+0x05], edx ; ret ; (1 found)
0x44d8bb: mov  [rdi+0x06], edx ; lea rax, qword [rdi+0x0D] ; ret ; (1 found)
0x43d4e8: mov  [rdi+0x06], edx ; mov qword [rdi], rcx ; ret ; (2 found)
0x44d23b: mov  [rdi+0x06], edx ; ret ; (1 found)
0x44d859: mov  [rdi+0x07], edx ; lea rax, qword [rdi+0x0A] ; ret ; (1 found)
0x44d8db: mov  [rdi+0x07], edx ; lea rax, qword [rdi+0x0E] ; ret ; (1 found)
0x43d478: mov  [rdi+0x07], edx ; mov qword [rdi], rcx ; ret ; (2 found)
0x44d209: mov  [rdi+0x07], edx ; ret ; (2 found)
0x47f828: mov  [rdi+0x08], ecx ; ret ; (1 found)
0x44d83b: mov  [rdi+0x08], edx ; lea rax, qword [rdi+0x09] ; ret ; (1 found)
0x44d879: mov  [rdi+0x08], edx ; lea rax, qword [rdi+0x0B] ; ret ; (1 found)
0x44d1fb: mov  [rdi+0x08], edx ; ret ; (2 found)
0x44d99d: mov  [rdi+0x0E], ecx ; lea rax, qword [rdi+0x15] ; ret ; (1 found)
0x44d2dd: mov  [rdi+0x0E], ecx ; ret ; (1 found)
0x44d93b: mov  [rdi+0x0F], ecx ; lea rax, qword [rdi+0x12] ; ret ; (1 found)
0x44d9bd: mov  [rdi+0x0F], ecx ; lea rax, qword [rdi+0x16] ; ret ; (1 found)
0x44d29b: mov  [rdi+0x0F], ecx ; ret ; (2 found)
0x44d91d: mov  [rdi+0x10], ecx ; lea rax, qword [rdi+0x11] ; ret ; (1 found)
0x44d95b: mov  [rdi+0x10], ecx ; lea rax, qword [rdi+0x13] ; ret ; (1 found)
0x44d9dd: mov  [rdi+0x10], ecx ; lea rax, qword [rdi+0x17] ; ret ; (1 found)
0x44d2bb: mov  [rdi+0x10], ecx ; mov byte [rdi+0x14], dh ; ret ; (1 found)
0x44d33d: mov  [rdi+0x10], ecx ; mov byte [rdi+0x18], dh ; ret ; (1 found)
0x44d27d: mov  [rdi+0x10], ecx ; ret ; (4 found)
0x44d380: mov  [rdi+0x10], edx ; mov  [rdi+0x17], ecx ; ret ; (1 found)
0x44d3a0: mov  [rdi+0x10], edx ; mov  [rdi+0x18], ecx ; ret ; (1 found)
0x44d361: mov  [rdi+0x10], edx ; mov word [rdi+0x18], cx ; ret ; (1 found)
0x44da43: mov  [rdi+0x17], ecx ; lea rax, qword [rdi+0x1A] ; ret ; (1 found)
0x44d383: mov  [rdi+0x17], ecx ; ret ; (1 found)
0x4aeaf5: mov  [rdi+0x18], eax ; mov qword [fs:0x000002F8], rdi ; ret ; (1 found)
0x44da25: mov  [rdi+0x18], ecx ; lea rax, qword [rdi+0x19] ; ret ; (1 found)
0x44da63: mov  [rdi+0x18], ecx ; lea rax, qword [rdi+0x1B] ; ret ; (1 found)
0x44d365: mov  [rdi+0x18], ecx ; ret ; (2 found)
0x424f28: mov  [rdi+0x1C], eax ; xor eax, eax ; ret ; (1 found)
0x421fa8: mov  [rdi+0x48], eax ; movups  [rdi+0x08], xmm0 ; ret ; (1 found)
0x421f6d: mov  [rdi+0x48], eax ; movups  [rdi+0x08], xmm1 ; ret ; (1 found)
0x451174: mov  [rdi+rdx+0x02], esi ; mov byte [rdi], cl ; ret ; (2 found)
0x4503c9: mov  [rdi+rdx-0x02], esi ; mov byte [rdi], cl ; ret ; (3 found)
0x455b98: mov  [rdi+rdx-0x03], ecx ; lea rax, qword [rdi+rdx] ; ret ; (1 found)
0x456968: mov  [rdi+rdx-0x03], ecx ; ret ; (1 found)
0x449bf8: mov  [rdi+rdx-0x03], ecx ; vzeroupper ; ret ; (1 found)
0x4503d5: mov  [rdi+rdx-0x04], ecx ; mov  [rdi], esi ; ret ; (6 found)
0x455bbc: mov  [rdi+rdx-0x07], ecx ; lea rax, qword [rdi+rdx] ; ret ; (1 found)
0x45697c: mov  [rdi+rdx-0x07], ecx ; ret ; (1 found)
0x449c0c: mov  [rdi+rdx-0x07], ecx ; vzeroupper ; ret ; (1 found)
0x4503ec: mov  [rdi+rdx-0x08], ecx ; ret ; (5 found)
0x45113e: mov  [rdi+rdx], esi ; ret ; (2 found)
0x4bb621: mov  [rdi+rsi*8], edx ; ret ; (1 found)
0x437a5d: mov  [rdi-0x02], ecx ; ret ; (4 found)
0x437875: mov  [rdi-0x02], edx ; ret ; (4 found)
0x437a59: mov  [rdi-0x03], edx ; mov word [rdi-0x02], cx ; ret ; (4 found)
0x437e39: mov  [rdi-0x04], ecx ; ret ; (20 found)
0x43750f: mov  [rdi-0x04], edx ; ret ; (70 found)
0x437e36: mov  [rdi-0x05], edx ; mov  [rdi-0x04], ecx ; ret ; (4 found)
0x438036: mov  [rdi-0x06], edx ; mov  [rdi-0x04], ecx ; ret ; (4 found)
0x438236: mov  [rdi-0x07], edx ; mov  [rdi-0x04], ecx ; ret ; (4 found)
0x437359: mov  [rdi-0x08], ecx ; ret ; (11 found)
0x437397: mov  [rdi-0x08], edx ; ret ; (70 found)
0x43750c: mov  [rdi-0x09], eax ; mov  [rdi-0x04], edx ; ret ; (2 found)
0x437554: mov  [rdi-0x09], ecx ; mov  [rdi-0x04], edx ; ret ; (10 found)
0x437608: mov  [rdi-0x09], ecx ; mov byte [rdi-0x01], dl ; ret ; (6 found)
0x43cfa8: mov  [rdi-0x09], edx ; mov  [rdi-0x04], ecx ; ret ; (2 found)
0x4376dc: mov  [rdi-0x0A], ecx ; mov  [rdi-0x04], edx ; ret ; (18 found)
0x43cf28: mov  [rdi-0x0A], edx ; mov  [rdi-0x04], ecx ; ret ; (2 found)
0x4378bc: mov  [rdi-0x0B], ecx ; mov  [rdi-0x04], edx ; ret ; (18 found)
0x43cea8: mov  [rdi-0x0B], edx ; mov  [rdi-0x04], ecx ; ret ; (2 found)
0x437aac: mov  [rdi-0x0C], ecx ; mov  [rdi-0x04], edx ; ret ; (18 found)
0x43ce28: mov  [rdi-0x0C], edx ; mov  [rdi-0x04], ecx ; ret ; (2 found)
0x437c7d: mov  [rdi-0x0D], ecx ; mov qword [rdi-0x08], rdx ; ret ; (18 found)
0x43cd99: mov  [rdi-0x0D], edx ; mov qword [rdi-0x08], rcx ; ret ; (2 found)
0x437e7d: mov  [rdi-0x0E], ecx ; mov qword [rdi-0x08], rdx ; ret ; (18 found)
0x43cd09: mov  [rdi-0x0E], edx ; mov qword [rdi-0x08], rcx ; ret ; (2 found)
0x43807d: mov  [rdi-0x0F], ecx ; mov qword [rdi-0x08], rdx ; ret ; (18 found)
0x43cc79: mov  [rdi-0x0F], edx ; mov qword [rdi-0x08], rcx ; ret ; (2 found)
0x437355: mov  [rdi-0x10], ebx ; mov qword [rdi-0x08], rcx ; ret ; (4 found)
0x437393: mov  [rdi-0x10], ebx ; mov qword [rdi-0x08], rdx ; ret ; (12 found)
0x47f78f: mov  [rdi-0x10], ecx ; ret ; (1 found)
0x4ae571: mov  [rdi], 0x00000000 ; mov eax, 0x00000001 ; ret ; (1 found)
0x4ae6cd: mov  [rdi], 0x00000000 ; mov eax, 0x00000002 ; ret ; (1 found)
0x4ae5a8: mov  [rdi], eax ; mov eax, 0x00000001 ; ret ; (1 found)
0x4ae732: mov  [rdi], eax ; mov eax, 0x00000002 ; ret ; (2 found)
0x44d7d5: mov  [rdi], ecx ; lea rax, qword [rdi+0x04] ; ret ; (1 found)
0x44d827: mov  [rdi], ecx ; lea rax, qword [rdi+0x08] ; ret ; (1 found)
0x44d1c5: mov  [rdi], ecx ; mov  [rdi+0x03], edx ; ret ; (1 found)
0x44d207: mov  [rdi], ecx ; mov  [rdi+0x07], edx ; ret ; (1 found)
0x44d217: mov  [rdi], ecx ; mov  [rdi+0x08], edx ; ret ; (1 found)
0x45113c: mov  [rdi], ecx ; mov  [rdi+rdx], esi ; ret ; (2 found)
0x4500ab: mov  [rdi], ecx ; mov  [rsi-0x04], ecx ; ret ; (1 found)
0x456944: mov  [rdi], ecx ; mov byte [rdi+0x02], 0x00 ; ret ; (1 found)
0x44d184: mov  [rdi], ecx ; mov byte [rdi+0x02], dh ; ret ; (1 found)
0x44d228: mov  [rdi], ecx ; mov qword [rdi+0x05], rdx ; ret ; (1 found)
0x44d238: mov  [rdi], ecx ; mov qword [rdi+0x06], rdx ; ret ; (1 found)
0x44d248: mov  [rdi], ecx ; mov qword [rdi+0x07], rdx ; ret ; (1 found)
0x456979: mov  [rdi], ecx ; mov qword [rdi+rdx-0x07], r9 ; ret ; (1 found)
0x44d1b6: mov  [rdi], ecx ; mov word [rdi+0x04], dx ; ret ; (1 found)
0x44d1f8: mov  [rdi], ecx ; mov word [rdi+0x08], dx ; ret ; (1 found)
0x4500b7: mov  [rdi], ecx ; mov word [rsi-0x02], cx ; ret ; (1 found)
0x43d47c: mov  [rdi], ecx ; ret ; (26 found)
0x44d7a4: mov  [rdi], edx ; lea rax, qword [rdi+0x01] ; ret ; (2 found)
0x44d7c2: mov  [rdi], edx ; lea rax, qword [rdi+0x03] ; ret ; (2 found)
0x44d814: mov  [rdi], edx ; lea rax, qword [rdi+0x07] ; ret ; (1 found)
0x43d784: mov  [rdi], edx ; ret ; (11 found)
0x449bc4: mov  [rdi], edx ; vzeroupper ; ret ; (2 found)
0x440753: mov  [rdi], esi ; mov  [r9-0x04], ecx ; ret ; (1 found)
0x440742: mov  [rdi], esi ; mov qword [r9-0x08], rcx ; ret ; (1 found)
0x4503e9: mov  [rdi], esi ; mov qword [rdi+rdx-0x08], rcx ; ret ; (5 found)
0x440767: mov  [rdi], esi ; mov word [r9-0x02], cx ; ret ; (1 found)
0x4503da: mov  [rdi], esi ; ret ; (3 found)
0x41ee3d: mov  [rdx+0x000000E0], ecx ; pop rbx ; ret ; (1 found)
0x41c00b: mov  [rdx+0x000000E0], ecx ; ret ; (1 found)
0x44cd17: mov  [rdx+0x03], eax ; lea rax, qword [rdx+0x06] ; ret ; (1 found)
0x44b547: mov  [rdx+0x03], eax ; mov rax, rdi ; ret ; (1 found)
0x44ccf9: mov  [rdx+0x04], eax ; lea rax, qword [rdx+0x05] ; ret ; (1 found)
0x44b539: mov  [rdx+0x04], eax ; mov rax, rdi ; ret ; (1 found)
0x44cd29: mov  [rdx+0x05], eax ; lea rax, qword [rdx+0x08] ; ret ; (1 found)
0x44cdab: mov  [rdx+0x05], eax ; lea rax, qword [rdx+0x0C] ; ret ; (1 found)
0x44b559: mov  [rdx+0x05], eax ; mov rax, rdi ; ret ; (2 found)
0x44cd49: mov  [rdx+0x06], eax ; lea rax, qword [rdx+0x09] ; ret ; (1 found)
0x44cdcb: mov  [rdx+0x06], eax ; lea rax, qword [rdx+0x0D] ; ret ; (1 found)
0x44b569: mov  [rdx+0x06], eax ; mov rax, rdi ; ret ; (2 found)
0x44cd69: mov  [rdx+0x07], eax ; lea rax, qword [rdx+0x0A] ; ret ; (1 found)
0x44cdeb: mov  [rdx+0x07], eax ; lea rax, qword [rdx+0x0E] ; ret ; (1 found)
0x44b579: mov  [rdx+0x07], eax ; mov rax, rdi ; ret ; (2 found)
0x44cd89: mov  [rdx+0x08], eax ; lea rax, qword [rdx+0x0B] ; ret ; (1 found)
0x44cc7b: mov  [rdx+0x08], eax ; lea rax, qword [rdx+0x0F] ; ret ; (1 found)
0x44b4cb: mov  [rdx+0x08], eax ; mov rax, rdi ; ret ; (2 found)
0x472b77: mov  [rdx+0x08], eax ; pop rbx ; ret ; (1 found)
0x464cbb: mov  [rdx+0x40], ecx ; mov byte [rdx+0x50], 0x01 ; ret ; (1 found)
0x4ae5fc: mov  [rdx], 0x00000000 ; mov eax, 0x00000001 ; ret ; (1 found)
0x4ae662: mov  [rdx], 0xFFFFC002 ; ret ; (1 found)
0x44cca4: mov  [rdx], eax ; lea rax, qword [rdx+0x01] ; ret ; (1 found)
0x44ccd2: mov  [rdx], eax ; lea rax, qword [rdx+0x03] ; ret ; (1 found)
0x44cc24: mov  [rdx], eax ; lea rax, qword [rdx+0x07] ; ret ; (1 found)
0x4ae647: mov  [rdx], eax ; mov eax, 0x00000001 ; ret ; (1 found)
0x45e702: mov  [rdx], eax ; mov eax, 0xFFFFFFFF ; ret ; (8 found)
0x45f690: mov  [rdx], eax ; mov eax, r8d ; ret ; (1 found)
0x46065a: mov  [rdx], eax ; mov rax, 0xFFFFFFFFFFFFFFFF ; ret ; (9 found)
0x44b474: mov  [rdx], eax ; mov rax, rdi ; ret ; (3 found)
0x4b43f1: mov  [rdx], eax ; pop rbx ; ret ; (1 found)
0x423ac9: mov  [rdx], eax ; ret ; (3 found)
0x4b142a: mov  [rdx], ecx ; mov qword [rax+0x10], 0x0000000000000000 ; ret ; (1 found)
0x4b9503: mov  [rdx], edx ; pop rbx ; ret ; (2 found)
0x4ae6e9: mov  [rsi+0x08], eax ; mov eax, 0x00000002 ; ret ; (1 found)
0x40587d: mov  [rsi+0x10], esi ; syscall ; (1 found)
0x4b05f1: mov  [rsi+0x18], 0x00000000 ; ret ; (1 found)
0x4b05e9: mov  [rsi+0x18], edx ; ret ; (1 found)
0x4500ba: mov  [rsi-0x02], ecx ; ret ; (1 found)
0x4500ad: mov  [rsi-0x04], ecx ; ret ; (1 found)
0x4bb652: mov  [rsi], eax ; mov rax, qword [rdi+0x00000098] ; ret ; (1 found)
0x463bc6: mov  [rsi], eax ; ret ; (1 found)
0x4a857d: mov  [rsi], ecx ; mov rax, r8 ; ret ; (1 found)
0x4b4403: mov  [rsi], ecx ; sti ; jmp qword [rsi+0x0F] ; (1 found)
0x4aec8b: mov  [rsi], edi ; mov qword [0x00000000004F8C48], 0x0000000000000000 ; ret ; (1 found)
0x4ae58b: mov  [rsi], edx ; ret ; (1 found)
0x40587a: mov  [rsi], esi ; mov qword [rsi+0x10], rsi ; syscall ; (1 found)
0x4a0f2f: mov  [rsp+0x00000088], edx ; mov qword [rsp+0x38], rdx ; call r12 ; (2 found)
0x4a0c9e: mov  [rsp+0x000000D0], eax ; call r12 ; (1 found)
0x4bc237: mov  [rsp+0x08], ecx ; call rax ; (1 found)
0x41d027: mov  [rsp+0x08], ecx ; mov rdi, r15 ; call rax ; (1 found)
0x41f650: mov  [rsp+0x08], ecx ; mov rdi, rbp ; call rax ; (1 found)
0x4bdb3b: mov  [rsp+0x10], ecx ; mov rsi, qword [rbx+rcx*8+0x10] ; call rbp ; (1 found)
0x4a0f37: mov  [rsp+0x38], edx ; call r12 ; (2 found)
0x48ce72: mov  [rsp+0x50], 0x00000020 ; jmp rdx ; (1 found)
0x48ce6a: mov  [rsp+0x54], 0x00000000 ; mov  [rsp+0x50], 0x00000020 ; jmp rdx ; (1 found)
0x4188fc: mov  [rsp+0x58], 0x00000000 ; mov byte [rsp+0x40], 0x20 ; jmp rdx ; (1 found)
0x483fcb: mov  [rsp-0x10], eax ; movdqa xmm0,  [rsp-0x18] ; ret ; (1 found)
0x480e6c: mov  [rsp-0x10], esi ; fld tword [rsp-0x18] ; ret ; (1 found)
0x42a41f: mov ah, 0xFF ; jmp qword [rsi+0x0F] ; (1 found)
0x4bb6c7: mov al, 0x00 ; add byte [rax], al ; ret ; (1 found)
0x45f80c: mov al, 0x51 ; cld ; jmp qword [rsi+0x0F] ; (1 found)
0x493c21: mov al, 0xF8 ; jmp qword [rsi+0x2E] ; (1 found)
0x46aa9b: mov al, 0xF9 ; jmp qword [rsi-0x70] ; (1 found)
0x4aa21f: mov al, 0xFB ; jmp qword [rsi+0x66] ; (1 found)
0x45ee6e: mov al, 0xFC ; jmp qword [rsi+0x0F] ; (2 found)
0x42a8d4: mov al, 0xFF ; jmp qword [rsi+0x0F] ; (1 found)
0x4686d3: mov al, 0xFF ; jmp qword [rsi+0x2E] ; (1 found)
0x4172e9: mov al, bl ; add eax, 0xC7480000 ; ret ; (1 found)
0x41c006: mov al, byte [0x00E08A8948000000] ; add byte [rax], al ; ret ; (1 found)
0x460267: mov al, byte [0x018964D8F7FFFFFF] ; or rax, 0xFFFFFFFFFFFFFFFF ; ret ; (17 found)
0x45e6fb: mov al, byte [0x028964D8F7FFFFFF] ; mov eax, 0xFFFFFFFF ; ret ; (8 found)
0x460653: mov al, byte [0x028964D8F7FFFFFF] ; mov rax, 0xFFFFFFFFFFFFFFFF ; ret ; (9 found)
0x42b9fc: mov al, byte [0x488204634800098C] ; add eax, edx ; jmp rax ; (1 found)
0x423073: mov al, byte [0x48FFFFFFFF000000] ; mov  [rax+0x000000A8], 0x00000000 ; ret ; (1 found)
0x4a13c9: mov al, byte [0x5D5BE0894C000000] ; pop r12 ; ret ; (2 found)
0x4204d7: mov al, byte [0x5D5BEF8948000000] ; pop r12 ; jmp rax ; (1 found)
0x48d568: mov al, byte [0x840FC08548000000] ; retn 0x0012 ; (1 found)
0x413358: mov al, byte [0xFFFA00858BFFFFFF] ; jmp qword [rcx+rax*2-0x77] ; (4 found)
0x4150a8: mov al, byte [0xFFFD37E901FFFFF9] ; dec  [rcx-0x39] ; retn 0xFFA0 ; (1 found)
0x454fe6: mov al, byte [0xFFFE56870FC0F983] ; jmp qword [rdx-0x1F] ; (1 found)
0x406b75: mov al, byte [0xFFFF3C8D8BFFFFFF] ; jmp qword [rcx+rcx*4+0x08] ; (3 found)
0x4a331b: mov al, byte [0xFFFFFFB841FFFFFF] ; jmp qword [rdi+rax*8+0x00] ; (1 found)
0x418b33: mov al, byte [0xFFFFFFBC41FFFFFF] ; jmp qword [rdi+rax*8+0x00] ; (9 found)
0x4865c3: mov al, byte [0xFFFFFFBD41FFFFFF] ; jmp qword [rdi+rax*8+0x00] ; (3 found)
0x45a937: mov bh, 0x15 ; ret ; (1 found)
0x43da21: mov bh, 0x16 ; mov word [rdi], dx ; ret ; (3 found)
0x465701: mov bh, 0x42 ; or byte [rax-0x7D], cl ; retn 0x4110 ; (1 found)
0x4030a7: mov bh, 0x48 ; add eax, edi ; jmp rax ; (1 found)
0x48f2d9: mov bh, 0x48 ; add esi, edi ; jmp rsi ; (1 found)
0x44df68: mov bh, 0x48 ; lea eax,  [rdi+0x07] ; ret ; (1 found)
0x45988c: mov bh, 0x59 ; adc byte [rcx+0x29], al ; ret ; (1 found)
0x493522: mov bh, 0xF8 ; jmp qword [rsi+0x66] ; (1 found)
0x42a1de: mov bh, 0xFF ; jmp qword [rsi+0x66] ; (2 found)
0x415553: mov bh, bh ; jmp qword [rsi+0x2E] ; (1 found)
0x4576ff: mov bl, 0x45 ; and byte [rdi], bh ; retn 0xC500 ; (2 found)
0x4a022c: mov bl, 0x45 ; and byte [rdi], bl ; retn 0xC500 ; (1 found)
0x455d4e: mov bl, 0x75 ; and byte [rdi], bh ; retn 0x6200 ; (4 found)
0x49f9fe: mov bl, 0x75 ; and byte [rdi], bl ; retn 0x6200 ; (2 found)
0x455887: mov bl, 0x7D ; and byte [rdi], bh ; ret ; (8 found)
0x456aed: mov bl, 0x7D ; and byte [rdi], bh ; retn 0x6200 ; (2 found)
0x455861: mov bl, 0x7D ; and byte [rdi], bh ; retn 0xC500 ; (8 found)
0x459521: mov bl, 0x7D ; and byte [rdi], bl ; ret ; (2 found)
0x459483: mov bl, 0x7D ; and byte [rdi], bl ; retn 0x6200 ; (2 found)
0x4beb72: mov bl, 0xF6 ; jmp qword [rsi+0x2E] ; (1 found)
0x401b3a: mov byte [0x00000000004F34A0], 0x01 ; pop rbp ; ret ; (1 found)
0x466f5d: mov byte [0x00000000004F8EE0], al ; pop rbx ; ret ; (2 found)
0x466f8e: mov byte [0x00000000004F8EE0], al ; ret ; (2 found)
0x4b92bd: mov byte [0x00000000004F93AF], 0x08 ; mov byte [0x00000000004F93B0], 0x08 ; ret ; (1 found)
0x4b92c4: mov byte [0x00000000004F93B0], 0x08 ; ret ; (1 found)
0x46b178: mov byte [0x000000003DD3F97F], 0x1C ; mov byte [0xFFFFFFFFAA009986], 0xF9 ; jmp qword [rsi+0x0F] ; (1 found)
0x424972: mov byte [0x00000972], 0x00 ; mov qword [fs:0x000002F8], rdi ; ret ; (1 found)
0x4055aa: mov byte [0x0098C48148000000], al ; add byte [rax], al ; ret ; (1 found)
0x4aa156: mov byte [0x08C48348C031FFFB], al ; ret ; (1 found)
0x4905ba: mov byte [0x314BE8C8EBFFF8E6], al ; std ; jmp qword [rsi+0x2E] ; (1 found)
0x42c238: mov byte [0xFD994EE95C41000A], al ; jmp qword [rsi+0x0F] ; (1 found)
0x446656: mov byte [0xFFFFFFFF838C665D], 0xC2 ; adc byte [rcx-0x7D], cl ; retn 0x7F10 ; (1 found)
0x47057d: mov byte [0xFFFFFFFF8D900583], al ; add r9L, byte [r8+0x39] ; ret ; (1 found)
0x46b17f: mov byte [0xFFFFFFFFAA009986], 0xF9 ; jmp qword [rsi+0x0F] ; (1 found)
0x479e37: mov byte [0xFFFFFFFFBD49863E], 0xF8 ; call qword [rax+0x56415741] ; (1 found)
0x424971: mov byte [fs:0x00000972], 0x00 ; mov qword [fs:0x000002F8], rdi ; ret ; (1 found)
0x4062b9: mov byte [r8-0x73], r9L ; sbb byte [rax-0x77], cl ; retn 0x8948 ; (1 found)
0x491ed2: mov byte [rax+0x00000972], 0x00 ; ret ; (1 found)
0x46477b: mov byte [rax+0x50], 0x01 ; mov qword [rax+0x48], rdx ; ret ; (2 found)
0x464768: mov byte [rax+0x50], 0x01 ; ret ; (2 found)
0x451a74: mov byte [rax+rdx-0x01], bh ; ret ; (3 found)
0x451c34: mov byte [rax+rdx-0x01], bh ; vzeroupper ; ret ; (1 found)
0x451a73: mov byte [rax+rdx-0x01], dil ; ret ; (3 found)
0x451c33: mov byte [rax+rdx-0x01], dil ; vzeroupper ; ret ; (1 found)
0x4062ba: mov byte [rax-0x73], cl ; sbb byte [rax-0x77], cl ; retn 0x8948 ; (1 found)
0x469243: mov byte [rax-0x7D], cl ; ret ; (1 found)
0x451a57: mov byte [rax], dh ; ret ; (3 found)
0x451bfc: mov byte [rax], dh ; vzeroupper ; ret ; (1 found)
0x451a56: mov byte [rax], sil ; ret ; (3 found)
0x451bfb: mov byte [rax], sil ; vzeroupper ; ret ; (1 found)
0x492043: mov byte [rbp+0x31], 0xC0 ; syscall ; (1 found)
0x4173cb: mov byte [rbp-0x000008E8], al ; call rax ; (1 found)
0x4173ca: mov byte [rbp-0x000008E8], r8L ; call rax ; (1 found)
0x4173c4: mov byte [rbp-0x000008EC], cl ; mov byte [rbp-0x000008E8], r8L ; call rax ; (1 found)
0x4173c3: mov byte [rbp-0x000008EC], r9L ; mov byte [rbp-0x000008E8], r8L ; call rax ; (1 found)
0x48b69f: mov byte [rbp-0x000008F8], cl ; call rax ; (1 found)
0x48b69e: mov byte [rbp-0x000008F8], r9L ; call rax ; (1 found)
0x48b698: mov byte [rbp-0x00000910], al ; mov byte [rbp-0x000008F8], r9L ; call rax ; (1 found)
0x48b697: mov byte [rbp-0x00000910], r8L ; mov byte [rbp-0x000008F8], r9L ; call rax ; (1 found)
0x47d47b: mov byte [rcx+0x0F], 0x95 ; ret ; (1 found)
0x409506: mov byte [rcx], 0x88 ; dec qword [rax-0x7D] ; retn 0x4901 ; (1 found)
0x455b76: mov byte [rdi+0x02], 0x00 ; lea rax, qword [rdi+0x02] ; ret ; (1 found)
0x456946: mov byte [rdi+0x02], 0x00 ; ret ; (1 found)
0x449bd6: mov byte [rdi+0x02], 0x00 ; vzeroupper ; ret ; (1 found)
0x44d7b6: mov byte [rdi+0x02], dh ; lea rax, qword [rdi+0x02] ; ret ; (1 found)
0x44d186: mov byte [rdi+0x02], dh ; ret ; (1 found)
0x44d1a2: mov byte [rdi+0x04], dh ; mov  [rdi], ecx ; ret ; (1 found)
0x44d1e3: mov byte [rdi+0x08], dh ; mov qword [rdi], rcx ; ret ; (1 found)
0x44d908: mov byte [rdi+0x10], dh ; lea rax, qword [rdi+0x10] ; ret ; (1 found)
0x44d268: mov byte [rdi+0x10], dh ; ret ; (1 found)
0x44d97e: mov byte [rdi+0x14], dh ; lea rax, qword [rdi+0x14] ; ret ; (1 found)
0x44d2be: mov byte [rdi+0x14], dh ; ret ; (1 found)
0x44da00: mov byte [rdi+0x18], dh ; lea rax, qword [rdi+0x18] ; ret ; (1 found)
0x44d340: mov byte [rdi+0x18], dh ; ret ; (1 found)
0x4161f5: mov byte [rdi+rcx*2], dh ; add byte [rax-0x77], cl ; retn 0x2949 ; (2 found)
0x41f47b: mov byte [rdi+rcx*2], dh ; add byte [rax-0x77], cl ; retn 0x294C ; (1 found)
0x43760b: mov byte [rdi-0x01], dl ; ret ; (10 found)
0x455ae1: mov byte [rdi], 0x00 ; lea rax, qword [rdi] ; ret ; (1 found)
0x4568b1: mov byte [rdi], 0x00 ; ret ; (1 found)
0x449b41: mov byte [rdi], 0x00 ; vzeroupper ; ret ; (1 found)
0x440776: mov byte [rdi], cl ; ret ; (7 found)
0x44d790: mov byte [rdi], dh ; lea rax, qword [rdi] ; ret ; (1 found)
0x44d160: mov byte [rdi], dh ; ret ; (1 found)
0x43da93: mov byte [rdi], dl ; ret ; (2 found)
0x425696: mov byte [rdx+0x00000971], bh ; xor eax, eax ; ret ; (1 found)
0x425695: mov byte [rdx+0x00000971], dil ; xor eax, eax ; ret ; (1 found)
0x44ccb9: mov byte [rdx+0x02], al ; lea rax, qword [rdx+0x02] ; ret ; (1 found)
0x44b509: mov byte [rdx+0x02], al ; mov rax, rdi ; ret ; (1 found)
0x44cce7: mov byte [rdx+0x04], al ; lea rax, qword [rdx+0x04] ; ret ; (1 found)
0x44b527: mov byte [rdx+0x04], al ; mov rax, rdi ; ret ; (1 found)
0x464cbc: mov byte [rdx+0x50], 0x01 ; ret ; (3 found)
0x44f39b: mov byte [rdx+rdx*8+0x00AC840F], 0x00 ; add dh, dh ; retn 0x7501 ; (1 found)
0x44cc92: mov byte [rdx], al ; lea rax, qword [rdx] ; ret ; (1 found)
0x44b4e2: mov byte [rdx], al ; mov rax, rdi ; ret ; (1 found)
0x418904: mov byte [rsp+0x40], 0x20 ; jmp rdx ; (1 found)
0x48c872: mov ch, 0x58 ; idiv edi ; jmp qword [rsi-0x77] ; (1 found)
0x468ca7: mov ch, 0x84 ; stc ; jmp qword [rsi+0x0F] ; (1 found)
0x405b31: mov ch, byte [rax+0x0D] ; add byte [rax-0x77], cl ; ret ; (1 found)
0x4a88ec: mov ch, dh ; call qword [rax+0x48C28948] ; (1 found)
0x4926d5: mov cl, 0x4D ; add byte [rsi+rdi-0x77], dh ; retn 0x48E9 ; (1 found)
0x46798b: mov cl, 0x97 ; stc ; call qword [rax-0x05E1F00D] ; (1 found)
0x4898d2: mov cl, 0xF9 ; jmp qword [rsi+0x2E] ; (1 found)
0x4164d2: mov cl, byte [rax+0x01] ; sar  [rsi], 1 ; jmp rcx ; (2 found)
0x475343: mov cl, byte [rax+0x39] ; ror byte [rax+0x0F], 1 ; retn 0x8B41 ; (1 found)
0x4bfbf8: mov cl, byte [rax-0x77] ; retn 0xC148 ; (1 found)
0x442f65: mov cl, byte [rbx-0x37D67DFC] ; ret ; (16 found)
0x42d3a4: mov cl, byte [rdi-0x73] ; adc al, 0x0A ; jmp r10 ; (8 found)
0x440774: mov cl, byte [rsi] ; mov byte [rdi], cl ; ret ; (1 found)
0x44750e: mov cs, word [0xFFFFFFFF838C7514] ; retn 0xE910 ; (1 found)
0x4b98ce: mov cs, word [rcx+rax-0x10] ; jmp rax ; (1 found)
0x45f751: mov cs, word [rcx] ; add byte [rax-0x77], cl ; ret ; (1 found)
0x46841e: mov cx, seg? ; jmp qword [rsi+0x49] ; (2 found)
0x423f54: mov dh, 0x00 ; ret ; (1 found)
0x42e754: mov dh, 0x07 ; sub eax, ecx ; ret ; (8 found)
0x435219: mov dh, 0x0E ; sub eax, ecx ; ret ; (1 found)
0x43da91: mov dh, 0x16 ; mov byte [rdi], dl ; ret ; (2 found)
0x4349f5: mov dh, 0x16 ; sub eax, edx ; ret ; (1 found)
0x483e86: mov dh, 0x1C ; clc ; jmp qword [rsi+0x0F] ; (1 found)
0x41b37c: mov dh, 0x40 ; add eax,  [rbp-0x77] ; retn 0x8341 ; (1 found)
0x40b517: mov dh, 0x40 ; or  [rax+rax*8-0x38B78D8C], eax ; retn 0xFFF0 ; (1 found)
0x408a41: mov dh, 0x42 ; add  [rax-0x7D], ecx ; retn 0x8401 ; (5 found)
0x4096b9: mov dh, 0x42 ; add  [rax-0x7D], ecx ; retn 0xA801 ; (1 found)
0x40b531: mov dh, 0x43 ; add  [rax-0x7D], ecx ; ret ; (1 found)
0x4167d3: mov dh, 0x47 ; or al, 0x83 ; ret ; (1 found)
0x41985a: mov dh, 0x4A ; add cl, byte [rax-0x7D] ; retn 0x8302 ; (1 found)
0x470e86: mov dh, 0x4C ; stc ; jmp qword [rsi+0x0F] ; (1 found)
0x484ad7: mov dh, 0x50 ; or al, 0xF6 ; retn 0x7540 ; (1 found)
0x4bc55b: mov dh, 0x53 ; add  [rax-0x7D], ecx ; ret ; (1 found)
0x44f3e5: mov dh, 0x56 ; lock sub eax, edx ; ret ; (1 found)
0x44f405: mov dh, 0x56 ; sub eax, edx ; ret ; (2 found)
0x41a40c: mov dh, 0x72 ; add  [rax-0x7D], ecx ; retn 0x8901 ; (2 found)
0x4af9c3: mov dh, 0x75 ; ret ; (1 found)
0x40c84a: mov dh, 0x7B ; add  [rax-0x7D], ecx ; ret ; (2 found)
0x45c16c: mov dh, 0x7F ; add eax, 0xE23D0348 ; ret ; (1 found)
0x4a1926: mov dh, 0xC0 ; add rsp, 0x58 ; ret ; (1 found)
0x434a1b: mov dh, 0xD2 ; sub eax, edx ; ret ; (1 found)
0x49df6c: mov dh, 0xF3 ; call rbp ; (1 found)
0x42d2f1: mov dl, 0x01 ; add byte [rax+0x0F], cl ; retn 0x0FC3 ; (1 found)
0x454a8b: mov dl, 0x65 ; and byte [rsi], ah ; ret ; (1 found)
0x454a7d: mov dl, 0x6D ; and byte [rsi], ah ; retn 0xFBC5 ; (1 found)
0x4bec4b: mov dl, 0xF6 ; jmp qword [rsi+0x0F] ; (1 found)
0x45890d: mov dl, 0xF7 ; retn 0xFFFB ; (1 found)
0x42a6eb: mov dl, 0xFF ; jmp qword [rsi-0x70] ; (1 found)
0x437690: mov dl, byte [rsi-0x01] ; mov byte [rdi-0x01], dl ; ret ; (2 found)
0x4b89a8: mov ds, word [0x8D41FFFF+rdi*8] ; ret ; (1 found)
0x478f59: mov ds, word [0xFFFFFFFF83478F6B] ; retn 0x4418 ; (1 found)
0x4b01ae: mov ds, word [rcx-0x0B] ; jmp qword [rsi+0x0F] ; (1 found)
0x437870: mov dx, word [rsi-0x02] ; mov word [rdi-0x02], dx ; ret ; (2 found)
0x44d170: mov dx, word [rsi] ; mov word [rdi], dx ; ret ; (1 found)
0x4022a8: mov eax,  [0x00000000004F1200] ; leave ; ret ; (1 found)
0x423e35: mov eax,  [0x00000000004F1260] ; ret ; (1 found)
0x463bbf: mov eax,  [0x00000000004F3538] ; mov qword [rsi], rax ; ret ; (1 found)
0x463b4e: mov eax,  [0x00000000004F3568] ; mov rax, r8 ; ret ; (1 found)
0x4af334: mov eax,  [0x00000000004F8C20] ; ret ; (1 found)
0x49dc11: mov eax,  [0x00000000004F8E80] ; ret ; (1 found)
0x49dc21: mov eax,  [0x00000000004F8E88] ; ret ; (1 found)
0x49dc31: mov eax,  [0x00000000004F8E90] ; ret ; (1 found)
0x49dc41: mov eax,  [0x00000000004F8E98] ; ret ; (1 found)
0x49dc51: mov eax,  [0x00000000004F8EA0] ; ret ; (1 found)
0x49dc61: mov eax,  [0x00000000004F8EA8] ; ret ; (1 found)
0x49dc71: mov eax,  [0x00000000004F8EB0] ; ret ; (1 found)
0x49dc81: mov eax,  [0x00000000004F8EB8] ; ret ; (1 found)
0x49dc91: mov eax,  [0x00000000004F8EC0] ; ret ; (1 found)
0x49dca1: mov eax,  [0x00000000004F8EC8] ; ret ; (1 found)
0x49dcb1: mov eax,  [0x00000000004F8ED0] ; ret ; (1 found)
0x49dc09: mov eax,  [0x00000000004F8ED8] ; ret ; (1 found)
0x4686e5: mov eax,  [0x00000000004F8F60] ; ret ; (1 found)
0x4686f5: mov eax,  [0x00000000004F8F68] ; ret ; (1 found)
0x472335: mov eax,  [0x00000000004F8FA8] ; ret ; (1 found)
0x491ecb: mov eax,  [0x00000010] ; mov byte [rax+0x00000972], 0x00 ; ret ; (1 found)
0x425666: mov eax,  [0x00000010] ; ret ; (1 found)
0x424a75: mov eax,  [0x000000841F0FFFFF] ; add byte [rax], al ; ret ; (1 found)
0x405c5f: mov eax,  [0x4891046348000BAC] ; add eax, ecx ; jmp rax ; (1 found)
0x42fed5: mov eax,  [0xDAFDC520124C7465] ; retn 0xF5C5 ; (4 found)
0x4b0588: mov eax,  [fs:rax] ; add rsp, 0x08 ; ret ; (1 found)
0x490ef5: mov eax,  [rax+0x000000E0] ; call qword [rax+0x68] ; (1 found)
0x49102a: mov eax,  [rax+0x000000E0] ; mov esi, 0xFFFFFFFF ; call qword [rax+0x18] ; (1 found)
0x41d6de: mov eax,  [rax+0x000000E0] ; mov rax, qword [rax+0x20] ; jmp rax ; (1 found)
0x4ad7d5: mov eax,  [rax+0x08] ; ret ; (1 found)
0x4ad7e5: mov eax,  [rax+0x08] ; sub rax, qword [fs:0x00000000] ; ret ; (1 found)
0x41d6e5: mov eax,  [rax+0x20] ; jmp rax ; (1 found)
0x475483: mov eax,  [rax+rdi*8+0x00000080] ; ret ; (1 found)
0x41ab59: mov eax,  [rax+rdi*8] ; ret ; (1 found)
0x4b0589: mov eax,  [rax] ; add rsp, 0x08 ; ret ; (1 found)
0x475480: mov eax,  [rax] ; mov rax, qword [rax+rdi*8+0x00000080] ; ret ; (1 found)
0x4bb5c9: mov eax,  [rax] ; ret ; (1 found)
0x4023bd: mov eax,  [rbp-0x04] ; leave ; ret ; (1 found)
0x401c3b: mov eax,  [rbp-0x38] ; leave ; ret ; (1 found)
0x461daf: mov eax,  [rbp-0x58] ; mov r15d, r13d ; call rax ; (1 found)
0x468079: mov eax,  [rbp-0x68] ; mov rdi, r12 ; call rax ; (1 found)
0x4aa622: mov eax,  [rbx+0x10] ; add rax, qword [r12+0x00] ; call rax ; (1 found)
0x446c42: mov eax,  [rcx+rax*4] ; sub eax, edx ; ret ; (4 found)
0x4a8482: mov eax,  [rcx] ; ret ; (1 found)
0x4bb5d5: mov eax,  [rdi+0x00000090] ; ret ; (1 found)
0x4bb635: mov eax,  [rdi+0x00000098] ; ret ; (2 found)
0x4bb675: mov eax,  [rdi+0x000000A0] ; ret ; (1 found)
0x4bb6d5: mov eax,  [rdi+0x000000A8] ; ret ; (1 found)
0x4bb6c5: mov eax,  [rdi+0x000000B0] ; ret ; (1 found)
0x4bb685: mov eax,  [rdi+0x000000B8] ; ret ; (1 found)
0x423ad4: mov eax,  [rdi+0x10] ; sub eax,  [rsi+0x10] ; ret ; (1 found)
0x423afc: mov eax,  [rdi+0x10] ; sub eax, edx ; ret ; (2 found)
0x423e55: mov eax,  [rdi+0x68] ; ret ; (1 found)
0x491ee5: mov eax,  [rdi] ; mov  [0x00000000004F2BD0], eax ; ret ; (1 found)
0x491ef5: mov eax,  [rdi] ; mov  [0x00000000004F2BD4], eax ; ret ; (1 found)
0x491f05: mov eax,  [rdi] ; mov  [0x00000000004F2BD8], eax ; ret ; (1 found)
0x491f15: mov eax,  [rdi] ; mov  [0x00000000004F2BDC], eax ; ret ; (1 found)
0x492235: mov eax,  [rdi] ; mov  [0x00000000004F2BE0], eax ; ret ; (1 found)
0x492245: mov eax,  [rdi] ; mov qword [0x00000000004F2BF0], rax ; ret ; (1 found)
0x423ac6: mov eax,  [rdi] ; mov qword [rdx], rax ; ret ; (1 found)
0x4aeb2a: mov eax,  [rdi] ; mov rdi, r8 ; jmp rax ; (1 found)
0x442f66: mov eax,  [rdx+rax*4] ; sub eax, ecx ; ret ; (16 found)
0x42d304: mov eax,  [rdx] ; add bh, dh ; retn 0x0000 ; (1 found)
0x4b8e46: mov eax,  [rsp+0x00] ; add rsp, 0x38 ; ret ; (1 found)
0x40b88c: mov eax,  [rsp+0x00] ; call rax ; (1 found)
0x4bc234: mov eax,  [rsp+0x00] ; mov  [rsp+0x08], ecx ; call rax ; (1 found)
0x460642: mov eax,  [rsp+0x08] ; add rsp, 0x28 ; ret ; (3 found)
0x4032b4: mov eax,  [rsp+0x08] ; call rax ; (1 found)
0x46089f: mov eax,  [rsp+0x0C] ; add rsp, 0x18 ; ret ; (1 found)
0x4632f3: mov eax,  [rsp+0x0C] ; add rsp, 0x28 ; ret ; (1 found)
0x4706d7: mov eax,  [rsp+0x10] ; call rax ; (1 found)
0x4653ca: mov eax,  [rsp+0x10] ; mov rdi, qword [rsp+0x18] ; call rax ; (1 found)
0x461904: mov eax,  [rsp+0x10] ; mov rdi, rbp ; call rax ; (1 found)
0x46a5a2: mov eax,  [rsp+0x18] ; call rax ; (4 found)
0x469fe2: mov eax,  [rsp+0x28] ; call rax ; (3 found)
0x4ae65d: mov eax, 0x00000001 ; mov  [rdx], 0xFFFFC002 ; ret ; (1 found)
0x4ae585: mov eax, 0x00000001 ; mov qword [rsi], rdx ; ret ; (1 found)
0x422dbc: mov eax, 0x00000001 ; pop rbx ; ret ; (2 found)
0x492d13: mov eax, 0x00000001 ; ret ; (10 found)
0x460690: mov eax, 0x00000001 ; syscall ; (3 found)
0x49ed81: mov eax, 0x00000002 ; ret ; (5 found)
0x49ed91: mov eax, 0x00000003 ; ret ; (1 found)
0x460860: mov eax, 0x00000003 ; syscall ; (3 found)
0x49eda1: mov eax, 0x00000004 ; ret ; (1 found)
0x49edb1: mov eax, 0x00000005 ; ret ; (1 found)
0x49edc1: mov eax, 0x00000006 ; ret ; (1 found)
0x49edd1: mov eax, 0x00000007 ; ret ; (1 found)
0x460724: mov eax, 0x00000008 ; syscall ; (1 found)
0x4614c0: mov eax, 0x00000009 ; syscall ; (1 found)
0x461544: mov eax, 0x0000000A ; syscall ; (1 found)
0x461514: mov eax, 0x0000000B ; syscall ; (1 found)
0x461354: mov eax, 0x0000000C ; syscall ; (1 found)
0x4757ac: mov eax, 0x0000000D ; syscall ; (1 found)
0x424c70: mov eax, 0x0000000E ; syscall ; (4 found)
0x4756e1: mov eax, 0x0000000F ; syscall ; (2 found)
0x4a1a43: mov eax, 0x00000010 ; syscall ; (1 found)
0x4a19e7: mov eax, 0x00000011 ; syscall ; (1 found)
0x4a8c1d: mov eax, 0x00000014 ; syscall ; (1 found)
0x464fde: mov eax, 0x00000015 ; syscall ; (1 found)
0x42bec4: mov eax, 0x00000016 ; ret ; (5 found)
0x460254: mov eax, 0x00000018 ; syscall ; (1 found)
0x462df8: mov eax, 0x00000019 ; syscall ; (1 found)
0x461574: mov eax, 0x0000001C ; syscall ; (1 found)
0x4608e4: mov eax, 0x00000020 ; syscall ; (1 found)
0x4b4a34: mov eax, 0x00000026 ; syscall ; (1 found)
0x45fb24: mov eax, 0x00000027 ; syscall ; ret ; (1 found)
0x45fb24: mov eax, 0x00000027 ; syscall ; (1 found)
0x461067: mov eax, 0x00000028 ; syscall ; (1 found)
0x4633d4: mov eax, 0x00000029 ; syscall ; (1 found)
0x4632a0: mov eax, 0x0000002B ; syscall ; (2 found)
0x463334: mov eax, 0x00000031 ; syscall ; (1 found)
0x463364: mov eax, 0x00000032 ; syscall ; (1 found)
0x463397: mov eax, 0x00000036 ; syscall ; (1 found)
0x45f630: mov eax, 0x00000038 ; syscall ; (1 found)
0x4a1724: mov eax, 0x0000003F ; syscall ; (1 found)
0x4607c4: mov eax, 0x00000048 ; syscall ; (6 found)
0x4609ce: mov eax, 0x0000004F ; syscall ; (1 found)
0x460914: mov eax, 0x00000050 ; syscall ; (1 found)
0x462e74: mov eax, 0x00000063 ; syscall ; (1 found)
0x4a1754: mov eax, 0x00000066 ; syscall ; ret ; (1 found)
0x4a1754: mov eax, 0x00000066 ; syscall ; (1 found)
0x4a1774: mov eax, 0x00000068 ; syscall ; ret ; (1 found)
0x4a1774: mov eax, 0x00000068 ; syscall ; (1 found)
0x4a1764: mov eax, 0x0000006B ; syscall ; ret ; (1 found)
0x4a1764: mov eax, 0x0000006B ; syscall ; (1 found)
0x4a1784: mov eax, 0x0000006C ; syscall ; ret ; (1 found)
0x4a1784: mov eax, 0x0000006C ; syscall ; (1 found)
0x492096: mov eax, 0x0000006E ; ret ; (1 found)
0x4930a3: mov eax, 0x00000083 ; ret ; (1 found)
0x4a1794: mov eax, 0x0000008F ; syscall ; (1 found)
0x4a17c4: mov eax, 0x00000090 ; syscall ; (1 found)
0x4a17f4: mov eax, 0x00000091 ; syscall ; (1 found)
0x4a1824: mov eax, 0x00000092 ; syscall ; (1 found)
0x4a1854: mov eax, 0x00000093 ; syscall ; (1 found)
0x4046f9: mov eax, 0x0000009E ; syscall ; (4 found)
0x424d20: mov eax, 0x000000BA ; syscall ; (2 found)
0x424aa1: mov eax, 0x000000CA ; syscall ; ret ; (2 found)
0x4249e4: mov eax, 0x000000CA ; syscall ; (21 found)
0x424a45: mov eax, 0x000000CA ; xor sil, 0x80 ; syscall ; (1 found)
0x4251d9: mov eax, 0x000000CA ; xor sil, 0x81 ; syscall ; (2 found)
0x462aa1: mov eax, 0x000000CC ; syscall ; (1 found)
0x4a16f0: mov eax, 0x000000D9 ; syscall ; (1 found)
0x4645d7: mov eax, 0x000000DA ; syscall ; (1 found)
0x45e6e8: mov eax, 0x000000E4 ; syscall ; (1 found)
0x4a1163: mov eax, 0x000000E6 ; syscall ; (4 found)
0x424d04: mov eax, 0x000000EA ; syscall ; (4 found)
0x4603d4: mov eax, 0x00000101 ; syscall ; (6 found)
0x460347: mov eax, 0x00000106 ; syscall ; (1 found)
0x45f66b: mov eax, 0x00000111 ; syscall ; (1 found)
0x46131b: mov eax, 0x0000012E ; xor edi, edi ; syscall ; (1 found)
0x476b40: mov eax, 0x0000013E ; syscall ; (2 found)
0x46466a: mov eax, 0x0000014E ; syscall ; (1 found)
0x4a05e5: mov eax, 0x0148051E ; retn 0xB848 ; (1 found)
0x4059d5: mov eax, 0xFFFFFFA0 ; add rax, qword [fs:0x00000000] ; ret ; (1 found)
0x4754d5: mov eax, 0xFFFFFFE0 ; add rax, qword [fs:0x00000000] ; ret ; (1 found)
0x4754b5: mov eax, 0xFFFFFFE8 ; add rax, qword [fs:0x00000000] ; ret ; (1 found)
0x475495: mov eax, 0xFFFFFFF0 ; add rax, qword [fs:0x00000000] ; ret ; (1 found)
0x40b66a: mov eax, 0xFFFFFFFF ; pop rbp ; ret ; (2 found)
0x41f1d3: mov eax, 0xFFFFFFFF ; pop rbx ; ret ; (3 found)
0x40b721: mov eax, 0xFFFFFFFF ; ret ; (43 found)
0x460882: mov eax, eax ; mov eax, 0x00000003 ; syscall ; (1 found)
0x4030bb: mov eax, eax ; pop rbx ; ret ; (1 found)
0x4572bc: mov eax, eax ; ret ; (17 found)
0x493414: mov eax, eax ; syscall ; (1 found)
0x4497e5: mov eax, eax ; vzeroupper ; ret ; (6 found)
0x492678: mov eax, ebp ; syscall ; (1 found)
0x47f5eb: mov eax, ecx ; adc eax, eax ; ret ; (2 found)
0x475880: mov eax, ecx ; add rsp, 0x0000000000000148 ; ret ; (1 found)
0x4a1acf: mov eax, ecx ; add rsp, 0x38 ; ret ; (1 found)
0x489abb: mov eax, ecx ; pop r14 ; ret ; (1 found)
0x41e8d6: mov eax, ecx ; syscall ; (4 found)
0x463764: mov eax, edi ; bswap eax ; ret ; (1 found)
0x423e65: mov eax, edi ; ret ; (20 found)
0x463774: mov eax, edi ; rol ax, 0x0008 ; ret ; (1 found)
0x4b06ab: mov eax, edx ; add rsp, 0x28 ; ret ; (1 found)
0x47fe55: mov eax, edx ; pop rbx ; ret ; (1 found)
0x449e39: mov eax, edx ; ret ; (7 found)
0x4032e2: mov eax, edx ; syscall ; (2 found)
0x451af1: mov eax, edx ; vzeroupper ; ret ; (2 found)
0x4573b0: mov eax, esi ; ret ; (2 found)
0x45f6cd: mov eax, esi ; syscall ; (1 found)
0x405c89: mov eax, esp ; pop r12 ; ret ; (9 found)
0x4653b5: mov eax, r12d ; pop r12 ; ret ; (2 found)
0x492677: mov eax, r13d ; syscall ; (1 found)
0x45f672: mov eax, r8d ; ret ; (7 found)
0x493413: mov eax, r8d ; syscall ; (1 found)
0x47587e: mov eax, r9d ; add rsp, 0x0000000000000148 ; ret ; (2 found)
0x4a1acd: mov eax, r9d ; add rsp, 0x38 ; ret ; (2 found)
0x41e8d5: mov eax, r9d ; syscall ; (4 found)
0x448ce6: mov ebp, 0x048D48F6 ; aaa ; ret ; (1 found)
0x460512: mov ebp, 0x48000000 ; add esp, 0x78 ; ret ; (1 found)
0x448c4c: mov ebp, 0xF80148C0 ; ret ; (1 found)
0x448edc: mov ebp, 0xF80148C6 ; ret ; (1 found)
0x48ad77: mov ebp, 0xFFFFF748 ; mov rdx, r14 ; call qword [r13+0x38] ; (1 found)
0x475a18: mov ebp, eax ; mov rdi, r12 ; call rbx ; (1 found)
0x461ce3: mov ebp, ebx ; mov rdi, rbp ; call r12 ; (1 found)
0x47567f: mov ebp, ecx ; nop ; jmp rdx ; (1 found)
0x40ba15: mov ebp, edi ; add r15, r14 ; call rax ; (1 found)
0x4a8a0c: mov ebp, esp ; mov rsi, rbp ; syscall ; (1 found)
0x4027e9: mov ebx,  [rbp-0x08] ; leave ; ret ; (1 found)
0x48dad2: mov ebx,  [rsp+0x00000090] ; jmp rdx ; (1 found)
0x4ace25: mov ebx,  [rsp+0x00] ; add rsp, 0x18 ; jmp r11 ; (3 found)
0x4ac713: mov ebx,  [rsp+0x00] ; add rsp, 0x30 ; jmp r11 ; (3 found)
0x4ac801: mov ebx,  [rsp+0x00] ; add rsp, 0x30 ; ret ; (3 found)
0x4645d2: mov ebx, 0x000002D0 ; mov eax, 0x000000DA ; syscall ; (1 found)
0x473044: mov ebx, 0x752FFA80 ; retn 0x8341 ; (1 found)
0x48d7d1: mov ebx, ecx ; jmp rdx ; (9 found)
0x49353d: mov ebx, edi ; mov rdi, qword [rdi+0x08] ; call qword [rbx] ; (1 found)
0x43b05e: mov ecx,  [rbp+0x01] ; fstcw word [rsi] ; jmp r9 ; (4 found)
0x4ab9ad: mov ecx,  [rbp-0x00000098] ; call r9 ; (1 found)
0x4ab0ba: mov ecx,  [rbp-0x000000B0] ; call r9 ; (1 found)
0x40c831: mov ecx,  [rbx+0x0B] ; add byte [rbx+rcx*4+0x04], cl ; retn 0x8840 ; (1 found)
0x435aae: mov ecx,  [rdi-0x73] ; or al, 0x0B ; jmp r9 ; (4 found)
0x4bcf90: mov ecx,  [rdx-0x0C] ; jmp qword [rsi+0x66] ; (1 found)
0x456964: mov ecx,  [rsi+rdx-0x03] ; mov  [rdi+rdx-0x03], ecx ; ret ; (1 found)
0x46536d: mov ecx,  [rsp+0x10] ; mov rdi, qword [rsp+0x18] ; call rcx ; (1 found)
0x4baf42: mov ecx, 0x000FC0C7 ; add byte [rax], al ; syscall ; (1 found)
0x434ee6: mov ecx, 0x83D72948 ; jmp qword [rax+0x73] ; (2 found)
0x48e6dd: mov ecx, 0x89000007 ; retn 0xC083 ; (1 found)
0x405ad0: mov ecx, 0x89480005 ; ret ; (1 found)
0x4b195a: mov ecx, 0xDEE80002 ; cmc ; jmp qword [rsi+0x66] ; (1 found)
0x49217b: mov ecx, 0xFFFFFFFF ; mov eax, 0x000000CA ; syscall ; (1 found)
0x450596: mov ecx, edx ; rep movsb ; ret ; (1 found)
0x458759: mov ecx, esp ; call rbx ; (1 found)
0x4256df: mov edi,  [0x00000300] ; call 0x00000000 ; (2 found)
0x4616e4: mov edi,  [rbp+0x00] ; call rbx ; (9 found)
0x49df68: mov edi,  [rbp+0x00] ; movzx esi, bl ; call rbp ; (1 found)
0x4becfc: mov edi,  [rbp+0x10] ; add rdi, rbp ; call r12 ; (1 found)
0x48ad76: mov edi,  [rbp-0x000008B8] ; mov rdx, r14 ; call qword [r13+0x38] ; (1 found)
0x4bb9fc: mov edi,  [rbp-0x08] ; leave ; ret ; (3 found)
0x493540: mov edi,  [rdi+0x08] ; call qword [rbx] ; (1 found)
0x4ac742: mov edi,  [rdi+0x28] ; call r11 ; (3 found)
0x461716: mov edi,  [rsp+0x00] ; call rbx ; (4 found)
0x401914: mov edi,  [rsp+0x08] ; call qword [rsp+0x00] ; (1 found)
0x4606c4: mov edi,  [rsp+0x08] ; mov eax, 0x00000001 ; syscall ; (1 found)
0x46080c: mov edi,  [rsp+0x08] ; mov eax, 0x00000048 ; syscall ; (1 found)
0x476b74: mov edi,  [rsp+0x08] ; mov eax, 0x0000013E ; syscall ; (1 found)
0x460624: mov edi,  [rsp+0x08] ; xor eax, eax ; syscall ; (1 found)
0x4632d4: mov edi,  [rsp+0x0C] ; mov eax, 0x0000002B ; syscall ; (1 found)
0x4609ca: mov edi,  [rsp+0x10] ; mov eax, 0x0000004F ; syscall ; (1 found)
0x4653cf: mov edi,  [rsp+0x18] ; call rax ; (1 found)
0x465372: mov edi,  [rsp+0x18] ; call rcx ; (1 found)
0x460578: mov edi,  [rsp+0x18] ; mov eax, 0x00000101 ; syscall ; (1 found)
0x471ef6: mov edi,  [rsp+0x38] ; call r15 ; (1 found)
0x472052: mov edi,  [rsp+0x38] ; lea r8, qword [rsp+0x000000A0] ; call r15 ; (1 found)
0x46cf28: mov edi,  [rsp+0x48] ; call r14 ; (1 found)
0x4706d2: mov edi,  [rsp+0x48] ; mov rax, qword [rsp+0x10] ; call rax ; (1 found)
0x46ef29: mov edi,  [rsp+0x48] ; mov rax, qword [rsp+0x18] ; call rax ; (1 found)
0x46df17: mov edi,  [rsp+0x48] ; mov rax, qword [rsp+0x28] ; call rax ; (1 found)
0x46c22f: mov edi,  [rsp+0x50] ; call r13 ; (3 found)
0x46bbb9: mov edi,  [rsp+0x50] ; mov rax, qword [rsp+0x18] ; call rax ; (1 found)
0x469fdd: mov edi,  [rsp+0x50] ; mov rax, qword [rsp+0x28] ; call rax ; (2 found)
0x46a59d: mov edi,  [rsp+0x58] ; mov rax, qword [rsp+0x18] ; call rax ; (2 found)
0x4bb335: mov edi, 0x00000001 ; call rax ; (5 found)
0x4bc0a0: mov edi, 0x00000001 ; jmp rax ; (1 found)
0x4a1223: mov edi, 0x00000001 ; mov eax, 0x000000E6 ; syscall ; (2 found)
0x424cb9: mov edi, 0x00000002 ; mov eax, 0x0000000E ; syscall ; (2 found)
0x41e8d0: mov edi, 0x00000002 ; mov eax, r9d ; syscall ; (2 found)
0x4046f4: mov edi, 0x00003001 ; mov eax, 0x0000009E ; syscall ; (1 found)
0x404d56: mov edi, 0x00003002 ; mov eax, 0x0000009E ; syscall ; (1 found)
0x404d8c: mov edi, 0x00003003 ; mov eax, 0x0000009E ; syscall ; (1 found)
0x401ab7: mov edi, 0x004F2C00 ; jmp rax ; (2 found)
0x4b1607: mov edi, 0x31E80002 ; cmc ; call qword [rax-0x05E1F00D] ; (1 found)
0x417c58: mov edi, 0x440F48C0 ; retn 0x19E9 ; (1 found)
0x42cdfd: mov edi, 0x4800027E ; cmove eax, edx ; ret ; (1 found)
0x4725dc: mov edi, 0xFF112EE8 ; jmp qword [rsi+0x66] ; (1 found)
0x45f530: mov edi, 0xFFFEC8E9 ; jmp qword [rsi+0x2E] ; (1 found)
0x4603cf: mov edi, 0xFFFFFF9C ; mov eax, 0x00000101 ; syscall ; (3 found)
0x41f0bf: mov edi, eax ; call qword [r15+0x18] ; (1 found)
0x41cc9e: mov edi, eax ; call qword [rax+0x18] ; (1 found)
0x4aeb2d: mov edi, eax ; jmp rax ; (1 found)
0x4930cd: mov edi, eax ; mov eax, 0x000000CA ; syscall ; (2 found)
0x424d33: mov edi, eax ; mov eax, 0x000000EA ; syscall ; (2 found)
0x420451: mov edi, ebp ; call qword [r12+0x00000090] ; (2 found)
0x4186cd: mov edi, ebp ; call qword [r12+0x38] ; (1 found)
0x41fae2: mov edi, ebp ; call qword [r13+0x00000090] ; (1 found)
0x419964: mov edi, ebp ; call qword [r13+0x38] ; (1 found)
0x41f23b: mov edi, ebp ; call qword [r14+0x00000090] ; (1 found)
0x4201a1: mov edi, ebp ; call qword [r14+0x18] ; (3 found)
0x4914af: mov edi, ebp ; call qword [r14+0x20] ; (1 found)
0x41f6dd: mov edi, ebp ; call qword [r15+0x00000080] ; (1 found)
0x418be7: mov edi, ebp ; call qword [r15+0x38] ; (3 found)
0x41f605: mov edi, ebp ; call qword [rax+0x00000080] ; (1 found)
0x41f497: mov edi, ebp ; call qword [rax+0x00000090] ; (1 found)
0x420297: mov edi, ebp ; call qword [rax+0x78] ; (1 found)
0x4b61ca: mov edi, ebp ; call qword [rax] ; (2 found)
0x41bdae: mov edi, ebp ; call qword [rbx+0x00000080] ; (4 found)
0x4214f3: mov edi, ebp ; call qword [rbx+0x00000088] ; (1 found)
0x48fbbc: mov edi, ebp ; call qword [rbx+0x00000090] ; (1 found)
0x41ba5d: mov edi, ebp ; call qword [rbx+0x10] ; (1 found)
0x422258: mov edi, ebp ; call qword [rbx+0x18] ; (2 found)
0x419231: mov edi, ebp ; call qword [rbx+0x38] ; (2 found)
0x415ca7: mov edi, ebp ; call qword [rcx+0x38] ; (4 found)
0x461ce6: mov edi, ebp ; call r12 ; (1 found)
0x40c118: mov edi, ebp ; call r15 ; (2 found)
0x41f655: mov edi, ebp ; call rax ; (4 found)
0x4588e8: mov edi, ebp ; call rbx ; (3 found)
0x41e35c: mov edi, ebp ; lea r9, qword [rsp+0x28] ; call rbp ; (2 found)
0x457d25: mov edi, ebp ; lea r9, qword [rsp+0x30] ; call rbx ; (1 found)
0x4934a7: mov edi, ebp ; mov eax, 0x000000CA ; syscall ; (1 found)
0x492675: mov edi, ebp ; mov eax, r13d ; syscall ; (1 found)
0x493411: mov edi, ebp ; mov eax, r8d ; syscall ; (1 found)
0x420258: mov edi, ebp ; mov edx, 0x00000001 ; call qword [rax+0x00000080] ; (1 found)
0x457e70: mov edi, ebp ; mov rsi, qword [rsp+0x18] ; call rbx ; (1 found)
0x41fd04: mov edi, ebp ; sub r12, r14 ; call qword [r13+0x40] ; (1 found)
0x4615c5: mov edi, ebp ; xor esi, esi ; call r12 ; (4 found)
0x41ffff: mov edi, ebx ; call qword [r12+0x00000080] ; (1 found)
0x420c97: mov edi, ebx ; call qword [r12+0x00000088] ; (1 found)
0x423a1c: mov edi, ebx ; call qword [r12+0x18] ; (1 found)
0x420a70: mov edi, ebx ; call qword [r12+0x48] ; (1 found)
0x48fd68: mov edi, ebx ; call qword [r13+0x38] ; (1 found)
0x422c40: mov edi, ebx ; call qword [r13+0x60] ; (1 found)
0x420b1b: mov edi, ebx ; call qword [r14+0x00000080] ; (1 found)
0x4238ec: mov edi, ebx ; call qword [r14+0x18] ; (1 found)
0x41aa2d: mov edi, ebx ; call qword [r14+0x38] ; (2 found)
0x4ae9aa: mov edi, ebx ; call qword [r14+0x48] ; (1 found)
0x420b5a: mov edi, ebx ; call qword [r14+0x78] ; (1 found)
0x48ff42: mov edi, ebx ; call qword [r15+0x38] ; (1 found)
0x41de1d: mov edi, ebx ; call qword [rbp+0x00000080] ; (4 found)
0x421ff1: mov edi, ebx ; call qword [rbp+0x18] ; (2 found)
0x422642: mov edi, ebx ; call qword [rbp+0x20] ; (3 found)
0x423162: mov edi, ebx ; call qword [rbp+0x30] ; (4 found)
0x41bf46: mov edi, ebx ; call qword [rbp+0x60] ; (1 found)
0x42258c: mov edi, ebx ; call qword [rbp+0x68] ; (1 found)
0x41fe7a: mov edi, ebx ; call qword [rbp+0x70] ; (1 found)
0x42361b: mov edi, ebx ; call qword [rcx+0x58] ; (1 found)
0x42333f: mov edi, ebx ; call qword [rdx+0x18] ; (1 found)
0x4684fb: mov edi, ebx ; call r12 ; (2 found)
0x468627: mov edi, ebx ; call r14 ; (3 found)
0x467b2a: mov edi, ebx ; call r15 ; (1 found)
0x48f703: mov edi, ebx ; call r8 ; (1 found)
0x41b302: mov edi, ebx ; call rax ; (1 found)
0x46873a: mov edi, ebx ; call rbp ; (1 found)
0x464668: mov edi, ebx ; mov eax, 0x0000014E ; syscall ; (1 found)
0x41efb7: mov edi, ebx ; sub rdx, rsi ; call qword [r12+0x70] ; (1 found)
0x41c92e: mov edi, ebx ; sub rdx, rsi ; call qword [rax+0x70] ; (1 found)
0x41d2b2: mov edi, edi ; call qword [r13+0x00000080] ; (1 found)
0x41cfd3: mov edi, edi ; call qword [r14+0x00000080] ; (2 found)
0x41ceed: mov edi, edi ; call qword [r14+0x00000090] ; (1 found)
0x41c2b9: mov edi, edi ; call qword [r14+0x38] ; (2 found)
0x41d4a0: mov edi, edi ; call qword [rbp+0x00000080] ; (1 found)
0x41c31f: mov edi, edi ; call qword [rbp+0x38] ; (2 found)
0x41d58f: mov edi, edi ; call qword [rbx+0x00000080] ; (1 found)
0x41d02c: mov edi, edi ; call rax ; (1 found)
0x41e5cd: mov edi, edi ; call rbx ; (1 found)
0x4087e3: mov edi, edi ; jmp qword [rsi+0x2E] ; (1 found)
0x4bc25b: mov edi, edi ; mov rsi, qword [r14] ; call rax ; (1 found)
0x417715: mov edi, esi ; call qword [r12+0x38] ; (1 found)
0x416bef: mov edi, esi ; call qword [r13+0x38] ; (1 found)
0x416219: mov edi, esi ; call qword [rax+0x38] ; (2 found)
0x4170f8: mov edi, esi ; call qword [rcx+0x38] ; (2 found)
0x4be891: mov edi, esi ; call rbp ; (1 found)
0x4b1233: mov edi, esi ; jmp qword [rsi+0x49] ; (1 found)
0x48d606: mov edi, esp ; call qword [r14+0x38] ; (2 found)
0x404af7: mov edi, esp ; call qword [r14+r15*8] ; (2 found)
0x48dd64: mov edi, esp ; call qword [r15+0x38] ; (1 found)
0x48e41d: mov edi, esp ; call qword [rax+0x38] ; (1 found)
0x48cc3d: mov edi, esp ; call qword [rbp+0x38] ; (1 found)
0x4226df: mov edi, esp ; call qword [rbx+0x18] ; (1 found)
0x48d117: mov edi, esp ; call qword [rbx+0x38] ; (1 found)
0x40b80b: mov edi, esp ; call rax ; (4 found)
0x4bda62: mov edi, esp ; call rbp ; (1 found)
0x475a1b: mov edi, esp ; call rbx ; (4 found)
0x485d1e: mov edi, esp ; mov qword [rbp-0x000000E8], r8 ; call rax ; (1 found)
0x475b44: mov edi, esp ; mov rdx, r14 ; call rbp ; (1 found)
0x404af6: mov edi, r12d ; call qword [r14+r15*8] ; (2 found)
0x4af14e: mov edx,  [0x00000000004F9358] ; add word [rdx+rax*2], 0x0001 ; ret ; (1 found)
0x48ceae: mov edx,  [rax+rdx*8] ; jmp rdx ; (3 found)
0x418947: mov edx,  [rbx+rdx*8] ; jmp rdx ; (3 found)
0x48dace: mov edx,  [rbx+rdx*8] ; mov rbx, qword [rsp+0x00000090] ; jmp rdx ; (1 found)
0x48d7cd: mov edx,  [rbx+rdx*8] ; mov rbx, rcx ; jmp rdx ; (9 found)
0x44536d: mov edx,  [rcx+rdx*4] ; sub eax, edx ; ret ; (4 found)
0x419752: mov edx,  [rcx+rdx*8] ; jmp rdx ; (1 found)
0x463830: mov edx,  [rcx+rdx] ; mov qword [rax+0x08], rdx ; ret ; (1 found)
0x41c004: mov edx,  [rdi+0x000000A0] ; mov qword [rdx+0x000000E0], rcx ; ret ; (1 found)
0x419489: mov edx,  [rdi+rdx*8] ; jmp rdx ; (4 found)
0x4bc3d1: mov edx,  [rdx] ; mov qword [r8], rdx ; ret ; (2 found)
0x47a111: mov edx,  [rsi+0x00] ; add byte [rax-0x7D], cl ; ret ; (1 found)
0x419447: mov edx,  [rsi+rdx*8] ; jmp rdx ; (5 found)
0x437871: mov edx,  [rsi-0x02] ; mov word [rdi-0x02], dx ; ret ; (2 found)
0x437c30: mov edx,  [rsi-0x04] ; mov  [rdi-0x04], edx ; ret ; (4 found)
0x4374c1: mov edx,  [rsi-0x08] ; mov qword [rdi-0x08], rdx ; ret ; (4 found)
0x43d940: mov edx,  [rsi] ; mov  [rdi], edx ; ret ; (4 found)
0x43d781: mov edx,  [rsi] ; mov qword [rdi], rdx ; ret ; (3 found)
0x4bda5f: mov edx,  [rsi] ; mov rdi, r12 ; call rbp ; (1 found)
0x44d171: mov edx,  [rsi] ; mov word [rdi], dx ; ret ; (1 found)
0x42025a: mov edx, 0x00000001 ; call qword [rax+0x00000080] ; (1 found)
0x424abb: mov edx, 0x00000001 ; mov eax, 0x000000CA ; syscall ; (1 found)
0x41d49a: mov edx, 0x00000001 ; mov rdi, r15 ; call qword [rbp+0x00000080] ; (1 found)
0x41f85a: mov edx, 0x00000001 ; mov rdi, rbp ; call qword [rbx+0x00000080] ; (1 found)
0x420a6a: mov edx, 0x00000001 ; mov rdi, rbx ; call qword [r12+0x48] ; (1 found)
0x41de17: mov edx, 0x00000001 ; mov rdi, rbx ; call qword [rbp+0x00000080] ; (2 found)
0x48d8c7: mov edx, 0x00000001 ; mov rdx, qword [r8+rdx*8] ; jmp rdx ; (1 found)
0x41d2ac: mov edx, 0x00000002 ; mov rdi, r15 ; call qword [r13+0x00000080] ; (1 found)
0x41bda8: mov edx, 0x00000002 ; mov rdi, rbp ; call qword [rbx+0x00000080] ; (2 found)
0x42098d: mov edx, 0x00000002 ; mov rdi, rbx ; call qword [rbp+0x00000080] ; (1 found)
0x4757a7: mov edx, 0x00000008 ; mov eax, 0x0000000D ; syscall ; (1 found)
0x425697: mov edx, 0x00000971 ; xor eax, eax ; ret ; (1 found)
0x49dbfd: mov edx, 0x3ED00148 ; jmp rax ; (1 found)
0x49d772: mov edx, 0x83000000 ; retn 0x7E20 ; (1 found)
0x41ba02: mov edx, 0x89000000 ; retn 0xE281 ; (1 found)
0x4ae6e5: mov edx, 0x894830E8 ; or byte [rax+0x00000002], r15L ; ret ; (1 found)
0x468775: mov edx, 0xE80005E9 ; retn 0xF9D3 ; (1 found)
0x428486: mov edx, 0xF2E80009 ; sar bh, cl ; jmp qword [rsi-0x70] ; (1 found)
0x47545f: mov edx, 0xFFFFFFE0 ; mov qword [fs:rdx], rax ; ret ; (1 found)
0x469e1b: mov edx, 0xFFFFFFFF ; cmovs eax, edx ; ret ; (1 found)
0x4920ed: mov edx, ebp ; mov eax, 0x000000CA ; syscall ; (1 found)
0x4615da: mov edx, ebp ; mov esi, 0x00000001 ; call r12 ; (3 found)
0x476130: mov edx, ebp ; mov rdi, r12 ; call rbx ; (1 found)
0x48c3a0: mov edx, ebp ; mov rsi, r10 ; call qword [r14+0x38] ; (1 found)
0x48a34c: mov edx, ebp ; mov rsi, r10 ; call qword [r15+0x38] ; (1 found)
0x475a2d: mov edx, ebp ; mov rsi, r12 ; call rbx ; (1 found)
0x48b4c7: mov edx, ebp ; mov rsi, r15 ; call qword [r14+0x38] ; (1 found)
0x48b7fe: mov edx, ebp ; mov rsi, r15 ; call qword [rax+0x38] ; (1 found)
0x489940: mov edx, ebx ; call qword [r13+0x38] ; (1 found)
0x48cc3a: mov edx, ebx ; mov rdi, r12 ; call qword [rbp+0x38] ; (1 found)
0x4186ca: mov edx, ebx ; mov rdi, rbp ; call qword [r12+0x38] ; (1 found)
0x41c424: mov edx, ebx ; mov rsi, r12 ; call qword [r13+0x38] ; (1 found)
0x4a19e5: mov edx, ecx ; mov eax, 0x00000011 ; syscall ; (1 found)
0x461065: mov edx, ecx ; mov eax, 0x00000028 ; syscall ; (1 found)
0x463395: mov edx, ecx ; mov eax, 0x00000036 ; syscall ; (1 found)
0x460345: mov edx, ecx ; mov eax, 0x00000106 ; syscall ; (1 found)
0x419961: mov edx, edi ; mov rdi, rbp ; call qword [r13+0x38] ; (1 found)
0x41922e: mov edx, edi ; mov rdi, rbp ; call qword [rbx+0x38] ; (1 found)
0x48ad7d: mov edx, esi ; call qword [r13+0x38] ; (1 found)
0x475b47: mov edx, esi ; call rbp ; (1 found)
0x424dda: mov edx, esi ; lea rsi, qword [0x00000000004C32A0] ; syscall ; (1 found)
0x40b889: mov edx, esi ; mov rax, qword [rsp+0x00] ; call rax ; (1 found)
0x4157a4: mov edx, esp ; call qword [r13+0x38] ; (1 found)
0x4a1a41: mov edx, esp ; mov eax, 0x00000010 ; syscall ; (1 found)
0x4a8c1b: mov edx, esp ; mov eax, 0x00000014 ; syscall ; (1 found)
0x462a9f: mov edx, esp ; mov eax, 0x000000CC ; syscall ; (1 found)
0x416bec: mov edx, esp ; mov rdi, r14 ; call qword [r13+0x38] ; (1 found)
0x4920ec: mov edx, r13d ; mov eax, 0x000000CA ; syscall ; (1 found)
0x4615d9: mov edx, r13d ; mov esi, 0x00000001 ; call r12 ; (1 found)
0x4634d8: mov es, word [rbx] ; add al, 0x11 ; ret ; (1 found)
0x4bdb40: mov esi,  [rbx+rcx*8+0x10] ; call rbp ; (1 found)
0x4ac73e: mov esi,  [rdi+0x20] ; mov rdi, qword [rdi+0x28] ; call r11 ; (3 found)
0x4bc25e: mov esi,  [rsi] ; call rax ; (1 found)
0x457e73: mov esi,  [rsp+0x18] ; call rbx ; (1 found)
0x4032af: mov esi,  [rsp+0x18] ; mov rax, qword [rsp+0x08] ; call rax ; (1 found)
0x467806: mov esi,  [rsp+0x18] ; xor r8d, r8d ; call rbx ; (1 found)
0x471ef1: mov esi,  [rsp+0x40] ; mov rdi, qword [rsp+0x38] ; call r15 ; (1 found)
0x46cf23: mov esi,  [rsp+0x50] ; mov rdi, qword [rsp+0x48] ; call r14 ; (1 found)
0x46c22a: mov esi,  [rsp+0x58] ; mov rdi, qword [rsp+0x50] ; call r13 ; (3 found)
0x4615dc: mov esi, 0x00000001 ; call r12 ; (4 found)
0x4bb95a: mov esi, 0x00000001 ; mov edi, 0x00000001 ; call rax ; (1 found)
0x48f6fb: mov esi, 0x00000001 ; mov rdi, rbx ; call r8 ; (3 found)
0x41b2fc: mov esi, 0x00000001 ; mov rdi, rbx ; call rax ; (1 found)
0x4928dc: mov esi, 0x00000007 ; mov eax, 0x000000CA ; syscall ; (1 found)
0x4bb46d: mov esi, 0x0000000A ; mov edi, 0x00000001 ; call rax ; (2 found)
0x46112d: mov esi, 0x00000010 ; mov eax, 0x00000048 ; syscall ; (2 found)
0x4bb555: mov esi, 0x0000001A ; mov edi, 0x00000001 ; call rax ; (1 found)
0x4be88b: mov esi, 0x00000040 ; mov rdi, r14 ; call rbp ; (1 found)
0x4249df: mov esi, 0x00000080 ; mov eax, 0x000000CA ; syscall ; (1 found)
0x4ac2d2: mov esi, 0x00000080 ; mov eax, r9d ; syscall ; (2 found)
0x424a9c: mov esi, 0x00000081 ; mov eax, 0x000000CA ; syscall ; (2 found)
0x40306c: mov esi, 0x0F000000 ; lahf ; retn 0x3145 ; (1 found)
0x4696ca: mov esi, 0x83480142 ; retn 0x4101 ; (1 found)
0x40c692: mov esi, 0x83480143 ; ret ; (2 found)
0x47e083: mov esi, 0x89412404 ; ret ; (1 found)
0x4751be: mov esi, 0x894CFFF8 ; dec  [rax-0x77] ; ret ; (1 found)
0x4ad08a: mov esi, 0xC3C829C2 ; mov eax, 0x00000001 ; ret ; (1 found)
0x491030: mov esi, 0xFFFFFFFF ; call qword [rax+0x18] ; (1 found)
0x41f0b9: mov esi, 0xFFFFFFFF ; mov rdi, r8 ; call qword [r15+0x18] ; (1 found)
0x41cc98: mov esi, 0xFFFFFFFF ; mov rdi, r8 ; call qword [rax+0x18] ; (1 found)
0x42019b: mov esi, 0xFFFFFFFF ; mov rdi, rbp ; call qword [r14+0x18] ; (1 found)
0x422252: mov esi, 0xFFFFFFFF ; mov rdi, rbp ; call qword [rbx+0x18] ; (2 found)
0x423a16: mov esi, 0xFFFFFFFF ; mov rdi, rbx ; call qword [r12+0x18] ; (1 found)
0x4238e6: mov esi, 0xFFFFFFFF ; mov rdi, rbx ; call qword [r14+0x18] ; (1 found)
0x421feb: mov esi, 0xFFFFFFFF ; mov rdi, rbx ; call qword [rbp+0x18] ; (2 found)
0x4231f4: mov esi, 0xFFFFFFFF ; mov rdi, rbx ; call qword [rbp+0x30] ; (2 found)
0x423339: mov esi, 0xFFFFFFFF ; mov rdi, rbx ; call qword [rdx+0x18] ; (1 found)
0x4935c2: mov esi, eax ; mov eax, 0x0000000E ; syscall ; (1 found)
0x418be4: mov esi, eax ; mov rdi, rbp ; call qword [r15+0x38] ; (1 found)
0x4a1161: mov esi, ebp ; mov eax, 0x000000E6 ; syscall ; (2 found)
0x424e72: mov esi, ebp ; mov eax, 0x000000EA ; syscall ; (1 found)
0x404af4: mov esi, ebp ; mov edi, r12d ; call qword [r14+r15*8] ; (2 found)
0x4a0c9b: mov esi, ebp ; mov qword [rsp+0x000000D0], rax ; call r12 ; (1 found)
0x48d603: mov esi, ebp ; mov rdi, r12 ; call qword [r14+0x38] ; (2 found)
0x48dd61: mov esi, ebp ; mov rdi, r12 ; call qword [r15+0x38] ; (1 found)
0x48e41a: mov esi, ebp ; mov rdi, r12 ; call qword [rax+0x38] ; (1 found)
0x40b808: mov esi, ebp ; mov rdi, r12 ; call rax ; (3 found)
0x40c171: mov esi, ebp ; mov rdi, r13 ; call r15 ; (1 found)
0x416216: mov esi, ebp ; mov rdi, r14 ; call qword [rax+0x38] ; (1 found)
0x41d1da: mov esi, ebp ; mov rdi, r15 ; call qword [r14+0x00000080] ; (1 found)
0x41c2b6: mov esi, ebp ; mov rdi, r15 ; call qword [r14+0x38] ; (2 found)
0x41c31c: mov esi, ebp ; mov rdi, r15 ; call qword [rbp+0x38] ; (2 found)
0x41e5ca: mov esi, ebp ; mov rdi, r15 ; call rbx ; (1 found)
0x420294: mov esi, ebp ; mov rdi, rbp ; call qword [rax+0x78] ; (1 found)
0x4a084e: mov esi, ebp ; mov rdi, rbp ; call rbx ; (1 found)
0x41fffc: mov esi, ebp ; mov rdi, rbx ; call qword [r12+0x00000080] ; (1 found)
0x48fd65: mov esi, ebp ; mov rdi, rbx ; call qword [r13+0x38] ; (1 found)
0x4ae9a7: mov esi, ebp ; mov rdi, rbx ; call qword [r14+0x48] ; (1 found)
0x4bc109: mov esi, ebp ; mov rdi, rbx ; call r14 ; (1 found)
0x4a8a0f: mov esi, ebp ; syscall ; (1 found)
0x417712: mov esi, ebx ; mov rdi, r14 ; call qword [r12+0x38] ; (1 found)
0x4170f5: mov esi, ebx ; mov rdi, r14 ; call qword [rcx+0x38] ; (1 found)
0x48b4ca: mov esi, edi ; call qword [r14+0x38] ; (1 found)
0x48b801: mov esi, edi ; call qword [rax+0x38] ; (1 found)
0x48d114: mov esi, edi ; mov rdi, r12 ; call qword [rbx+0x38] ; (1 found)
0x490ce9: mov esi, edi ; mov rdi, rbp ; call qword [r14+0x18] ; (2 found)
0x48c3a3: mov esi, edx ; call qword [r14+0x38] ; (1 found)
0x48a34f: mov esi, edx ; call qword [r15+0x38] ; (1 found)
0x418ebd: mov esi, edx ; mov rdi, rbp ; call qword [r15+0x38] ; (1 found)
0x41a310: mov esi, edx ; mov rdi, rbp ; call qword [rbx+0x38] ; (1 found)
0x424d02: mov esi, esi ; mov eax, 0x000000EA ; syscall ; (1 found)
0x475a6f: mov esi, esi ; mov rdi, r12 ; call rbx ; (2 found)
0x418c7f: mov esi, esi ; mov rdi, rbp ; call qword [r15+0x38] ; (1 found)
0x48ff3f: mov esi, esi ; mov rdi, rbx ; call qword [r15+0x38] ; (1 found)
0x41fe77: mov esi, esi ; mov rdi, rbx ; call qword [rbp+0x70] ; (1 found)
0x41c427: mov esi, esp ; call qword [r13+0x38] ; (1 found)
0x475a30: mov esi, esp ; call rbx ; (1 found)
0x4b61c8: mov esi, esp ; mov edi, ebp ; call qword [rax] ; (2 found)
0x4b6184: mov esi, esp ; mov edi, ebp ; call rax ; (1 found)
0x475a54: mov esi, esp ; mov rdi, r13 ; call rbx ; (1 found)
0x416e48: mov esi, esp ; mov rdi, r14 ; call qword [rax+0x38] ; (1 found)
0x417ebd: mov esi, esp ; mov rdi, r14 ; call qword [rcx+0x38] ; (1 found)
0x42044e: mov esi, esp ; mov rdi, rbp ; call qword [r12+0x00000090] ; (2 found)
0x41f238: mov esi, esp ; mov rdi, rbp ; call qword [r14+0x00000090] ; (1 found)
0x41f6da: mov esi, esp ; mov rdi, rbp ; call qword [r15+0x00000080] ; (1 found)
0x48fbb9: mov esi, esp ; mov rdi, rbp ; call qword [rbx+0x00000090] ; (1 found)
0x415ca4: mov esi, esp ; mov rdi, rbp ; call qword [rcx+0x38] ; (4 found)
0x420b57: mov esi, esp ; mov rdi, rbx ; call qword [r14+0x78] ; (1 found)
0x4a1160: mov esi, r13d ; mov eax, 0x000000E6 ; syscall ; (2 found)
0x424e71: mov esi, r13d ; mov eax, 0x000000EA ; syscall ; (1 found)
0x424d01: mov esi, r14d ; mov eax, 0x000000EA ; syscall ; (1 found)
0x490ce8: mov esi, r15d ; mov rdi, rbp ; call qword [r14+0x18] ; (2 found)
0x457172: mov esp, 0x01448DC0 ; lahf ; ret ; (1 found)
0x4593c2: mov esp, 0x01448DC0 ; out dx, eax ; ret ; (1 found)
0x458c7d: mov esp, 0x02E8C1C0 ; vzeroupper ; ret ; (4 found)
0x49d2b5: mov esp, 0x0C8B0002 ; mov cl, byte [rbx-0x37D67DFC] ; ret ; (2 found)
0x494b22: mov esp, 0x39C931C0 ; retn 0x8D48 ; (6 found)
0x434771: mov esp, 0x448D48C0 ; cmp al, dh ; ret ; (3 found)
0x4347a1: mov esp, 0x448D48C0 ; cmp byte [rax], ah ; ret ; (3 found)
0x434791: mov esp, 0x448D48C0 ; cmp byte [rax], dl ; ret ; (3 found)
0x49fdb2: mov esp, 0x448D48C0 ; xchg  [rax], esp ; ret ; (2 found)
0x473123: mov esp, 0x752FFA80 ; retn 0x8341 ; (1 found)
0x4494ab: mov esp, 0x77F8C5C0 ; ret ; (4 found)
0x4494e2: mov esp, 0x83D729C0 ; mov  [rcx+0x01], 0x77F8C5F8 ; ret ; (1 found)
0x45713b: mov esp, 0xC031C3C0 ; ret ; (2 found)
0x4573b5: mov esp, 0xC63948C0 ; cmovb eax, esi ; ret ; (2 found)
0x4556ad: mov esp, 0xC80148C0 ; ret ; (2 found)
0x43480b: mov esp, 0xC80148C0 ; vzeroupper ; ret ; (1 found)
0x456133: mov esp, 0xD00148C0 ; ret ; (1 found)
0x448bdd: mov esp, 0xD00148C0 ; vzeroupper ; ret ; (1 found)
0x449253: mov esp, 0xD00148D2 ; sub rax, rdi ; ret ; (3 found)
0x457342: mov esp, 0xD72948C0 ; lea rax, qword [rdi+rax+0x20] ; ret ; (1 found)
0x457352: mov esp, 0xD72948C0 ; lea rax, qword [rdi+rax+0x40] ; ret ; (1 found)
0x42cca0: mov esp, 0xF7000084 ; retn 0x0000 ; (1 found)
0x43460b: mov esp, 0xF80148C0 ; add rax, rcx ; ret ; (1 found)
0x434781: mov esp, 0xF80148C0 ; ret ; (15 found)
0x4347dd: mov esp, 0xF80148C0 ; vzeroupper ; ret ; (7 found)
0x4494c2: mov esp, 0xFFD729C0 ; mov  [rcx], 0x77F8C5F8 ; ret ; (1 found)
0x4bbbaa: mov esp, ecx ; pop rcx ; jmp rcx ; (4 found)
0x47bda9: mov fs, word [rbp-0x7CFFFFF8] ; retn 0x4435 ; (1 found)
0x4b8977: mov gs, word [rax-0x72000003] ; ret ; (1 found)
0x425982: mov qword [0x00000000004F1860], rax ; ret ; (1 found)
0x4259a2: mov qword [0x00000000004F1868], rax ; ret ; (1 found)
0x4259c2: mov qword [0x00000000004F1870], rax ; ret ; (1 found)
0x425708: mov qword [0x00000000004F1878], rax ; ret ; (1 found)
0x4256f8: mov qword [0x00000000004F1880], rax ; ret ; (1 found)
0x425747: mov qword [0x00000000004F18C8], rdx ; ret ; (1 found)
0x425761: mov qword [0x00000000004F18D8], rax ; ret ; (1 found)
0x425778: mov qword [0x00000000004F18E0], rax ; ret ; (1 found)
0x492247: mov qword [0x00000000004F2BF0], rax ; ret ; (1 found)
0x423f04: mov qword [0x00000000004F4390], 0x0000000000000000 ; mov qword [0x00000000004F4398], 0x0000000000000000 ; ret ; (1 found)
0x423f0f: mov qword [0x00000000004F4398], 0x0000000000000000 ; ret ; (1 found)
0x425906: mov qword [0x00000000004F8418], rax ; ret ; (1 found)
0x4bec0c: mov qword [0x00000000004F84B0], 0x0000000000000000 ; ret ; (1 found)
0x4638c3: mov qword [0x00000000004F8BF0], rax ; lea rax, qword [0x00000000004F8BE8] ; ret ; (1 found)
0x4aec49: mov qword [0x00000000004F8C48], 0x0000000000000000 ; ret ; (3 found)
0x403450: mov qword [0x00000000004F8CE0], 0x0000000000000800 ; pop rbx ; ret ; (1 found)
0x403447: mov qword [0x00000000004F8CE0], rax ; pop rbx ; ret ; (1 found)
0x4bf43b: mov qword [0x00000000004F8FB0], 0x0000000000000000 ; add rsp, 0x08 ; ret ; (1 found)
0x4bf88d: mov qword [0x00000000004F9158], 0x0000000000000000 ; add rsp, 0x08 ; ret ; (1 found)
0x4a82a0: mov qword [0x00000000004F9218], rax ; add rsp, 0x08 ; ret ; (1 found)
0x4ad7c0: mov qword [0x00000000004F9278], 0x0000000000000000 ; add rsp, 0x08 ; ret ; (1 found)
0x4b14bc: mov qword [0x00000000004F9388], 0x0000000000000000 ; pop rbx ; ret ; (1 found)
0x42497b: mov qword [0x000002F8], rdi ; ret ; (2 found)
0x42497a: mov qword [fs:0x000002F8], rdi ; ret ; (2 found)
0x4b49f0: mov qword [fs:rbx], 0x0000000000000000 ; pop rbx ; ret ; (1 found)
0x475465: mov qword [fs:rdx], rax ; ret ; (2 found)
0x4b9502: mov qword [r10], rdx ; pop rbx ; ret ; (2 found)
0x4bc3b0: mov qword [r8], rdx ; ret ; (6 found)
0x493d87: mov qword [r8], rsi ; ret ; (2 found)
0x440744: mov qword [r9-0x08], rcx ; ret ; (1 found)
0x423070: mov qword [rax+0x000000A0], 0xFFFFFFFFFFFFFFFF ; mov qword [rax+0x000000A8], 0x0000000000000000 ; ret ; (1 found)
0x423062: mov qword [rax+0x000000A8], 0x0000000000000000 ; ret ; (4 found)
0x4ac1a8: mov qword [rax+0x00000310], rdx ; movups  [rax+0x00000300], xmm0 ; ret ; (1 found)
0x4b3ec4: mov qword [rax+0x00000378], rdx ; pop rbx ; ret ; (1 found)
0x422faf: mov qword [rax+0x08], 0x0000000000000000 ; ret ; (1 found)
0x463833: mov qword [rax+0x08], rdx ; ret ; (1 found)
0x423b72: mov qword [rax+0x08], rsi ; xor eax, eax ; ret ; (2 found)
0x4b142c: mov qword [rax+0x10], 0x0000000000000000 ; ret ; (1 found)
0x426317: mov qword [rax+0x20], rdx ; add rsp, 0x08 ; ret ; (1 found)
0x464765: mov qword [rax+0x40], rdx ; mov byte [rax+0x50], 0x01 ; ret ; (1 found)
0x4908ce: mov qword [rax+0x40], rdx ; movups  [rax], xmm0 ; ret ; (1 found)
0x490893: mov qword [rax+0x40], rdx ; movups  [rax], xmm1 ; ret ; (1 found)
0x46477f: mov qword [rax+0x48], rdx ; ret ; (2 found)
0x451a63: mov qword [rax+rdx-0x08], rdi ; ret ; (3 found)
0x451c13: mov qword [rax+rdx-0x08], rdi ; vzeroupper ; ret ; (1 found)
0x422fa8: mov qword [rax], 0x0000000000000000 ; mov qword [rax+0x08], 0x0000000000000000 ; ret ; (1 found)
0x451a60: mov qword [rax], rdi ; mov qword [rax+rdx-0x08], rdi ; ret ; (3 found)
0x4b4384: mov qword [rax], rdi ; pop rbx ; ret ; (1 found)
0x4aec46: mov qword [rax], rdx ; mov qword [0x00000000004F8C48], 0x0000000000000000 ; ret ; (1 found)
0x4b4378: mov qword [rax], rdx ; pop rbx ; ret ; (2 found)
0x491947: mov qword [rax], rdx ; xor eax, eax ; ret ; (2 found)
0x4abd99: mov qword [rbp-0x00000088], r9 ; call rax ; (1 found)
0x4ab658: mov qword [rbp-0x000000A0], r10 ; call rax ; (1 found)
0x4ab87d: mov qword [rbp-0x000000A0], r11 ; call r9 ; (1 found)
0x4aaf75: mov qword [rbp-0x000000B0], r10 ; call r9 ; (1 found)
0x4aae01: mov qword [rbp-0x000000B0], r10 ; call rax ; (1 found)
0x4ab876: mov qword [rbp-0x000000D0], r10 ; mov qword [rbp-0x000000A0], r11 ; call r9 ; (1 found)
0x4aaf6e: mov qword [rbp-0x000000E8], r11 ; mov qword [rbp-0x000000B0], r10 ; call r9 ; (1 found)
0x485d20: mov qword [rbp-0x000000E8], r8 ; call rax ; (1 found)
0x418123: mov qword [rbp-0x000008A0], rsi ; call qword [r8+rcx*8-0x40] ; (1 found)
0x41811c: mov qword [rbp-0x000008A8], rax ; mov qword [rbp-0x000008A0], rsi ; call qword [r8+rcx*8-0x40] ; (1 found)
0x48c7ad: mov qword [rbp-0x000008B0], rsi ; call qword [r8+rcx*8-0x40] ; (1 found)
0x48c7a6: mov qword [rbp-0x000008C8], rax ; mov qword [rbp-0x000008B0], rsi ; call qword [r8+rcx*8-0x40] ; (1 found)
0x472b61: mov qword [rbx+0x10], 0x0000000000000000 ; pop rbx ; ret ; (1 found)
0x4b4728: mov qword [rbx+0x18], rax ; pop rbx ; ret ; (1 found)
0x4b486c: mov qword [rbx+0x20], rax ; pop rbx ; ret ; (2 found)
0x4b49f1: mov qword [rbx], 0x0000000000000000 ; pop rbx ; ret ; (1 found)
0x4bb61a: mov qword [rcx], rdx ; ret ; (1 found)
0x4bb664: mov qword [rdi+0x00000098], rsi ; ret ; (1 found)
0x463a53: mov qword [rdi+0x00000460], rdx ; add rsp, 0x08 ; ret ; (1 found)
0x43d717: mov qword [rdi+0x01], rdx ; mov qword [rdi], rcx ; ret ; (2 found)
0x43d6a7: mov qword [rdi+0x02], rdx ; mov qword [rdi], rcx ; ret ; (2 found)
0x43d637: mov qword [rdi+0x03], rdx ; mov qword [rdi], rcx ; ret ; (2 found)
0x43d5c7: mov qword [rdi+0x04], rdx ; mov qword [rdi], rcx ; ret ; (2 found)
0x44d89a: mov qword [rdi+0x05], rdx ; lea rax, qword [rdi+0x0C] ; ret ; (1 found)
0x43d557: mov qword [rdi+0x05], rdx ; mov qword [rdi], rcx ; ret ; (2 found)
0x44d22a: mov qword [rdi+0x05], rdx ; ret ; (1 found)
0x44d8ba: mov qword [rdi+0x06], rdx ; lea rax, qword [rdi+0x0D] ; ret ; (1 found)
0x43d4e7: mov qword [rdi+0x06], rdx ; mov qword [rdi], rcx ; ret ; (2 found)
0x44d23a: mov qword [rdi+0x06], rdx ; ret ; (1 found)
0x44d8da: mov qword [rdi+0x07], rdx ; lea rax, qword [rdi+0x0E] ; ret ; (1 found)
0x43d477: mov qword [rdi+0x07], rdx ; mov qword [rdi], rcx ; ret ; (2 found)
0x44d24a: mov qword [rdi+0x07], rdx ; ret ; (1 found)
0x47f827: mov qword [rdi+0x08], r9 ; ret ; (1 found)
0x44d99c: mov qword [rdi+0x0E], rcx ; lea rax, qword [rdi+0x15] ; ret ; (1 found)
0x44d2dc: mov qword [rdi+0x0E], rcx ; ret ; (1 found)
0x44d9bc: mov qword [rdi+0x0F], rcx ; lea rax, qword [rdi+0x16] ; ret ; (1 found)
0x44d2fc: mov qword [rdi+0x0F], rcx ; ret ; (1 found)
0x47f89e: mov qword [rdi+0x10], r9 ; ret ; (1 found)
0x44d9dc: mov qword [rdi+0x10], rcx ; lea rax, qword [rdi+0x17] ; ret ; (1 found)
0x44d33c: mov qword [rdi+0x10], rcx ; mov byte [rdi+0x18], dh ; ret ; (1 found)
0x44d31c: mov qword [rdi+0x10], rcx ; ret ; (1 found)
0x44d37f: mov qword [rdi+0x10], rdx ; mov  [rdi+0x17], ecx ; ret ; (1 found)
0x44d39f: mov qword [rdi+0x10], rdx ; mov  [rdi+0x18], ecx ; ret ; (1 found)
0x44d360: mov qword [rdi+0x10], rdx ; mov word [rdi+0x18], cx ; ret ; (1 found)
0x4aeaf4: mov qword [rdi+0x18], rax ; mov qword [fs:0x000002F8], rdi ; ret ; (1 found)
0x421fa7: mov qword [rdi+0x48], rax ; movups  [rdi+0x08], xmm0 ; ret ; (1 found)
0x421f6c: mov qword [rdi+0x48], rax ; movups  [rdi+0x08], xmm1 ; ret ; (1 found)
0x455bbb: mov qword [rdi+rdx-0x07], r9 ; lea rax, qword [rdi+rdx] ; ret ; (1 found)
0x45697b: mov qword [rdi+rdx-0x07], r9 ; ret ; (1 found)
0x449c0b: mov qword [rdi+rdx-0x07], r9 ; vzeroupper ; ret ; (1 found)
0x4503eb: mov qword [rdi+rdx-0x08], rcx ; ret ; (5 found)
0x4bb620: mov qword [rdi+rsi*8], rdx ; ret ; (1 found)
0x47f70d: mov qword [rdi-0x08], r9 ; ret ; (1 found)
0x437358: mov qword [rdi-0x08], rcx ; ret ; (14 found)
0x437396: mov qword [rdi-0x08], rdx ; ret ; (142 found)
0x43750b: mov qword [rdi-0x09], r8 ; mov  [rdi-0x04], edx ; ret ; (2 found)
0x437553: mov qword [rdi-0x09], rcx ; mov  [rdi-0x04], edx ; ret ; (10 found)
0x437607: mov qword [rdi-0x09], rcx ; mov byte [rdi-0x01], dl ; ret ; (6 found)
0x43cfa7: mov qword [rdi-0x09], rdx ; mov  [rdi-0x04], ecx ; ret ; (2 found)
0x4376db: mov qword [rdi-0x0A], rcx ; mov  [rdi-0x04], edx ; ret ; (18 found)
0x43cf27: mov qword [rdi-0x0A], rdx ; mov  [rdi-0x04], ecx ; ret ; (2 found)
0x4378bb: mov qword [rdi-0x0B], rcx ; mov  [rdi-0x04], edx ; ret ; (18 found)
0x43cea7: mov qword [rdi-0x0B], rdx ; mov  [rdi-0x04], ecx ; ret ; (2 found)
0x437aab: mov qword [rdi-0x0C], rcx ; mov  [rdi-0x04], edx ; ret ; (18 found)
0x43ce27: mov qword [rdi-0x0C], rdx ; mov  [rdi-0x04], ecx ; ret ; (2 found)
0x437c7c: mov qword [rdi-0x0D], rcx ; mov qword [rdi-0x08], rdx ; ret ; (18 found)
0x43cd98: mov qword [rdi-0x0D], rdx ; mov qword [rdi-0x08], rcx ; ret ; (2 found)
0x437e7c: mov qword [rdi-0x0E], rcx ; mov qword [rdi-0x08], rdx ; ret ; (18 found)
0x43cd08: mov qword [rdi-0x0E], rdx ; mov qword [rdi-0x08], rcx ; ret ; (2 found)
0x43807c: mov qword [rdi-0x0F], rcx ; mov qword [rdi-0x08], rdx ; ret ; (18 found)
0x43cc78: mov qword [rdi-0x0F], rdx ; mov qword [rdi-0x08], rcx ; ret ; (2 found)
0x437354: mov qword [rdi-0x10], r11 ; mov qword [rdi-0x08], rcx ; ret ; (4 found)
0x437392: mov qword [rdi-0x10], r11 ; mov qword [rdi-0x08], rdx ; ret ; (12 found)
0x47f78e: mov qword [rdi-0x10], r9 ; ret ; (1 found)
0x47f6dc: mov qword [rdi], r9 ; ret ; (2 found)
0x44d826: mov qword [rdi], rcx ; lea rax, qword [rdi+0x08] ; ret ; (1 found)
0x44d206: mov qword [rdi], rcx ; mov  [rdi+0x07], edx ; ret ; (1 found)
0x44d216: mov qword [rdi], rcx ; mov  [rdi+0x08], edx ; ret ; (1 found)
0x44d227: mov qword [rdi], rcx ; mov qword [rdi+0x05], rdx ; ret ; (1 found)
0x44d237: mov qword [rdi], rcx ; mov qword [rdi+0x06], rdx ; ret ; (1 found)
0x44d247: mov qword [rdi], rcx ; mov qword [rdi+0x07], rdx ; ret ; (1 found)
0x456978: mov qword [rdi], rcx ; mov qword [rdi+rdx-0x07], r9 ; ret ; (1 found)
0x44d1f7: mov qword [rdi], rcx ; mov word [rdi+0x08], dx ; ret ; (1 found)
0x43d47b: mov qword [rdi], rcx ; ret ; (15 found)
0x44d813: mov qword [rdi], rdx ; lea rax, qword [rdi+0x07] ; ret ; (1 found)
0x43d783: mov qword [rdi], rdx ; ret ; (3 found)
0x440741: mov qword [rdi], rsi ; mov qword [r9-0x08], rcx ; ret ; (1 found)
0x4503e7: mov qword [rdi], rsi ; mov qword [rdi+rdx-0x08], rcx ; ret ; (10 found)
0x41ee3c: mov qword [rdx+0x000000E0], rcx ; pop rbx ; ret ; (1 found)
0x41c00a: mov qword [rdx+0x000000E0], rcx ; ret ; (1 found)
0x44cdaa: mov qword [rdx+0x05], rax ; lea rax, qword [rdx+0x0C] ; ret ; (1 found)
0x44b59a: mov qword [rdx+0x05], rax ; mov rax, rdi ; ret ; (1 found)
0x44cdca: mov qword [rdx+0x06], rax ; lea rax, qword [rdx+0x0D] ; ret ; (1 found)
0x44b5ba: mov qword [rdx+0x06], rax ; mov rax, rdi ; ret ; (1 found)
0x44cdea: mov qword [rdx+0x07], rax ; lea rax, qword [rdx+0x0E] ; ret ; (1 found)
0x44b5da: mov qword [rdx+0x07], rax ; mov rax, rdi ; ret ; (1 found)
0x44cc7a: mov qword [rdx+0x08], rax ; lea rax, qword [rdx+0x0F] ; ret ; (1 found)
0x44b4ca: mov qword [rdx+0x08], rax ; mov rax, rdi ; ret ; (1 found)
0x464cba: mov qword [rdx+0x40], rcx ; mov byte [rdx+0x50], 0x01 ; ret ; (1 found)
0x44cc23: mov qword [rdx], rax ; lea rax, qword [rdx+0x07] ; ret ; (1 found)
0x44b473: mov qword [rdx], rax ; mov rax, rdi ; ret ; (1 found)
0x4b43f0: mov qword [rdx], rax ; pop rbx ; ret ; (1 found)
0x423ac8: mov qword [rdx], rax ; ret ; (3 found)
0x4b1429: mov qword [rdx], rcx ; mov qword [rax+0x10], 0x0000000000000000 ; ret ; (1 found)
0x4ae6e8: mov qword [rsi+0x08], rax ; mov eax, 0x00000002 ; ret ; (1 found)
0x40587b: mov qword [rsi+0x10], rsi ; syscall ; (2 found)
0x4b05f0: mov qword [rsi+0x18], 0x0000000000000000 ; ret ; (1 found)
0x4b05e8: mov qword [rsi+0x18], rdx ; ret ; (1 found)
0x463bc5: mov qword [rsi], rax ; ret ; (1 found)
0x4a857c: mov qword [rsi], rcx ; mov rax, r8 ; ret ; (1 found)
0x4aec8a: mov qword [rsi], rdi ; mov qword [0x00000000004F8C48], 0x0000000000000000 ; ret ; (1 found)
0x4ae58a: mov qword [rsi], rdx ; ret ; (1 found)
0x405879: mov qword [rsi], rsi ; mov qword [rsi+0x10], rsi ; syscall ; (1 found)
0x4a0f2e: mov qword [rsp+0x00000088], rdx ; mov qword [rsp+0x38], rdx ; call r12 ; (2 found)
0x4a0c9d: mov qword [rsp+0x000000D0], rax ; call r12 ; (1 found)
0x41d025: mov qword [rsp+0x08], rcx ; mov rdi, r15 ; call rax ; (2 found)
0x41f64e: mov qword [rsp+0x08], rcx ; mov rdi, rbp ; call rax ; (2 found)
0x4bdb3a: mov qword [rsp+0x10], rcx ; mov rsi, qword [rbx+rcx*8+0x10] ; call rbp ; (1 found)
0x4a0f36: mov qword [rsp+0x38], rdx ; call r12 ; (2 found)
0x483fca: mov qword [rsp-0x10], rax ; movdqa xmm0,  [rsp-0x18] ; ret ; (1 found)
0x4a19e4: mov r10, rcx ; mov eax, 0x00000011 ; syscall ; (1 found)
0x461064: mov r10, rcx ; mov eax, 0x00000028 ; syscall ; (1 found)
0x463394: mov r10, rcx ; mov eax, 0x00000036 ; syscall ; (1 found)
0x48d8c6: mov r10d, 0x00000001 ; mov rdx, qword [r8+rdx*8] ; jmp rdx ; (1 found)
0x4757a6: mov r10d, 0x00000008 ; mov eax, 0x0000000D ; syscall ; (1 found)
0x460344: mov r10d, ecx ; mov eax, 0x00000106 ; syscall ; (1 found)
0x40ba14: mov r13, r15 ; add r15, r14 ; call rax ; (1 found)
0x475a17: mov r13, rax ; mov rdi, r12 ; call rbx ; (1 found)
0x461ce2: mov r13, rbx ; mov rdi, rbp ; call r12 ; (1 found)
0x4bb9fb: mov r15, qword [rbp-0x08] ; leave ; ret ; (3 found)
0x461db2: mov r15d, r13d ; call rax ; (1 found)
0x463b4d: mov r8, qword [0x00000000004F3568] ; mov rax, r8 ; ret ; (1 found)
0x460881: mov r8d, eax ; mov eax, 0x00000003 ; syscall ; (1 found)
0x4ab9ac: mov r9, qword [rbp-0x00000098] ; call r9 ; (1 found)
0x4ab0b9: mov r9, qword [rbp-0x000000B0] ; call r9 ; (1 found)
0x49217a: mov r9d, 0xFFFFFFFF ; mov eax, 0x000000CA ; syscall ; (1 found)
0x49ed70: mov rax, 0x0000000000000001 ; ret ; (1 found)
0x49ed80: mov rax, 0x0000000000000002 ; ret ; (1 found)
0x49ed90: mov rax, 0x0000000000000003 ; ret ; (1 found)
0x49eda0: mov rax, 0x0000000000000004 ; ret ; (1 found)
0x49edb0: mov rax, 0x0000000000000005 ; ret ; (1 found)
0x49edc0: mov rax, 0x0000000000000006 ; ret ; (1 found)
0x49edd0: mov rax, 0x0000000000000007 ; ret ; (1 found)
0x4756e0: mov rax, 0x000000000000000F ; syscall ; (1 found)
0x4059d4: mov rax, 0xFFFFFFFFFFFFFFA0 ; add rax, qword [fs:0x00000000] ; ret ; (1 found)
0x4754d4: mov rax, 0xFFFFFFFFFFFFFFE0 ; add rax, qword [fs:0x00000000] ; ret ; (1 found)
0x4754b4: mov rax, 0xFFFFFFFFFFFFFFE8 ; add rax, qword [fs:0x00000000] ; ret ; (1 found)
0x475494: mov rax, 0xFFFFFFFFFFFFFFF0 ; add rax, qword [fs:0x00000000] ; ret ; (1 found)
0x40b720: mov rax, 0xFFFFFFFFFFFFFFFF ; ret ; (16 found)
0x4022a7: mov rax, qword [0x00000000004F1200] ; leave ; ret ; (1 found)
0x423e34: mov rax, qword [0x00000000004F1260] ; ret ; (1 found)
0x463bbe: mov rax, qword [0x00000000004F3538] ; mov qword [rsi], rax ; ret ; (1 found)
0x49dc10: mov rax, qword [0x00000000004F8E80] ; ret ; (1 found)
0x49dc20: mov rax, qword [0x00000000004F8E88] ; ret ; (1 found)
0x49dc30: mov rax, qword [0x00000000004F8E90] ; ret ; (1 found)
0x49dc40: mov rax, qword [0x00000000004F8E98] ; ret ; (1 found)
0x49dc50: mov rax, qword [0x00000000004F8EA0] ; ret ; (1 found)
0x49dc60: mov rax, qword [0x00000000004F8EA8] ; ret ; (1 found)
0x49dc70: mov rax, qword [0x00000000004F8EB0] ; ret ; (1 found)
0x49dc80: mov rax, qword [0x00000000004F8EB8] ; ret ; (1 found)
0x49dc90: mov rax, qword [0x00000000004F8EC0] ; ret ; (1 found)
0x49dca0: mov rax, qword [0x00000000004F8EC8] ; ret ; (1 found)
0x49dcb0: mov rax, qword [0x00000000004F8ED0] ; ret ; (1 found)
0x49dc08: mov rax, qword [0x00000000004F8ED8] ; ret ; (1 found)
0x4686e4: mov rax, qword [0x00000000004F8F60] ; ret ; (1 found)
0x4686f4: mov rax, qword [0x00000000004F8F68] ; ret ; (1 found)
0x472334: mov rax, qword [0x00000000004F8FA8] ; ret ; (1 found)
0x491eca: mov rax, qword [0x00000010] ; mov byte [rax+0x00000972], 0x00 ; ret ; (1 found)
0x425665: mov rax, qword [0x00000010] ; ret ; (1 found)
0x491ec9: mov rax, qword [fs:0x00000010] ; mov byte [rax+0x00000972], 0x00 ; ret ; (1 found)
0x425664: mov rax, qword [fs:0x00000010] ; ret ; (1 found)
0x47547e: mov rax, qword [fs:rax] ; mov rax, qword [rax+rdi*8+0x00000080] ; ret ; (1 found)
0x490ef4: mov rax, qword [rax+0x000000E0] ; call qword [rax+0x68] ; (1 found)
0x491029: mov rax, qword [rax+0x000000E0] ; mov esi, 0xFFFFFFFF ; call qword [rax+0x18] ; (1 found)
0x41d6dd: mov rax, qword [rax+0x000000E0] ; mov rax, qword [rax+0x20] ; jmp rax ; (1 found)
0x4ad7d4: mov rax, qword [rax+0x08] ; ret ; (1 found)
0x4ad7e4: mov rax, qword [rax+0x08] ; sub rax, qword [fs:0x00000000] ; ret ; (1 found)
0x41d6e4: mov rax, qword [rax+0x20] ; jmp rax ; (1 found)
0x475482: mov rax, qword [rax+rdi*8+0x00000080] ; ret ; (1 found)
0x41ab58: mov rax, qword [rax+rdi*8] ; ret ; (1 found)
0x47547f: mov rax, qword [rax] ; mov rax, qword [rax+rdi*8+0x00000080] ; ret ; (1 found)
0x4bb5c8: mov rax, qword [rax] ; ret ; (1 found)
0x401c3a: mov rax, qword [rbp-0x38] ; leave ; ret ; (1 found)
0x461dae: mov rax, qword [rbp-0x58] ; mov r15d, r13d ; call rax ; (1 found)
0x468078: mov rax, qword [rbp-0x68] ; mov rdi, r12 ; call rax ; (1 found)
0x4aa621: mov rax, qword [rbx+0x10] ; add rax, qword [r12+0x00] ; call rax ; (1 found)
0x4bb5d4: mov rax, qword [rdi+0x00000090] ; ret ; (1 found)
0x4bb634: mov rax, qword [rdi+0x00000098] ; ret ; (2 found)
0x4bb674: mov rax, qword [rdi+0x000000A0] ; ret ; (1 found)
0x4bb6d4: mov rax, qword [rdi+0x000000A8] ; ret ; (1 found)
0x4bb6c4: mov rax, qword [rdi+0x000000B0] ; ret ; (1 found)
0x4bb684: mov rax, qword [rdi+0x000000B8] ; ret ; (1 found)
0x423e54: mov rax, qword [rdi+0x68] ; ret ; (1 found)
0x491ee4: mov rax, qword [rdi] ; mov  [0x00000000004F2BD0], eax ; ret ; (1 found)
0x491ef4: mov rax, qword [rdi] ; mov  [0x00000000004F2BD4], eax ; ret ; (1 found)
0x491f04: mov rax, qword [rdi] ; mov  [0x00000000004F2BD8], eax ; ret ; (1 found)
0x491f14: mov rax, qword [rdi] ; mov  [0x00000000004F2BDC], eax ; ret ; (1 found)
0x492234: mov rax, qword [rdi] ; mov  [0x00000000004F2BE0], eax ; ret ; (1 found)
0x492244: mov rax, qword [rdi] ; mov qword [0x00000000004F2BF0], rax ; ret ; (1 found)
0x423ac5: mov rax, qword [rdi] ; mov qword [rdx], rax ; ret ; (1 found)
0x4aeb29: mov rax, qword [rdi] ; mov rdi, r8 ; jmp rax ; (1 found)
0x4b8e45: mov rax, qword [rsp+0x00] ; add rsp, 0x38 ; ret ; (1 found)
0x40b88a: mov rax, qword [rsp+0x00] ; call rax ; (2 found)
0x4bc233: mov rax, qword [rsp+0x00] ; mov  [rsp+0x08], ecx ; call rax ; (1 found)
0x460641: mov rax, qword [rsp+0x08] ; add rsp, 0x28 ; ret ; (3 found)
0x4032b3: mov rax, qword [rsp+0x08] ; call rax ; (1 found)
0x4706d5: mov rax, qword [rsp+0x10] ; call rax ; (2 found)
0x4653c9: mov rax, qword [rsp+0x10] ; mov rdi, qword [rsp+0x18] ; call rax ; (1 found)
0x461902: mov rax, qword [rsp+0x10] ; mov rdi, rbp ; call rax ; (2 found)
0x46a5a1: mov rax, qword [rsp+0x18] ; call rax ; (5 found)
0x469fe1: mov rax, qword [rsp+0x28] ; call rax ; (4 found)
0x4b06aa: mov rax, r10 ; add rsp, 0x28 ; ret ; (1 found)
0x405c88: mov rax, r12 ; pop r12 ; ret ; (7 found)
0x4030ba: mov rax, r8 ; pop rbx ; ret ; (1 found)
0x4572bb: mov rax, r8 ; ret ; (10 found)
0x4497e4: mov rax, r8 ; vzeroupper ; ret ; (6 found)
0x489aba: mov rax, r9 ; pop r14 ; ret ; (1 found)
0x423e64: mov rax, rdi ; ret ; (20 found)
0x47fe54: mov rax, rdx ; pop rbx ; ret ; (1 found)
0x449e38: mov rax, rdx ; ret ; (7 found)
0x451af0: mov rax, rdx ; vzeroupper ; ret ; (2 found)
0x47567e: mov rbp, r9 ; nop ; jmp rdx ; (1 found)
0x4a8a0b: mov rbp, rsp ; mov rsi, rbp ; syscall ; (1 found)
0x4027e8: mov rbx, qword [rbp-0x08] ; leave ; ret ; (1 found)
0x48dad1: mov rbx, qword [rsp+0x00000090] ; jmp rdx ; (1 found)
0x4ace24: mov rbx, qword [rsp+0x00] ; add rsp, 0x18 ; jmp r11 ; (3 found)
0x4ac712: mov rbx, qword [rsp+0x00] ; add rsp, 0x30 ; jmp r11 ; (3 found)
0x4ac800: mov rbx, qword [rsp+0x00] ; add rsp, 0x30 ; ret ; (3 found)
0x48d7d0: mov rbx, rcx ; jmp rdx ; (9 found)
0x49353c: mov rbx, rdi ; mov rdi, qword [rdi+0x08] ; call qword [rbx] ; (1 found)
0x46536c: mov rcx, qword [rsp+0x10] ; mov rdi, qword [rsp+0x18] ; call rcx ; (1 found)
0x458758: mov rcx, r12 ; call rbx ; (1 found)
0x450595: mov rcx, rdx ; rep movsb ; ret ; (1 found)
0x4256de: mov rdi, qword [0x00000300] ; call 0x00000000 ; (2 found)
0x4256dd: mov rdi, qword [fs:0x00000300] ; call 0x00000000 ; (2 found)
0x461715: mov rdi, qword [r12+0x00] ; call rbx ; (5 found)
0x461773: mov rdi, qword [r13+0x00] ; call rbx ; (8 found)
0x49df67: mov rdi, qword [r13+0x00] ; movzx esi, bl ; call rbp ; (1 found)
0x4becfb: mov rdi, qword [r13+0x10] ; add rdi, rbp ; call r12 ; (1 found)
0x4616e2: mov rdi, qword [rbp+0x00] ; call rbx ; (3 found)
0x48ad75: mov rdi, qword [rbp-0x000008B8] ; mov rdx, r14 ; call qword [r13+0x38] ; (1 found)
0x49353f: mov rdi, qword [rdi+0x08] ; call qword [rbx] ; (1 found)
0x4ac741: mov rdi, qword [rdi+0x28] ; call r11 ; (3 found)
0x401913: mov rdi, qword [rsp+0x08] ; call qword [rsp+0x00] ; (1 found)
0x476b73: mov rdi, qword [rsp+0x08] ; mov eax, 0x0000013E ; syscall ; (1 found)
0x4609c9: mov rdi, qword [rsp+0x10] ; mov eax, 0x0000004F ; syscall ; (1 found)
0x4653ce: mov rdi, qword [rsp+0x18] ; call rax ; (1 found)
0x465371: mov rdi, qword [rsp+0x18] ; call rcx ; (1 found)
0x471ef4: mov rdi, qword [rsp+0x38] ; call r15 ; (2 found)
0x472050: mov rdi, qword [rsp+0x38] ; lea r8, qword [rsp+0x000000A0] ; call r15 ; (2 found)
0x46cf27: mov rdi, qword [rsp+0x48] ; call r14 ; (1 found)
0x4706d1: mov rdi, qword [rsp+0x48] ; mov rax, qword [rsp+0x10] ; call rax ; (1 found)
0x46ef28: mov rdi, qword [rsp+0x48] ; mov rax, qword [rsp+0x18] ; call rax ; (1 found)
0x46df16: mov rdi, qword [rsp+0x48] ; mov rax, qword [rsp+0x28] ; call rax ; (1 found)
0x46c22e: mov rdi, qword [rsp+0x50] ; call r13 ; (3 found)
0x46bbb7: mov rdi, qword [rsp+0x50] ; mov rax, qword [rsp+0x18] ; call rax ; (2 found)
0x469fdb: mov rdi, qword [rsp+0x50] ; mov rax, qword [rsp+0x28] ; call rax ; (4 found)
0x46a59c: mov rdi, qword [rsp+0x58] ; mov rax, qword [rsp+0x18] ; call rax ; (2 found)
0x48d605: mov rdi, r12 ; call qword [r14+0x38] ; (2 found)
0x48dd63: mov rdi, r12 ; call qword [r15+0x38] ; (1 found)
0x48e41c: mov rdi, r12 ; call qword [rax+0x38] ; (1 found)
0x48cc3c: mov rdi, r12 ; call qword [rbp+0x38] ; (1 found)
0x4226de: mov rdi, r12 ; call qword [rbx+0x18] ; (1 found)
0x48d116: mov rdi, r12 ; call qword [rbx+0x38] ; (1 found)
0x40b80a: mov rdi, r12 ; call rax ; (4 found)
0x4bda61: mov rdi, r12 ; call rbp ; (1 found)
0x475a1a: mov rdi, r12 ; call rbx ; (4 found)
0x485d1d: mov rdi, r12 ; mov qword [rbp-0x000000E8], r8 ; call rax ; (1 found)
0x475b43: mov rdi, r12 ; mov rdx, r14 ; call rbp ; (1 found)
0x4914ae: mov rdi, r13 ; call qword [r14+0x20] ; (1 found)
0x40c173: mov rdi, r13 ; call r15 ; (1 found)
0x475a56: mov rdi, r13 ; call rbx ; (1 found)
0x41e35b: mov rdi, r13 ; lea r9, qword [rsp+0x28] ; call rbp ; (2 found)
0x417714: mov rdi, r14 ; call qword [r12+0x38] ; (1 found)
0x416bee: mov rdi, r14 ; call qword [r13+0x38] ; (1 found)
0x416218: mov rdi, r14 ; call qword [rax+0x38] ; (2 found)
0x4170f7: mov rdi, r14 ; call qword [rcx+0x38] ; (2 found)
0x4be890: mov rdi, r14 ; call rbp ; (1 found)
0x41d2b1: mov rdi, r15 ; call qword [r13+0x00000080] ; (1 found)
0x41cfd2: mov rdi, r15 ; call qword [r14+0x00000080] ; (2 found)
0x41ceec: mov rdi, r15 ; call qword [r14+0x00000090] ; (1 found)
0x41c2b8: mov rdi, r15 ; call qword [r14+0x38] ; (2 found)
0x41d49f: mov rdi, r15 ; call qword [rbp+0x00000080] ; (1 found)
0x41c31e: mov rdi, r15 ; call qword [rbp+0x38] ; (2 found)
0x41d58e: mov rdi, r15 ; call qword [rbx+0x00000080] ; (1 found)
0x41d02b: mov rdi, r15 ; call rax ; (1 found)
0x41e5cc: mov rdi, r15 ; call rbx ; (1 found)
0x4bc25a: mov rdi, r15 ; mov rsi, qword [r14] ; call rax ; (1 found)
0x41f0be: mov rdi, r8 ; call qword [r15+0x18] ; (1 found)
0x41cc9d: mov rdi, r8 ; call qword [rax+0x18] ; (1 found)
0x4aeb2c: mov rdi, r8 ; jmp rax ; (1 found)
0x4930cc: mov rdi, r8 ; mov eax, 0x000000CA ; syscall ; (2 found)
0x420450: mov rdi, rbp ; call qword [r12+0x00000090] ; (2 found)
0x4186cc: mov rdi, rbp ; call qword [r12+0x38] ; (1 found)
0x41fae1: mov rdi, rbp ; call qword [r13+0x00000090] ; (1 found)
0x419963: mov rdi, rbp ; call qword [r13+0x38] ; (1 found)
0x41f23a: mov rdi, rbp ; call qword [r14+0x00000090] ; (1 found)
0x4201a0: mov rdi, rbp ; call qword [r14+0x18] ; (3 found)
0x41f6dc: mov rdi, rbp ; call qword [r15+0x00000080] ; (1 found)
0x418be6: mov rdi, rbp ; call qword [r15+0x38] ; (3 found)
0x41f604: mov rdi, rbp ; call qword [rax+0x00000080] ; (1 found)
0x41f496: mov rdi, rbp ; call qword [rax+0x00000090] ; (1 found)
0x420296: mov rdi, rbp ; call qword [rax+0x78] ; (1 found)
0x41bdad: mov rdi, rbp ; call qword [rbx+0x00000080] ; (4 found)
0x4214f1: mov rdi, rbp ; call qword [rbx+0x00000088] ; (2 found)
0x48fbbb: mov rdi, rbp ; call qword [rbx+0x00000090] ; (1 found)
0x41ba5c: mov rdi, rbp ; call qword [rbx+0x10] ; (1 found)
0x422257: mov rdi, rbp ; call qword [rbx+0x18] ; (2 found)
0x419230: mov rdi, rbp ; call qword [rbx+0x38] ; (2 found)
0x415ca6: mov rdi, rbp ; call qword [rcx+0x38] ; (4 found)
0x461ce5: mov rdi, rbp ; call r12 ; (1 found)
0x41f654: mov rdi, rbp ; call rax ; (2 found)
0x4588e7: mov rdi, rbp ; call rbx ; (2 found)
0x457d24: mov rdi, rbp ; lea r9, qword [rsp+0x30] ; call rbx ; (1 found)
0x4934a6: mov rdi, rbp ; mov eax, 0x000000CA ; syscall ; (1 found)
0x492674: mov rdi, rbp ; mov eax, r13d ; syscall ; (1 found)
0x493410: mov rdi, rbp ; mov eax, r8d ; syscall ; (1 found)
0x420257: mov rdi, rbp ; mov edx, 0x00000001 ; call qword [rax+0x00000080] ; (1 found)
0x457e6f: mov rdi, rbp ; mov rsi, qword [rsp+0x18] ; call rbx ; (1 found)
0x41fd03: mov rdi, rbp ; sub r12, r14 ; call qword [r13+0x40] ; (1 found)
0x4615c4: mov rdi, rbp ; xor esi, esi ; call r12 ; (4 found)
0x41fffe: mov rdi, rbx ; call qword [r12+0x00000080] ; (1 found)
0x420c96: mov rdi, rbx ; call qword [r12+0x00000088] ; (1 found)
0x423a1b: mov rdi, rbx ; call qword [r12+0x18] ; (1 found)
0x420a6f: mov rdi, rbx ; call qword [r12+0x48] ; (1 found)
0x48fd67: mov rdi, rbx ; call qword [r13+0x38] ; (1 found)
0x422c3f: mov rdi, rbx ; call qword [r13+0x60] ; (1 found)
0x420b1a: mov rdi, rbx ; call qword [r14+0x00000080] ; (1 found)
0x4238eb: mov rdi, rbx ; call qword [r14+0x18] ; (1 found)
0x41aa2c: mov rdi, rbx ; call qword [r14+0x38] ; (2 found)
0x4ae9a9: mov rdi, rbx ; call qword [r14+0x48] ; (1 found)
0x420b59: mov rdi, rbx ; call qword [r14+0x78] ; (1 found)
0x48ff41: mov rdi, rbx ; call qword [r15+0x38] ; (1 found)
0x41de1c: mov rdi, rbx ; call qword [rbp+0x00000080] ; (4 found)
0x421ff0: mov rdi, rbx ; call qword [rbp+0x18] ; (2 found)
0x422641: mov rdi, rbx ; call qword [rbp+0x20] ; (3 found)
0x423161: mov rdi, rbx ; call qword [rbp+0x30] ; (4 found)
0x41bf44: mov rdi, rbx ; call qword [rbp+0x60] ; (2 found)
0x42258a: mov rdi, rbx ; call qword [rbp+0x68] ; (2 found)
0x41fe79: mov rdi, rbx ; call qword [rbp+0x70] ; (1 found)
0x42361a: mov rdi, rbx ; call qword [rcx+0x58] ; (1 found)
0x42333e: mov rdi, rbx ; call qword [rdx+0x18] ; (1 found)
0x4684fa: mov rdi, rbx ; call r12 ; (2 found)
0x468626: mov rdi, rbx ; call r14 ; (3 found)
0x467b29: mov rdi, rbx ; call r15 ; (1 found)
0x48f702: mov rdi, rbx ; call r8 ; (1 found)
0x41b301: mov rdi, rbx ; call rax ; (1 found)
0x468739: mov rdi, rbx ; call rbp ; (1 found)
0x464667: mov rdi, rbx ; mov eax, 0x0000014E ; syscall ; (1 found)
0x41efb5: mov rdi, rbx ; sub rdx, rsi ; call qword [r12+0x70] ; (2 found)
0x41c92c: mov rdi, rbx ; sub rdx, rsi ; call qword [rax+0x70] ; (2 found)
0x47545e: mov rdx, 0xFFFFFFFFFFFFFFE0 ; mov qword [fs:rdx], rax ; ret ; (1 found)
0x4af14d: mov rdx, qword [0x00000000004F9358] ; add word [rdx+rax*2], 0x0001 ; ret ; (1 found)
0x418946: mov rdx, qword [r11+rdx*8] ; jmp rdx ; (3 found)
0x4bda5e: mov rdx, qword [r14] ; mov rdi, r12 ; call rbp ; (1 found)
0x48cead: mov rdx, qword [r8+rdx*8] ; jmp rdx ; (3 found)
0x48dacd: mov rdx, qword [rbx+rdx*8] ; mov rbx, qword [rsp+0x00000090] ; jmp rdx ; (1 found)
0x48d7cc: mov rdx, qword [rbx+rdx*8] ; mov rbx, rcx ; jmp rdx ; (9 found)
0x419751: mov rdx, qword [rcx+rdx*8] ; jmp rdx ; (1 found)
0x46382f: mov rdx, qword [rcx+rdx] ; mov qword [rax+0x08], rdx ; ret ; (1 found)
0x41c003: mov rdx, qword [rdi+0x000000A0] ; mov qword [rdx+0x000000E0], rcx ; ret ; (1 found)
0x419488: mov rdx, qword [rdi+rdx*8] ; jmp rdx ; (4 found)
0x4bc3d0: mov rdx, qword [rdx] ; mov qword [r8], rdx ; ret ; (2 found)
0x419446: mov rdx, qword [rsi+rdx*8] ; jmp rdx ; (5 found)
0x4374c0: mov rdx, qword [rsi-0x08] ; mov qword [rdi-0x08], rdx ; ret ; (4 found)
0x43d780: mov rdx, qword [rsi] ; mov qword [rdi], rdx ; ret ; (3 found)
0x4157a3: mov rdx, r12 ; call qword [r13+0x38] ; (1 found)
0x4a8c1a: mov rdx, r12 ; mov eax, 0x00000014 ; syscall ; (1 found)
0x416beb: mov rdx, r12 ; mov rdi, r14 ; call qword [r13+0x38] ; (1 found)
0x461669: mov rdx, r13 ; mov esi, 0x00000001 ; call r12 ; (2 found)
0x48c39f: mov rdx, r13 ; mov rsi, r10 ; call qword [r14+0x38] ; (1 found)
0x48a34b: mov rdx, r13 ; mov rsi, r10 ; call qword [r15+0x38] ; (1 found)
0x48b4c6: mov rdx, r13 ; mov rsi, r15 ; call qword [r14+0x38] ; (1 found)
0x48b7fd: mov rdx, r13 ; mov rsi, r15 ; call qword [rax+0x38] ; (1 found)
0x48ad7c: mov rdx, r14 ; call qword [r13+0x38] ; (1 found)
0x475b46: mov rdx, r14 ; call rbp ; (1 found)
0x424dd9: mov rdx, r14 ; lea rsi, qword [0x00000000004C32A0] ; syscall ; (1 found)
0x40b888: mov rdx, r14 ; mov rax, qword [rsp+0x00] ; call rax ; (1 found)
0x419960: mov rdx, r15 ; mov rdi, rbp ; call qword [r13+0x38] ; (1 found)
0x41922d: mov rdx, r15 ; mov rdi, rbp ; call qword [rbx+0x38] ; (1 found)
0x47612f: mov rdx, rbp ; mov rdi, r12 ; call rbx ; (1 found)
0x475a2c: mov rdx, rbp ; mov rsi, r12 ; call rbx ; (1 found)
0x48993f: mov rdx, rbx ; call qword [r13+0x38] ; (1 found)
0x48cc39: mov rdx, rbx ; mov rdi, r12 ; call qword [rbp+0x38] ; (1 found)
0x4186c9: mov rdx, rbx ; mov rdi, rbp ; call qword [r12+0x38] ; (1 found)
0x41c423: mov rdx, rbx ; mov rsi, r12 ; call qword [r13+0x38] ; (1 found)
0x4a1a40: mov rdx, rsp ; mov eax, 0x00000010 ; syscall ; (1 found)
0x462a9e: mov rdx, rsp ; mov eax, 0x000000CC ; syscall ; (1 found)
0x4bc25d: mov rsi, qword [r14] ; call rax ; (1 found)
0x4bdb3f: mov rsi, qword [rbx+rcx*8+0x10] ; call rbp ; (1 found)
0x4ac73d: mov rsi, qword [rdi+0x20] ; mov rdi, qword [rdi+0x28] ; call r11 ; (3 found)
0x457e72: mov rsi, qword [rsp+0x18] ; call rbx ; (1 found)
0x4032ae: mov rsi, qword [rsp+0x18] ; mov rax, qword [rsp+0x08] ; call rax ; (1 found)
0x467805: mov rsi, qword [rsp+0x18] ; xor r8d, r8d ; call rbx ; (1 found)
0x471ef0: mov rsi, qword [rsp+0x40] ; mov rdi, qword [rsp+0x38] ; call r15 ; (1 found)
0x46cf22: mov rsi, qword [rsp+0x50] ; mov rdi, qword [rsp+0x48] ; call r14 ; (1 found)
0x46c229: mov rsi, qword [rsp+0x58] ; mov rdi, qword [rsp+0x50] ; call r13 ; (3 found)
0x48c3a2: mov rsi, r10 ; call qword [r14+0x38] ; (1 found)
0x48a34e: mov rsi, r10 ; call qword [r15+0x38] ; (1 found)
0x418ebc: mov rsi, r10 ; mov rdi, rbp ; call qword [r15+0x38] ; (1 found)
0x41a30f: mov rsi, r10 ; mov rdi, rbp ; call qword [rbx+0x38] ; (1 found)
0x417711: mov rsi, r11 ; mov rdi, r14 ; call qword [r12+0x38] ; (1 found)
0x4170f4: mov rsi, r11 ; mov rdi, r14 ; call qword [rcx+0x38] ; (1 found)
0x41c426: mov rsi, r12 ; call qword [r13+0x38] ; (1 found)
0x475a2f: mov rsi, r12 ; call rbx ; (1 found)
0x4b61c7: mov rsi, r12 ; mov edi, ebp ; call qword [rax] ; (2 found)
0x4b6183: mov rsi, r12 ; mov edi, ebp ; call rax ; (1 found)
0x475a53: mov rsi, r12 ; mov rdi, r13 ; call rbx ; (1 found)
0x416e47: mov rsi, r12 ; mov rdi, r14 ; call qword [rax+0x38] ; (1 found)
0x417ebc: mov rsi, r12 ; mov rdi, r14 ; call qword [rcx+0x38] ; (1 found)
0x41f6d9: mov rsi, r12 ; mov rdi, rbp ; call qword [r15+0x00000080] ; (1 found)
0x415ca2: mov rsi, r12 ; mov rdi, rbp ; call qword [rcx+0x38] ; (6 found)
0x420b56: mov rsi, r12 ; mov rdi, rbx ; call qword [r14+0x78] ; (1 found)
0x404af3: mov rsi, r13 ; mov edi, r12d ; call qword [r14+r15*8] ; (2 found)
0x4a0c9a: mov rsi, r13 ; mov qword [rsp+0x000000D0], rax ; call r12 ; (1 found)
0x40b806: mov rsi, r13 ; mov rdi, r12 ; call rax ; (5 found)
0x416215: mov rsi, r13 ; mov rdi, r14 ; call qword [rax+0x38] ; (1 found)
0x41c2b5: mov rsi, r13 ; mov rdi, r15 ; call qword [r14+0x38] ; (2 found)
0x41c31b: mov rsi, r13 ; mov rdi, r15 ; call qword [rbp+0x38] ; (2 found)
0x41e5c9: mov rsi, r13 ; mov rdi, r15 ; call rbx ; (1 found)
0x420292: mov rsi, r13 ; mov rdi, rbp ; call qword [rax+0x78] ; (2 found)
0x4a084d: mov rsi, r13 ; mov rdi, rbp ; call rbx ; (1 found)
0x4bc108: mov rsi, r13 ; mov rdi, rbx ; call r14 ; (1 found)
0x475a6e: mov rsi, r14 ; mov rdi, r12 ; call rbx ; (2 found)
0x418c7e: mov rsi, r14 ; mov rdi, rbp ; call qword [r15+0x38] ; (1 found)
0x48ff3e: mov rsi, r14 ; mov rdi, rbx ; call qword [r15+0x38] ; (1 found)
0x41fe76: mov rsi, r14 ; mov rdi, rbx ; call qword [rbp+0x70] ; (1 found)
0x48b4c9: mov rsi, r15 ; call qword [r14+0x38] ; (1 found)
0x48b800: mov rsi, r15 ; call qword [rax+0x38] ; (1 found)
0x48d112: mov rsi, r15 ; mov rdi, r12 ; call qword [rbx+0x38] ; (2 found)
0x4935c1: mov rsi, r8 ; mov eax, 0x0000000E ; syscall ; (1 found)
0x418be3: mov rsi, r8 ; mov rdi, rbp ; call qword [r15+0x38] ; (1 found)
0x48d602: mov rsi, rbp ; mov rdi, r12 ; call qword [r14+0x38] ; (2 found)
0x48dd5f: mov rsi, rbp ; mov rdi, r12 ; call qword [r15+0x38] ; (2 found)
0x48e419: mov rsi, rbp ; mov rdi, r12 ; call qword [rax+0x38] ; (1 found)
0x41d1d9: mov rsi, rbp ; mov rdi, r15 ; call qword [r14+0x00000080] ; (1 found)
0x41fffb: mov rsi, rbp ; mov rdi, rbx ; call qword [r12+0x00000080] ; (1 found)
0x48fd64: mov rsi, rbp ; mov rdi, rbx ; call qword [r13+0x38] ; (1 found)
0x4ae9a6: mov rsi, rbp ; mov rdi, rbx ; call qword [r14+0x48] ; (1 found)
0x4a8a0e: mov rsi, rbp ; syscall ; (1 found)
0x42044d: mov rsi, rsp ; mov rdi, rbp ; call qword [r12+0x00000090] ; (2 found)
0x41f237: mov rsi, rsp ; mov rdi, rbp ; call qword [r14+0x00000090] ; (1 found)
0x48fbb8: mov rsi, rsp ; mov rdi, rbp ; call qword [rbx+0x00000090] ; (1 found)
0x4bbba9: mov rsp, rcx ; pop rcx ; jmp rcx ; (4 found)
0x46cd3b: mov seg?, cx ; jmp qword [rsi-0x70] ; (1 found)
0x415168: mov seg?, di ; jmp qword [rsi+0x0F] ; (1 found)
0x4beaf0: mov seg?, dx ; dec  [rax-0x7D] ; ret ; (1 found)
0x493f7e: mov seg?, word [rax+rax] ; add byte [rax+0x0F], cl ; retn 0x66C3 ; (1 found)
0x43b79b: mov seg?, word [rdi+rdi*8-0x01] ; jmp qword [rsi+0x45] ; (4 found)
0x440769: mov word [r9-0x02], cx ; ret ; (1 found)
0x451a70: mov word [rax], di ; mov byte [rax+rdx-0x01], dil ; ret ; (3 found)
0x43d9b7: mov word [rdi+0x01], dx ; mov word [rdi], cx ; ret ; (2 found)
0x44d7e8: mov word [rdi+0x04], dx ; lea rax, qword [rdi+0x05] ; ret ; (1 found)
0x44d1b8: mov word [rdi+0x04], dx ; ret ; (1 found)
0x44d83a: mov word [rdi+0x08], dx ; lea rax, qword [rdi+0x09] ; ret ; (1 found)
0x44d1fa: mov word [rdi+0x08], dx ; ret ; (1 found)
0x44d91c: mov word [rdi+0x10], cx ; lea rax, qword [rdi+0x11] ; ret ; (1 found)
0x44d27c: mov word [rdi+0x10], cx ; ret ; (1 found)
0x44da24: mov word [rdi+0x18], cx ; lea rax, qword [rdi+0x19] ; ret ; (1 found)
0x44d364: mov word [rdi+0x18], cx ; ret ; (1 found)
0x451173: mov word [rdi+rdx+0x02], si ; mov byte [rdi], cl ; ret ; (2 found)
0x4503c8: mov word [rdi+rdx-0x02], si ; mov byte [rdi], cl ; ret ; (3 found)
0x437a5c: mov word [rdi-0x02], cx ; ret ; (4 found)
0x437874: mov word [rdi-0x02], dx ; ret ; (4 found)
0x437a58: mov word [rdi-0x03], dx ; mov word [rdi-0x02], cx ; ret ; (4 found)
0x456943: mov word [rdi], cx ; mov byte [rdi+0x02], 0x00 ; ret ; (1 found)
0x44d183: mov word [rdi], cx ; mov byte [rdi+0x02], dh ; ret ; (1 found)
0x4500b6: mov word [rdi], cx ; mov word [rsi-0x02], cx ; ret ; (1 found)
0x43d9bb: mov word [rdi], cx ; ret ; (2 found)
0x44d7a3: mov word [rdi], dx ; lea rax, qword [rdi+0x01] ; ret ; (2 found)
0x43da23: mov word [rdi], dx ; ret ; (4 found)
0x449bc3: mov word [rdi], dx ; vzeroupper ; ret ; (1 found)
0x440766: mov word [rdi], si ; mov word [r9-0x02], cx ; ret ; (1 found)
0x44ccf8: mov word [rdx+0x04], ax ; lea rax, qword [rdx+0x05] ; ret ; (1 found)
0x44b538: mov word [rdx+0x04], ax ; mov rax, rdi ; ret ; (1 found)
0x44cca3: mov word [rdx], ax ; lea rax, qword [rdx+0x01] ; ret ; (1 found)
0x44b4f3: mov word [rdx], ax ; mov rax, rdi ; ret ; (1 found)
0x417b90: mov word [rsi+0x00], es ; add byte [rax+0x39], cl ; ret ; (1 found)
0x4500b9: mov word [rsi-0x02], cx ; ret ; (1 found)
0x480e6b: mov word [rsp-0x10], si ; fld tword [rsp-0x18] ; ret ; (1 found)
0x435fe3: movaps  [rdi-0x10], xmm5 ; jmp r9 ; (30 found)
0x435fdf: movaps  [rdi-0x20], xmm4 ; movaps  [rdi-0x10], xmm5 ; jmp r9 ; (30 found)
0x43608d: movaps  [rdi], xmm4 ; jmp r9 ; (30 found)
0x4a0783: movaps  [rsp+0x00], xmm3 ; call rbx ; (1 found)
0x4a0780: movd eax, mm3 ; movaps  [rsp+0x00], xmm3 ; call rbx ; (1 found)
0x480e44: movd mm0, mm0 ; ret ; (1 found)
0x480dfe: movd mm0, mm6 ; ret ; (1 found)
0x480dfd: movd xmm0, xmm6 ; ret ; (1 found)
0x483fcf: movdqa xmm0,  [rsp-0x18] ; ret ; (1 found)
0x43da7f: movdqu  [rdi+0x01], xmm0 ; movdqu  [rdi], xmm1 ; ret ; (2 found)
0x43da0f: movdqu  [rdi+0x02], xmm0 ; movdqu  [rdi], xmm1 ; ret ; (2 found)
0x43d99f: movdqu  [rdi+0x03], xmm0 ; movdqu  [rdi], xmm1 ; ret ; (2 found)
0x43d92f: movdqu  [rdi+0x04], xmm0 ; movdqu  [rdi], xmm1 ; ret ; (2 found)
0x43d8bf: movdqu  [rdi+0x05], xmm0 ; movdqu  [rdi], xmm1 ; ret ; (2 found)
0x43d84f: movdqu  [rdi+0x06], xmm0 ; movdqu  [rdi], xmm1 ; ret ; (2 found)
0x43d7df: movdqu  [rdi+0x07], xmm0 ; movdqu  [rdi], xmm1 ; ret ; (2 found)
0x43d76f: movdqu  [rdi+0x08], xmm0 ; movdqu  [rdi], xmm1 ; ret ; (2 found)
0x43d6ff: movdqu  [rdi+0x09], xmm0 ; movdqu  [rdi], xmm1 ; ret ; (2 found)
0x43d68f: movdqu  [rdi+0x0A], xmm0 ; movdqu  [rdi], xmm1 ; ret ; (2 found)
0x43d61f: movdqu  [rdi+0x0B], xmm0 ; movdqu  [rdi], xmm1 ; ret ; (2 found)
0x43d5af: movdqu  [rdi+0x0C], xmm0 ; movdqu  [rdi], xmm1 ; ret ; (2 found)
0x43d53f: movdqu  [rdi+0x0D], xmm0 ; movdqu  [rdi], xmm1 ; ret ; (2 found)
0x44da7d: movdqu  [rdi+0x0D], xmm2 ; lea rax, qword [rdi+0x1C] ; ret ; (1 found)
0x44d3bd: movdqu  [rdi+0x0D], xmm2 ; ret ; (1 found)
0x43d4cf: movdqu  [rdi+0x0E], xmm0 ; movdqu  [rdi], xmm1 ; ret ; (2 found)
0x44da9d: movdqu  [rdi+0x0E], xmm2 ; lea rax, qword [rdi+0x1D] ; ret ; (1 found)
0x44d3dd: movdqu  [rdi+0x0E], xmm2 ; ret ; (1 found)
0x43d45f: movdqu  [rdi+0x0F], xmm0 ; movdqu  [rdi], xmm1 ; ret ; (2 found)
0x44dabd: movdqu  [rdi+0x0F], xmm2 ; lea rax, qword [rdi+0x1E] ; ret ; (1 found)
0x44d3fd: movdqu  [rdi+0x0F], xmm2 ; ret ; (1 found)
0x44dadd: movdqu  [rdi+0x10], xmm2 ; lea rax, qword [rdi+0x1F] ; ret ; (1 found)
0x44d41d: movdqu  [rdi+0x10], xmm2 ; ret ; (1 found)
0x43cbeb: movdqu  [rdi-0x10], xmm0 ; ret ; (2 found)
0x43cc5b: movdqu  [rdi-0x10], xmm1 ; ret ; (30 found)
0x43d396: movdqu  [rdi-0x11], xmm0 ; movdqu  [rdi-0x10], xmm1 ; ret ; (2 found)
0x43d316: movdqu  [rdi-0x12], xmm0 ; movdqu  [rdi-0x10], xmm1 ; ret ; (2 found)
0x43d286: movdqu  [rdi-0x13], xmm0 ; movdqu  [rdi-0x10], xmm1 ; ret ; (2 found)
0x43d206: movdqu  [rdi-0x14], xmm0 ; movdqu  [rdi-0x10], xmm1 ; ret ; (2 found)
0x43d186: movdqu  [rdi-0x15], xmm0 ; movdqu  [rdi-0x10], xmm1 ; ret ; (2 found)
0x43d106: movdqu  [rdi-0x16], xmm0 ; movdqu  [rdi-0x10], xmm1 ; ret ; (2 found)
0x43d086: movdqu  [rdi-0x17], xmm0 ; movdqu  [rdi-0x10], xmm1 ; ret ; (2 found)
0x43d006: movdqu  [rdi-0x18], xmm0 ; movdqu  [rdi-0x10], xmm1 ; ret ; (2 found)
0x43cf86: movdqu  [rdi-0x19], xmm0 ; movdqu  [rdi-0x10], xmm1 ; ret ; (2 found)
0x43cf06: movdqu  [rdi-0x1A], xmm0 ; movdqu  [rdi-0x10], xmm1 ; ret ; (2 found)
0x43ce86: movdqu  [rdi-0x1B], xmm0 ; movdqu  [rdi-0x10], xmm1 ; ret ; (2 found)
0x43ce06: movdqu  [rdi-0x1C], xmm0 ; movdqu  [rdi-0x10], xmm1 ; ret ; (2 found)
0x43cd76: movdqu  [rdi-0x1D], xmm0 ; movdqu  [rdi-0x10], xmm1 ; ret ; (2 found)
0x43cce6: movdqu  [rdi-0x1E], xmm0 ; movdqu  [rdi-0x10], xmm1 ; ret ; (2 found)
0x43cc56: movdqu  [rdi-0x1F], xmm0 ; movdqu  [rdi-0x10], xmm1 ; ret ; (2 found)
0x44d8f4: movdqu  [rdi], xmm0 ; lea rax, qword [rdi+0x0F] ; ret ; (1 found)
0x44d297: movdqu  [rdi], xmm0 ; mov  [rdi+0x0F], ecx ; ret ; (1 found)
0x44d2a7: movdqu  [rdi], xmm0 ; mov  [rdi+0x10], ecx ; ret ; (1 found)
0x44d264: movdqu  [rdi], xmm0 ; mov byte [rdi+0x10], dh ; ret ; (1 found)
0x44d2d8: movdqu  [rdi], xmm0 ; mov qword [rdi+0x0E], rcx ; ret ; (1 found)
0x44d2f8: movdqu  [rdi], xmm0 ; mov qword [rdi+0x0F], rcx ; ret ; (1 found)
0x44d318: movdqu  [rdi], xmm0 ; mov qword [rdi+0x10], rcx ; ret ; (1 found)
0x44d278: movdqu  [rdi], xmm0 ; mov word [rdi+0x10], cx ; ret ; (1 found)
0x44d3b9: movdqu  [rdi], xmm0 ; movdqu  [rdi+0x0D], xmm2 ; ret ; (1 found)
0x44d3d9: movdqu  [rdi], xmm0 ; movdqu  [rdi+0x0E], xmm2 ; ret ; (1 found)
0x44d3f9: movdqu  [rdi], xmm0 ; movdqu  [rdi+0x0F], xmm2 ; ret ; (1 found)
0x44d419: movdqu  [rdi], xmm0 ; movdqu  [rdi+0x10], xmm2 ; ret ; (1 found)
0x43d40a: movdqu  [rdi], xmm0 ; ret ; (3 found)
0x43d464: movdqu  [rdi], xmm1 ; ret ; (30 found)
0x44d250: movdqu xmm0,  [rsi] ; movdqu  [rdi], xmm0 ; ret ; (1 found)
0x491ffd: movhps xmm5, xmm7 ; jmp qword [rsi+0x2E] ; (1 found)
0x4a077f: movq eax, xmm3 ; movaps  [rsp+0x00], xmm3 ; call rbx ; (1 found)
0x480e43: movq mm0, mm0 ; ret ; (1 found)
0x44d251: movq mm0, qword [rsi] ; movdqu  [rdi], xmm0 ; ret ; (1 found)
0x483fd0: movq mm0, qword [rsp-0x18] ; ret ; (1 found)
0x43da80: movq qword [rdi+0x01], mm0 ; movdqu  [rdi], xmm1 ; ret ; (2 found)
0x43da10: movq qword [rdi+0x02], mm0 ; movdqu  [rdi], xmm1 ; ret ; (2 found)
0x43d9a0: movq qword [rdi+0x03], mm0 ; movdqu  [rdi], xmm1 ; ret ; (2 found)
0x43d930: movq qword [rdi+0x04], mm0 ; movdqu  [rdi], xmm1 ; ret ; (2 found)
0x43d8c0: movq qword [rdi+0x05], mm0 ; movdqu  [rdi], xmm1 ; ret ; (2 found)
0x43d850: movq qword [rdi+0x06], mm0 ; movdqu  [rdi], xmm1 ; ret ; (2 found)
0x43d7e0: movq qword [rdi+0x07], mm0 ; movdqu  [rdi], xmm1 ; ret ; (2 found)
0x43d770: movq qword [rdi+0x08], mm0 ; movdqu  [rdi], xmm1 ; ret ; (2 found)
0x43d700: movq qword [rdi+0x09], mm0 ; movdqu  [rdi], xmm1 ; ret ; (2 found)
0x43d690: movq qword [rdi+0x0A], mm0 ; movdqu  [rdi], xmm1 ; ret ; (2 found)
0x43d620: movq qword [rdi+0x0B], mm0 ; movdqu  [rdi], xmm1 ; ret ; (2 found)
0x43d5b0: movq qword [rdi+0x0C], mm0 ; movdqu  [rdi], xmm1 ; ret ; (2 found)
0x43d540: movq qword [rdi+0x0D], mm0 ; movdqu  [rdi], xmm1 ; ret ; (2 found)
0x44da7e: movq qword [rdi+0x0D], mm2 ; lea rax, qword [rdi+0x1C] ; ret ; (1 found)
0x44d3be: movq qword [rdi+0x0D], mm2 ; ret ; (1 found)
0x43d4d0: movq qword [rdi+0x0E], mm0 ; movdqu  [rdi], xmm1 ; ret ; (2 found)
0x44da9e: movq qword [rdi+0x0E], mm2 ; lea rax, qword [rdi+0x1D] ; ret ; (1 found)
0x44d3de: movq qword [rdi+0x0E], mm2 ; ret ; (1 found)
0x43d460: movq qword [rdi+0x0F], mm0 ; movdqu  [rdi], xmm1 ; ret ; (2 found)
0x44dabe: movq qword [rdi+0x0F], mm2 ; lea rax, qword [rdi+0x1E] ; ret ; (1 found)
0x44d3fe: movq qword [rdi+0x0F], mm2 ; ret ; (1 found)
0x44dade: movq qword [rdi+0x10], mm2 ; lea rax, qword [rdi+0x1F] ; ret ; (1 found)
0x44d41e: movq qword [rdi+0x10], mm2 ; ret ; (1 found)
0x43cbec: movq qword [rdi-0x10], mm0 ; ret ; (2 found)
0x43cc5c: movq qword [rdi-0x10], mm1 ; ret ; (30 found)
0x43d397: movq qword [rdi-0x11], mm0 ; movdqu  [rdi-0x10], xmm1 ; ret ; (2 found)
0x43d317: movq qword [rdi-0x12], mm0 ; movdqu  [rdi-0x10], xmm1 ; ret ; (2 found)
0x43d287: movq qword [rdi-0x13], mm0 ; movdqu  [rdi-0x10], xmm1 ; ret ; (2 found)
0x43d207: movq qword [rdi-0x14], mm0 ; movdqu  [rdi-0x10], xmm1 ; ret ; (2 found)
0x43d187: movq qword [rdi-0x15], mm0 ; movdqu  [rdi-0x10], xmm1 ; ret ; (2 found)
0x43d107: movq qword [rdi-0x16], mm0 ; movdqu  [rdi-0x10], xmm1 ; ret ; (2 found)
0x43d087: movq qword [rdi-0x17], mm0 ; movdqu  [rdi-0x10], xmm1 ; ret ; (2 found)
0x43d007: movq qword [rdi-0x18], mm0 ; movdqu  [rdi-0x10], xmm1 ; ret ; (2 found)
0x43cf87: movq qword [rdi-0x19], mm0 ; movdqu  [rdi-0x10], xmm1 ; ret ; (2 found)
0x43cf07: movq qword [rdi-0x1A], mm0 ; movdqu  [rdi-0x10], xmm1 ; ret ; (2 found)
0x43ce87: movq qword [rdi-0x1B], mm0 ; movdqu  [rdi-0x10], xmm1 ; ret ; (2 found)
0x43ce07: movq qword [rdi-0x1C], mm0 ; movdqu  [rdi-0x10], xmm1 ; ret ; (2 found)
0x43cd77: movq qword [rdi-0x1D], mm0 ; movdqu  [rdi-0x10], xmm1 ; ret ; (2 found)
0x43cce7: movq qword [rdi-0x1E], mm0 ; movdqu  [rdi-0x10], xmm1 ; ret ; (2 found)
0x43cc57: movq qword [rdi-0x1F], mm0 ; movdqu  [rdi-0x10], xmm1 ; ret ; (2 found)
0x44d8f5: movq qword [rdi], mm0 ; lea rax, qword [rdi+0x0F] ; ret ; (1 found)
0x44d298: movq qword [rdi], mm0 ; mov  [rdi+0x0F], ecx ; ret ; (1 found)
0x44d2a8: movq qword [rdi], mm0 ; mov  [rdi+0x10], ecx ; ret ; (1 found)
0x44d265: movq qword [rdi], mm0 ; mov byte [rdi+0x10], dh ; ret ; (1 found)
0x44d2d9: movq qword [rdi], mm0 ; mov qword [rdi+0x0E], rcx ; ret ; (1 found)
0x44d2f9: movq qword [rdi], mm0 ; mov qword [rdi+0x0F], rcx ; ret ; (1 found)
0x44d319: movq qword [rdi], mm0 ; mov qword [rdi+0x10], rcx ; ret ; (1 found)
0x44d279: movq qword [rdi], mm0 ; mov word [rdi+0x10], cx ; ret ; (1 found)
0x44d3ba: movq qword [rdi], mm0 ; movdqu  [rdi+0x0D], xmm2 ; ret ; (1 found)
0x44d3da: movq qword [rdi], mm0 ; movdqu  [rdi+0x0E], xmm2 ; ret ; (1 found)
0x44d3fa: movq qword [rdi], mm0 ; movdqu  [rdi+0x0F], xmm2 ; ret ; (1 found)
0x44d41a: movq qword [rdi], mm0 ; movdqu  [rdi+0x10], xmm2 ; ret ; (1 found)
0x43d40b: movq qword [rdi], mm0 ; ret ; (3 found)
0x43d465: movq qword [rdi], mm1 ; ret ; (30 found)
0x480e42: movq xmm0, xmm0 ; ret ; (1 found)
0x45032e: movsb ; cld ; ret ; (1 found)
0x450320: movsb ; ret ; (2 found)
0x451440: movsb ; vmovdqu64  [r8], zmm16 ; ret ; (2 found)
0x477287: movsd ; clc ; jmp qword [rsi+0x0F] ; (1 found)
0x4bf94c: movsd ; idiv bh ; ret ; (1 found)
0x479e36: movsd ; mov byte [0xFFFFFFFFBD49863E], 0xF8 ; call qword [rax+0x56415741] ; (1 found)
0x47f742: movsd ; ret ; (2 found)
0x4b923c: movss xmm0,  [0x00000000004D6968] ; divss xmm0,  [0x00000000004DDEC0] ; ret ; (1 found)
0x4ad006: movsx eax, cl ; neg eax ; ret ; (1 found)
0x4ad089: movsx eax, dl ; sub eax, ecx ; ret ; (1 found)
0x462e75: movsxd eax,  [rax] ; add byte [rax], al ; syscall ; (1 found)
0x4ac51f: movsxd eax,  [rax] ; add byte [rcx-0x77], cl ; ret ; (1 found)
0x4b9748: movsxd eax,  [rbp+rax*4+0x00] ; add rax, rbp ; jmp rax ; (1 found)
0x4664d9: movsxd eax,  [rbx+rax*4] ; add rax, rbx ; jmp rax ; (1 found)
0x4a5175: movsxd eax,  [rbx] ; add al, ch ; ret ; (1 found)
0x403144: movsxd eax,  [rcx+rax*4] ; add rax, rcx ; jmp rax ; (16 found)
0x4aab31: movsxd eax,  [rcx+rbp*4] ; add rax, rcx ; jmp rax ; (1 found)
0x405c64: movsxd eax,  [rcx+rdx*4] ; add rax, rcx ; jmp rax ; (1 found)
0x4030a5: movsxd eax,  [rdi+rsi*4] ; add rax, rdi ; jmp rax ; (1 found)
0x420e56: movsxd eax,  [rdx+rax*4] ; add rax, r10 ; jmp rax ; (6 found)
0x40ddf5: movsxd eax,  [rdx+rax*4] ; add rax, rdx ; jmp rax ; (10 found)
0x45fd9c: movsxd eax,  [rdx+rbp*4] ; add rax, rdx ; jmp rax ; (3 found)
0x40df78: movsxd eax,  [rdx+rbx*4] ; add rax, rdx ; jmp rax ; (2 found)
0x49dbfb: movsxd eax,  [rdx+rdi*4] ; add rax, rdx ; jmp rax ; (1 found)
0x4ba04e: movsxd eax,  [rsi+rax*4] ; add rax, r14 ; jmp rax ; (1 found)
0x48f239: movsxd eax,  [rsi+rax*4] ; add rax, rsi ; jmp rax ; (1 found)
0x4ab36f: movsxd eax,  [rsi+rbp*4] ; add rax, rsi ; jmp rax ; (1 found)
0x4b98cc: movsxd eax,  [rsi+rcx*4] ; add rax, r14 ; jmp rax ; (1 found)
0x403113: movsxd eax,  [rsi+rdx*4] ; add rax, rsi ; jmp rax ; (1 found)
0x44feef: movsxd eax, ecx ; ret ; (1 found)
0x48993d: movsxd ebx, ebx ; mov rdx, rbx ; call qword [r13+0x38] ; (1 found)
0x43b05c: movsxd ecx,  [rbx+rcx*4] ; add r9, r11 ; jmp r9 ; (4 found)
0x435aac: movsxd ecx,  [rbx+rcx*4] ; lea r9, qword [r11+r9] ; jmp r9 ; (4 found)
0x44d01a: movsxd ecx,  [rbx+rdx*4] ; lea rcx, qword [r11+rcx] ; jmp rcx ; (16 found)
0x47476d: movsxd ecx,  [rdi+rcx*4] ; add rcx, rdi ; jmp rcx ; (1 found)
0x4164d0: movsxd ecx,  [rdx+rcx*4] ; add rcx, rdx ; jmp rcx ; (2 found)
0x42d3a2: movsxd ecx,  [rdx+rcx*4] ; lea r10, qword [r10+r9] ; jmp r10 ; (8 found)
0x4bac88: movsxd edx,  [rax+rdx*4] ; add rdx, r8 ; jmp rdx ; (1 found)
0x40b079: movsxd edx,  [rbx+rdx*4] ; add r10, r11 ; jmp r10 ; (1 found)
0x435b80: movsxd edx,  [rbx+rdx*4] ; lea rdx, qword [r11+rdx] ; jmp rdx ; (150 found)
0x4054af: movsxd edx,  [rcx+rdx*4] ; add rdx, rcx ; jmp rdx ; (4 found)
0x45c79f: movsxd edx,  [rdi+rdx*4] ; add rdx, rdi ; jmp rdx ; (1 found)
0x40c3d9: movsxd edx,  [rdi-0x3FCE0001] ; ret ; (1 found)
0x4ba2c1: movsxd edx,  [rsi+rdx*4] ; add rdx, r14 ; jmp rdx ; (1 found)
0x40ada3: movsxd edx,  [rsi+rdx*4] ; add rdx, rsi ; jmp rdx ; (3 found)
0x41aa2a: movsxd edx, ebp ; mov rdi, rbx ; call qword [r14+0x38] ; (2 found)
0x419627: movsxd edx, edx ; movzx edx, byte [rax+rdx] ; jmp qword [rcx+rdx*8] ; (2 found)
0x48f2d7: movsxd esi,  [rdi+rsi*4] ; add rsi, rdi ; jmp rsi ; (1 found)
0x44f3bc: movsxd esi, esi ; retn 0x7520 ; (1 found)
0x4bf821: movsxd esi, esp ; jmp qword [rsi+0x2E] ; (1 found)
0x4157a1: movsxd esp, esp ; mov rdx, r12 ; call qword [r13+0x38] ; (1 found)
0x40b078: movsxd r10, qword [r11+r10*4] ; add r10, r11 ; jmp r10 ; (1 found)
0x4157a0: movsxd r12, r12 ; mov rdx, r12 ; call qword [r13+0x38] ; (1 found)
0x42d3a1: movsxd r9, qword [r10+r9*4] ; lea r10, qword [r10+r9] ; jmp r10 ; (8 found)
0x43b05b: movsxd r9, qword [r11+r9*4] ; add r9, r11 ; jmp r9 ; (4 found)
0x435aab: movsxd r9, qword [r11+r9*4] ; lea r9, qword [r11+r9] ; jmp r9 ; (4 found)
0x420e55: movsxd rax, qword [r10+rax*4] ; add rax, r10 ; jmp rax ; (6 found)
0x4ba04d: movsxd rax, qword [r14+rax*4] ; add rax, r14 ; jmp rax ; (1 found)
0x4b98cb: movsxd rax, qword [r14+rcx*4] ; add rax, r14 ; jmp rax ; (1 found)
0x4b9747: movsxd rax, qword [rbp+rax*4+0x00] ; add rax, rbp ; jmp rax ; (1 found)
0x4664d8: movsxd rax, qword [rbx+rax*4] ; add rax, rbx ; jmp rax ; (1 found)
0x4aab30: movsxd rax, qword [rcx+r13*4] ; add rax, rcx ; jmp rax ; (1 found)
0x403143: movsxd rax, qword [rcx+r8*4] ; add rax, rcx ; jmp rax ; (1 found)
0x40767b: movsxd rax, qword [rcx+rax*4] ; add rax, rcx ; jmp rax ; (16 found)
0x405c63: movsxd rax, qword [rcx+rdx*4] ; add rax, rcx ; jmp rax ; (1 found)
0x4030a4: movsxd rax, qword [rdi+rsi*4] ; add rax, rdi ; jmp rax ; (1 found)
0x40ddf4: movsxd rax, qword [rdx+rax*4] ; add rax, rdx ; jmp rax ; (10 found)
0x45fd9b: movsxd rax, qword [rdx+rbp*4] ; add rax, rdx ; jmp rax ; (3 found)
0x40df77: movsxd rax, qword [rdx+rbx*4] ; add rax, rdx ; jmp rax ; (2 found)
0x49dbfa: movsxd rax, qword [rdx+rdi*4] ; add rax, rdx ; jmp rax ; (1 found)
0x4ab36e: movsxd rax, qword [rsi+r13*4] ; add rax, rsi ; jmp rax ; (1 found)
0x48f238: movsxd rax, qword [rsi+rax*4] ; add rax, rsi ; jmp rax ; (1 found)
0x403112: movsxd rax, qword [rsi+rdx*4] ; add rax, rsi ; jmp rax ; (1 found)
0x44feee: movsxd rax, rcx ; ret ; (1 found)
0x48993c: movsxd rbx, rbx ; mov rdx, rbx ; call qword [r13+0x38] ; (1 found)
0x44d019: movsxd rcx, qword [r11+rdx*4] ; lea rcx, qword [r11+rcx] ; jmp rcx ; (16 found)
0x47476c: movsxd rcx, qword [rdi+r9*4] ; add rcx, rdi ; jmp rcx ; (1 found)
0x4164cf: movsxd rcx, qword [rdx+rcx*4] ; add rcx, rdx ; jmp rcx ; (2 found)
0x435b7f: movsxd rdx, qword [r11+rdx*4] ; lea rdx, qword [r11+rdx] ; jmp rdx ; (150 found)
0x4ba2c0: movsxd rdx, qword [r14+rdx*4] ; add rdx, r14 ; jmp rdx ; (1 found)
0x4bac87: movsxd rdx, qword [r8+rdx*4] ; add rdx, r8 ; jmp rdx ; (1 found)
0x4054ae: movsxd rdx, qword [rcx+rdx*4] ; add rdx, rcx ; jmp rdx ; (4 found)
0x45c79e: movsxd rdx, qword [rdi+rdx*4] ; add rdx, rdi ; jmp rdx ; (1 found)
0x40ada2: movsxd rdx, qword [rsi+rdx*4] ; add rdx, rsi ; jmp rdx ; (3 found)
0x41aa29: movsxd rdx, r13 ; mov rdi, rbx ; call qword [r14+0x38] ; (1 found)
0x48f0b4: movsxd rdx, rbp ; mov rdi, rbx ; call qword [r14+0x38] ; (1 found)
0x419626: movsxd rdx, rdx ; movzx edx, byte [rax+rdx] ; jmp qword [rcx+rdx*8] ; (2 found)
0x48f2d6: movsxd rsi, qword [rdi+rsi*4] ; add rsi, rdi ; jmp rsi ; (1 found)
0x464582: movups  [0x00000000004F8C60], xmm0 ; ret ; (1 found)
0x45f664: movups  [rax+0x000002D8], xmm0 ; mov eax, 0x00000111 ; syscall ; (1 found)
0x4ac1af: movups  [rax+0x00000300], xmm0 ; ret ; (1 found)
0x4ac1ff: movups  [rax+0x00000308], xmm0 ; ret ; (1 found)
0x4916ea: movups  [rax+0x40], xmm0 ; pop rbx ; ret ; (2 found)
0x4519ab: movups  [rax+rdx-0x10], xmm0 ; ret ; (1 found)
0x4519a8: movups  [rax], xmm0 ; movups  [rax+rdx-0x10], xmm0 ; ret ; (1 found)
0x4908d1: movups  [rax], xmm0 ; ret ; (2 found)
0x490896: movups  [rax], xmm1 ; ret ; (2 found)
0x464631: movups  [rbx+0x000002D8], xmm0 ; syscall ; (1 found)
0x41f1c5: movups  [rbx+0x08], xmm0 ; pop rbx ; ret ; (1 found)
0x41edc6: movups  [rbx+0x28], xmm0 ; pop rbx ; ret ; (2 found)
0x422095: movups  [rbx+0x48], xmm0 ; pop rbx ; ret ; (2 found)
0x4a204d: movups  [rbx], xmm0 ; pop rbx ; ret ; (1 found)
0x423060: movups  [rcx+0x40], xmm0 ; mov qword [rax+0x000000A8], 0x0000000000000000 ; ret ; (1 found)
0x45050b: movups  [rcx], xmm0 ; ret ; (1 found)
0x422e69: movups  [rdi+0x000000A0], xmm0 ; ret ; (2 found)
0x421fa9: movups  [rdi+0x08], xmm0 ; ret ; (3 found)
0x421f6e: movups  [rdi+0x08], xmm1 ; ret ; (3 found)
0x451a1f: movups  [rdi+0x20], xmm0 ; movups  [rdi+0x30], xmm0 ; ret ; (1 found)
0x451a23: movups  [rdi+0x30], xmm0 ; ret ; (1 found)
0x450576: movups  [rdi+0x30], xmm7 ; movups  [rdx+rdi-0x10], xmm8 ; ret ; (1 found)
0x45192c: movups  [rdi+rdx-0x10], xmm0 ; movups  [rdi], xmm0 ; ret ; (1 found)
0x4502b6: movups  [rdi+rdx-0x10], xmm1 ; ret ; (2 found)
0x450402: movups  [rdi+rdx-0x10], xmm2 ; movups  [rdi+rdx-0x20], xmm3 ; ret ; (1 found)
0x450724: movups  [rdi+rdx-0x10], xmm3 ; ret ; (2 found)
0x45071f: movups  [rdi+rdx-0x20], xmm2 ; movups  [rdi+rdx-0x10], xmm3 ; ret ; (2 found)
0x450407: movups  [rdi+rdx-0x20], xmm3 ; ret ; (1 found)
0x450465: movups  [rdi+rdx-0x30], xmm6 ; movups  [rdi+rdx-0x40], xmm7 ; ret ; (1 found)
0x45046a: movups  [rdi+rdx-0x40], xmm7 ; ret ; (1 found)
0x4519b5: movups  [rdi-0x10], xmm0 ; ret ; (1 found)
0x4519b1: movups  [rdi-0x20], xmm0 ; movups  [rdi-0x10], xmm0 ; ret ; (1 found)
0x4502b3: movups  [rdi], xmm0 ; movups  [rdi+rdx-0x10], xmm1 ; ret ; (2 found)
0x451931: movups  [rdi], xmm0 ; ret ; (1 found)
0x45057b: movups  [rdx+rdi-0x10], xmm0 ; ret ; (1 found)
0x45057a: movups  [rdx+rdi-0x10], xmm8 ; ret ; (1 found)
0x450508: movups  [rdx], xmm0 ; movups  [rcx], xmm0 ; ret ; (1 found)
0x450507: movups  [rdx], xmm8 ; movups  [rcx], xmm0 ; ret ; (1 found)
0x4b923d: movups xmm0,  [0x00000000004D6968] ; divss xmm0,  [0x00000000004DDEC0] ; ret ; (1 found)
0x4a1925: movzx eax, al ; add rsp, 0x58 ; ret ; (1 found)
0x454bd8: movzx eax, byte [rax+0x60] ; sub eax, ecx ; ret ; (1 found)
0x423f53: movzx eax, byte [rax] ; ret ; (1 found)
0x435230: movzx eax, byte [rdi+rax+0x20] ; sub eax, ecx ; ret ; (2 found)
0x454ac7: movzx eax, byte [rdi+rax+0x40] ; sub eax, ecx ; ret ; (2 found)
0x43526d: movzx eax, byte [rdi+rax-0x10] ; sub eax, ecx ; ret ; (1 found)
0x454c37: movzx eax, byte [rdi+rax-0x20] ; sub eax, ecx ; ret ; (1 found)
0x454c24: movzx eax, byte [rdi+rax-0x40] ; sub eax, ecx ; ret ; (1 found)
0x48ac86: movzx eax, byte [rdi+rax] ; jmp qword [rsi+rax*8] ; (1 found)
0x416afc: movzx eax, byte [rdi+rax] ; lea rdi, qword [0x00000000004ED7C0] ; jmp qword [rdi+rax*8] ; (1 found)
0x43524f: movzx eax, byte [rdi+rax] ; sub eax, ecx ; ret ; (2 found)
0x42e738: movzx eax, byte [rdi+rdx] ; sub eax, ecx ; ret ; (5 found)
0x42e753: movzx eax, byte [rdi] ; sub eax, ecx ; ret ; (8 found)
0x454aa0: movzx ecx, byte [rsi+rcx+0x60] ; sub eax, ecx ; ret ; (1 found)
0x4359f8: movzx ecx, byte [rsi+rcx] ; sub eax, ecx ; ret ; (1 found)
0x435218: movzx ecx, byte [rsi] ; sub eax, ecx ; ret ; (1 found)
0x419629: movzx edx, byte [rax+rdx] ; jmp qword [rcx+rdx*8] ; (2 found)
0x48d9ae: movzx edx, byte [rax+rdx] ; lea rsi, qword [0x00000000004EEAA0] ; jmp qword [rsi+rdx*8] ; (1 found)
0x48da47: movzx edx, byte [rax+rdx] ; lea rsi, qword [0x00000000004EEBA0] ; jmp qword [rsi+rdx*8] ; (1 found)
0x418942: movzx edx, byte [rax+rdx] ; mov rdx, qword [r11+rdx*8] ; jmp rdx ; (3 found)
0x41974d: movzx edx, byte [rax+rdx] ; mov rdx, qword [rcx+rdx*8] ; jmp rdx ; (1 found)
0x419484: movzx edx, byte [rax+rdx] ; mov rdx, qword [rdi+rdx*8] ; jmp rdx ; (4 found)
0x419442: movzx edx, byte [rax+rdx] ; mov rdx, qword [rsi+rdx*8] ; jmp rdx ; (5 found)
0x45646d: movzx edx, byte [rdx+rcx+0x40] ; sub eax, edx ; ret ; (2 found)
0x45637c: movzx edx, byte [rdx+rcx+0x60] ; sub eax, edx ; ret ; (1 found)
0x42e911: movzx edx, byte [rdx+rcx] ; sub eax, edx ; ret ; (8 found)
0x45631e: movzx edx, byte [rdx+rdi+0x20] ; sub eax, edx ; ret ; (1 found)
0x45634d: movzx edx, byte [rdx+rdi+0x40] ; sub eax, edx ; ret ; (2 found)
0x456dd4: movzx edx, byte [rdx+rdi] ; sub eax, edx ; ret ; (2 found)
0x4331f8: movzx edx, byte [rsi+rcx] ; sub eax, edx ; ret ; (1 found)
0x456193: movzx edx, byte [rsi+rdx+0x20] ; sub eax, edx ; ret ; (1 found)
0x4561a3: movzx edx, byte [rsi+rdx+0x40] ; sub eax, edx ; ret ; (2 found)
0x4561b5: movzx edx, byte [rsi+rdx+0x60] ; sub eax, edx ; ret ; (1 found)
0x42e7a7: movzx edx, byte [rsi+rdx] ; sub eax, edx ; ret ; (8 found)
0x43d3b0: movzx edx, byte [rsi-0x01] ; mov byte [rdi-0x01], dl ; ret ; (2 found)
0x44f3cb: movzx edx, byte [rsi-0x09] ; sub eax, edx ; ret ; (2 found)
0x44f444: movzx edx, byte [rsi-0x0A] ; sub eax, edx ; ret ; (1 found)
0x44f434: movzx edx, byte [rsi-0x0B] ; sub eax, edx ; ret ; (1 found)
0x44f424: movzx edx, byte [rsi-0x0C] ; sub eax, edx ; ret ; (1 found)
0x44f412: movzx edx, byte [rsi-0x0D] ; sub eax, edx ; ret ; (3 found)
0x44f402: movzx edx, byte [rsi-0x0E] ; sub eax, edx ; ret ; (3 found)
0x44f3f4: movzx edx, byte [rsi-0x0F] ; sub eax, edx ; ret ; (1 found)
0x44f3e4: movzx edx, byte [rsi-0x10] ; sub eax, edx ; ret ; (1 found)
0x43da90: movzx edx, byte [rsi] ; mov byte [rdi], dl ; ret ; (2 found)
0x4349f4: movzx edx, byte [rsi] ; sub eax, edx ; ret ; (1 found)
0x434a1a: movzx edx, dl ; sub eax, edx ; ret ; (1 found)
0x43d330: movzx edx, word [rsi-0x02] ; mov word [rdi-0x02], dx ; ret ; (2 found)
0x43da20: movzx edx, word [rsi] ; mov word [rdi], dx ; ret ; (3 found)
0x49df6b: movzx esi, bl ; call rbp ; (1 found)
0x47cf15: neg  [rbx-0x38B7FFFB] ; retn 0xFFA0 ; (1 found)
0x49207a: neg eax ; ret ; (3 found)
0x4bac8a: nop ; add rdx, r8 ; jmp rdx ; (1 found)
0x49318f: nop ; add rsp, 0x18 ; ret ; (2 found)
0x47cacf: nop ; clc ; jmp qword [rsi+0x66] ; (1 found)
0x475681: nop ; jmp rdx ; (1 found)
0x44e0ef: nop ; lea rax, qword [rdi+0x01] ; ret ; (1 found)
0x44e0df: nop ; lea rax, qword [rdi] ; ret ; (1 found)
0x401f5c: nop ; leave ; ret ; (5 found)
0x4259f7: nop ; mov  [0x00000000004F8414], eax ; ret ; (1 found)
0x49198e: nop ; mov eax, 0xFFFFFFFF ; ret ; (2 found)
0x425707: nop ; mov qword [0x00000000004F1878], rax ; ret ; (1 found)
0x4256f7: nop ; mov qword [0x00000000004F1880], rax ; ret ; (1 found)
0x425760: nop ; mov qword [0x00000000004F18D8], rax ; ret ; (1 found)
0x425777: nop ; mov qword [0x00000000004F18E0], rax ; ret ; (1 found)
0x4bb61e: nop ; mov qword [rdi+rsi*8], rdx ; ret ; (2 found)
0x49ed6f: nop ; mov rax, 0x0000000000000001 ; ret ; (1 found)
0x401bb8: nop ; pop rbp ; ret ; (1 found)
0x44fdae: nop ; rep ret ; (2 found)
0x401abe: nop ; ret ; (9 found)
0x493d5f: nop ; retn 0xC031 ; (1 found)
0x468104: nop ; stc ; jmp qword [rsi+0x0F] ; (1 found)
0x41ab8e: nop ; xor eax, eax ; ret ; (14 found)
0x49e8ae: nop ; xor rax, rax ; ret ; (2 found)
0x40c231: nop  [rax+0x00000000] ; call qword [rbx] ; (2 found)
0x4b3b91: nop  [rax+0x00000000] ; mov  [fs:0x00000048], r8d ; ret ; (1 found)
0x45e6e1: nop  [rax+0x00000000] ; mov eax, 0x000000E4 ; syscall ; (1 found)
0x457ff1: nop  [rax+0x00000000] ; pop rbp ; ret ; (1 found)
0x425ac9: nop  [rax+0x00000000] ; ret ; (5 found)
0x40b621: nop  [rax+0x00000000] ; xor eax, eax ; ret ; (4 found)
0x49ed3c: nop  [rax+0x00] ; add rax, 0x01 ; ret ; (1 found)
0x4b285c: nop  [rax+0x00] ; call rax ; (2 found)
0x46645c: nop  [rax+0x00] ; endbr64 ; ret ; (2 found)
0x4756dc: nop  [rax+0x00] ; mov rax, 0x000000000000000F ; syscall ; (1 found)
0x49dc04: nop  [rax+0x00] ; mov rax, qword [0x00000000004F8ED8] ; ret ; (1 found)
0x429f64: nop  [rax+0x00] ; ret ; (4 found)
0x4350dc: nop  [rax+0x00] ; xor eax, eax ; ret ; (3 found)
0x49ed47: nop  [rax+rax+0x00000000] ; add rax, 0x03 ; ret ; (2 found)
0x4047d8: nop  [rax+rax+0x00000000] ; call qword [rbx+0x10] ; (1 found)
0x401a87: nop  [rax+rax+0x00000000] ; endbr64 ; ret ; (2 found)
0x44e0f7: nop  [rax+rax+0x00000000] ; lea rax, qword [rdi+0x02] ; ret ; (2 found)
0x44e107: nop  [rax+rax+0x00000000] ; lea rax, qword [rdi+0x03] ; ret ; (2 found)
0x44e117: nop  [rax+rax+0x00000000] ; lea rax, qword [rdi+0x04] ; ret ; (2 found)
0x44e127: nop  [rax+rax+0x00000000] ; lea rax, qword [rdi+0x05] ; ret ; (2 found)
0x44e137: nop  [rax+rax+0x00000000] ; lea rax, qword [rdi+0x06] ; ret ; (2 found)
0x44e147: nop  [rax+rax+0x00000000] ; lea rax, qword [rdi+0x08] ; ret ; (2 found)
0x44e157: nop  [rax+rax+0x00000000] ; lea rax, qword [rdi+0x09] ; ret ; (2 found)
0x44e167: nop  [rax+rax+0x00000000] ; lea rax, qword [rdi+0x0A] ; ret ; (2 found)
0x44e177: nop  [rax+rax+0x00000000] ; lea rax, qword [rdi+0x0B] ; ret ; (2 found)
0x44e187: nop  [rax+rax+0x00000000] ; lea rax, qword [rdi+0x0C] ; ret ; (2 found)
0x44e197: nop  [rax+rax+0x00000000] ; lea rax, qword [rdi+0x0D] ; ret ; (2 found)
0x44e1a7: nop  [rax+rax+0x00000000] ; lea rax, qword [rdi+0x0E] ; ret ; (2 found)
0x44d158: nop  [rax+rax+0x00000000] ; mov byte [rdi], dh ; ret ; (1 found)
0x41e4e8: nop  [rax+rax+0x00000000] ; mov eax, 0xFFFFFFFF ; ret ; (2 found)
0x45f6b8: nop  [rax+rax+0x00000000] ; mov eax, edx ; syscall ; (1 found)
0x49ed78: nop  [rax+rax+0x00000000] ; mov rax, 0x0000000000000002 ; ret ; (1 found)
0x49ed88: nop  [rax+rax+0x00000000] ; mov rax, 0x0000000000000003 ; ret ; (1 found)
0x49ed98: nop  [rax+rax+0x00000000] ; mov rax, 0x0000000000000004 ; ret ; (1 found)
0x49eda8: nop  [rax+rax+0x00000000] ; mov rax, 0x0000000000000005 ; ret ; (1 found)
0x49edb8: nop  [rax+rax+0x00000000] ; mov rax, 0x0000000000000006 ; ret ; (1 found)
0x49edc8: nop  [rax+rax+0x00000000] ; mov rax, 0x0000000000000007 ; ret ; (1 found)
0x49dcb8: nop  [rax+rax+0x00000000] ; mov rax, 0xFFFFFFFFFFFFFFFF ; ret ; (1 found)
0x49dc18: nop  [rax+rax+0x00000000] ; mov rax, qword [0x00000000004F8E88] ; ret ; (1 found)
0x49dc28: nop  [rax+rax+0x00000000] ; mov rax, qword [0x00000000004F8E90] ; ret ; (1 found)
0x49dc38: nop  [rax+rax+0x00000000] ; mov rax, qword [0x00000000004F8E98] ; ret ; (1 found)
0x49dc48: nop  [rax+rax+0x00000000] ; mov rax, qword [0x00000000004F8EA0] ; ret ; (1 found)
0x49dc58: nop  [rax+rax+0x00000000] ; mov rax, qword [0x00000000004F8EA8] ; ret ; (1 found)
0x49dc68: nop  [rax+rax+0x00000000] ; mov rax, qword [0x00000000004F8EB0] ; ret ; (1 found)
0x49dc78: nop  [rax+rax+0x00000000] ; mov rax, qword [0x00000000004F8EB8] ; ret ; (1 found)
0x49dc88: nop  [rax+rax+0x00000000] ; mov rax, qword [0x00000000004F8EC0] ; ret ; (1 found)
0x49dc98: nop  [rax+rax+0x00000000] ; mov rax, qword [0x00000000004F8EC8] ; ret ; (1 found)
0x49dca8: nop  [rax+rax+0x00000000] ; mov rax, qword [0x00000000004F8ED0] ; ret ; (1 found)
0x4b4e68: nop  [rax+rax+0x00000000] ; mov rax, r8 ; ret ; (1 found)
0x492217: nop  [rax+rax+0x00000000] ; neg eax ; ret ; (2 found)
0x409b08: nop  [rax+rax+0x00000000] ; ret ; (10 found)
0x422818: nop  [rax+rax+0x00000000] ; xor eax, eax ; ret ; (4 found)
0x44df18: nop  [rax+rax+0x00000000] ; xor rax, rax ; ret ; (3 found)
0x423e1b: nop  [rax+rax+0x00] ; endbr64 ; ret ; (1 found)
0x492223: nop  [rax+rax+0x00] ; mov eax, 0x00000016 ; ret ; (1 found)
0x424d1b: nop  [rax+rax+0x00] ; mov eax, 0x000000BA ; syscall ; (2 found)
0x41f0fb: nop  [rax+rax+0x00] ; mov eax, 0xFFFFFFFF ; ret ; (3 found)
0x45ee73: nop  [rax+rax+0x00] ; pop rbp ; ret ; (1 found)
0x401b43: nop  [rax+rax+0x00] ; ret ; (8 found)
0x41e09b: nop  [rax+rax+0x00] ; xor eax, eax ; ret ; (6 found)
0x403235: nop  [rax] ; call qword [rbp+rbx*8+0x00] ; (1 found)
0x4b2acd: nop  [rax] ; call r13 ; (1 found)
0x4637dd: nop  [rax] ; endbr64 ; ret ; (1 found)
0x49207d: nop  [rax] ; mov eax, 0x00000016 ; ret ; (1 found)
0x4b05ed: nop  [rax] ; mov qword [rsi+0x18], 0x0000000000000000 ; ret ; (1 found)
0x4a1b35: nop  [rax] ; ret ; (2 found)
0x44fdbd: nop  [rax] ; xor eax, eax ; ret ; (2 found)
0x49ed45: nop word [rax+rax+0x00000000] ; add rax, 0x03 ; ret ; (2 found)
0x401a86: nop word [rax+rax+0x00000000] ; endbr64 ; ret ; (1 found)
0x44e0f5: nop word [rax+rax+0x00000000] ; lea rax, qword [rdi+0x02] ; ret ; (2 found)
0x44e105: nop word [rax+rax+0x00000000] ; lea rax, qword [rdi+0x03] ; ret ; (2 found)
0x44e115: nop word [rax+rax+0x00000000] ; lea rax, qword [rdi+0x04] ; ret ; (2 found)
0x44e125: nop word [rax+rax+0x00000000] ; lea rax, qword [rdi+0x05] ; ret ; (2 found)
0x44e135: nop word [rax+rax+0x00000000] ; lea rax, qword [rdi+0x06] ; ret ; (2 found)
0x44e145: nop word [rax+rax+0x00000000] ; lea rax, qword [rdi+0x08] ; ret ; (2 found)
0x44e155: nop word [rax+rax+0x00000000] ; lea rax, qword [rdi+0x09] ; ret ; (2 found)
0x44e165: nop word [rax+rax+0x00000000] ; lea rax, qword [rdi+0x0A] ; ret ; (2 found)
0x44e175: nop word [rax+rax+0x00000000] ; lea rax, qword [rdi+0x0B] ; ret ; (2 found)
0x44e185: nop word [rax+rax+0x00000000] ; lea rax, qword [rdi+0x0C] ; ret ; (2 found)
0x44e195: nop word [rax+rax+0x00000000] ; lea rax, qword [rdi+0x0D] ; ret ; (2 found)
0x44e1a5: nop word [rax+rax+0x00000000] ; lea rax, qword [rdi+0x0E] ; ret ; (2 found)
0x44d157: nop word [rax+rax+0x00000000] ; mov byte [rdi], dh ; ret ; (1 found)
0x423bb7: nop word [rax+rax+0x00000000] ; mov eax, 0xFFFFFFFF ; ret ; (1 found)
0x45f6b7: nop word [rax+rax+0x00000000] ; mov eax, edx ; syscall ; (1 found)
0x4b4e67: nop word [rax+rax+0x00000000] ; mov rax, r8 ; ret ; (1 found)
0x492216: nop word [rax+rax+0x00000000] ; neg eax ; ret ; (1 found)
0x465176: nop word [rax+rax+0x00000000] ; ret ; (6 found)
0x456f97: nop word [rax+rax+0x00000000] ; xor eax, eax ; ret ; (2 found)
0x49ed55: nop word [rax+rax+0x00000000] ; xor rax, rax ; ret ; (2 found)
0x423e1a: nop word [rax+rax+0x00] ; endbr64 ; ret ; (1 found)
0x424d1a: nop word [rax+rax+0x00] ; mov eax, 0x000000BA ; syscall ; (2 found)
0x41f0fa: nop word [rax+rax+0x00] ; mov eax, 0xFFFFFFFF ; ret ; (1 found)
0x45ee72: nop word [rax+rax+0x00] ; pop rbp ; ret ; (1 found)
0x4624aa: nop word [rax+rax+0x00] ; ret ; (3 found)
0x41e09a: nop word [rax+rax+0x00] ; xor eax, eax ; ret ; (2 found)
0x492543: not esi ; and esi, 0x00000080 ; syscall ; (1 found)
0x4664db: or  [rax+0x01], 0xFFFFFFD8 ; jmp rax ; (1 found)
0x40b518: or  [rax+rax*8-0x38B78D8C], eax ; retn 0xFFF0 ; (2 found)
0x449d3e: or  [rax-0x01], ecx ; retn 0xC148 ; (2 found)
0x45ba13: or  [rax-0x7D], ecx ; ret ; (2 found)
0x474e06: or  [rax-0x7D], ecx ; retn 0x4101 ; (1 found)
0x40cacf: or  [rax-0x7D], ecx ; retn 0x4801 ; (2 found)
0x472282: or  [rax], eax ; add byte [rax-0x77], cl ; retn 0x8948 ; (1 found)
0x433737: or  [rax], eax ; add byte [rax-0x7D], cl ; retn 0x4910 ; (3 found)
0x4478ff: or  [rax], eax ; add byte [rax-0x7D], cl ; retn 0xE910 ; (2 found)
0x433675: or  [rax], eax ; add byte [rax-0x7D], cl ; retn 0xEB10 ; (1 found)
0x491ed5: or  [rax], eax ; add byte [rax], al ; ret ; (1 found)
0x4614c1: or  [rax], eax ; add byte [rax], al ; syscall ; (1 found)
0x4249a9: or  [rax], eax ; add byte [rbx+0x077401F8], al ; ret ; (1 found)
0x4638c8: or  [rax], eax ; lea rax, qword [0x00000000004F8BE8] ; ret ; (1 found)
0x424c6e: or  [rax], eax ; mov eax, 0x0000000E ; syscall ; (1 found)
0x467044: or  [rax], eax ; or al, 0x5B ; ret ; (1 found)
0x466f61: or  [rax], eax ; pop rbx ; ret ; (2 found)
0x463897: or  [rax], eax ; ret ; (7 found)
0x424de1: or  [rax], eax ; syscall ; (1 found)
0x464586: or  [rax], r8d ; ret ; (1 found)
0x427bf3: or  [rbp+0x3948000C], ebx ; ret ; (1 found)
0x48950f: or  [rbx-0x76BEF791], ecx ; ret ; (2 found)
0x491e9c: or  [rcx+0x00000308], 0x10 ; mov rdi, qword [fs:0x00000300] ; call 0x00000000 ; (1 found)
0x414e94: or  [rcx-0x39], 0xFFFFA0C2 ; jmp qword [rcx+rax*2-0x75] ; (1 found)
0x401ab6: or  [rdi+0x004F2C00], edi ; jmp rax ; (1 found)
0x4840ab: or  [rdi-0x2E], esi ; mov rax, r8 ; ret ; (1 found)
0x43608c: or  [rdi], ecx ; sub  [rdi], esp ; jmp r9 ; (30 found)
0x4b3b83: or  [rdi], edx ; sti ; jmp qword [rsi+0x0F] ; (1 found)
0x4256d6: or  [rdx+0x00000308], 0x10 ; mov rdi, qword [fs:0x00000300] ; call 0x00000000 ; (1 found)
0x45bbe3: or  [rdx+0x03], esp ; add byte [rax+0x39], cl ; ret ; (1 found)
0x417c44: or  [rdx-0x04], 0x69E9FFFF ; out 0xFF, al ; jmp qword [rsi-0x70] ; (1 found)
0x457f97: or al, 0x00 ; add byte [rax-0x468AFB1B], al ; ret ; (1 found)
0x433377: or al, 0x00 ; add byte [rax-0x7D], cl ; retn 0x4910 ; (5 found)
0x44765e: or al, 0x00 ; add byte [rax-0x7D], cl ; retn 0xE910 ; (4 found)
0x4333a5: or al, 0x00 ; add byte [rax-0x7D], cl ; retn 0xEB10 ; (1 found)
0x461355: or al, 0x00 ; add byte [rax], al ; syscall ; (1 found)
0x4299b8: or al, 0x00 ; add byte [rbp+0x03], dh ; ret ; (1 found)
0x42cd84: or al, 0x00 ; add dh, byte [rdi+rax*2-0x0A] ; retn 0x7520 ; (3 found)
0x423e39: or al, 0x00 ; ret ; (10 found)
0x435ab1: or al, 0x0B ; jmp r9 ; (4 found)
0x44d01f: or al, 0x0B ; jmp rcx ; (16 found)
0x4359fa: or al, 0x0E ; sub eax, ecx ; ret ; (1 found)
0x416455: or al, 0x13 ; add rdx, r12 ; call qword [r10+rax*8] ; (2 found)
0x42998b: or al, 0x48 ; add esp, 0x08 ; ret ; (1 found)
0x4608a2: or al, 0x48 ; add esp, 0x18 ; ret ; (1 found)
0x4632f6: or al, 0x48 ; add esp, 0x28 ; ret ; (1 found)
0x467046: or al, 0x5B ; ret ; (1 found)
0x45f79b: or al, 0x5D ; pop r12 ; ret ; (1 found)
0x461148: or al, 0x75 ; retn 0xD8F7 ; (1 found)
0x4167d4: or al, 0x83 ; ret ; (2 found)
0x4860ea: or al, 0x89 ; sal dh, 1 ; retn 0x0F40 ; (1 found)
0x4164d1: or al, 0x8A ; add rcx, rdx ; jmp rcx ; (2 found)
0x42d3a3: or al, 0x8A ; lea r10, qword [r10+r9] ; jmp r10 ; (8 found)
0x43b05d: or al, 0x8B ; add r9, r11 ; jmp r9 ; (4 found)
0x435aad: or al, 0x8B ; lea r9, qword [r11+r9] ; jmp r9 ; (4 found)
0x4634d7: or al, 0x8E ; add eax,  [rcx+rdx] ; ret ; (1 found)
0x47476e: or al, 0x8F ; add rcx, rdi ; jmp rcx ; (1 found)
0x44d01b: or al, 0x93 ; lea rcx, qword [r11+rcx] ; jmp rcx ; (16 found)
0x42319c: or al, 0xEB ; retn 0xF390 ; (1 found)
0x43d5b2: or al, 0xF3 ; movq qword [rdi], mm1 ; ret ; (4 found)
0x42532d: or al, 0xF6 ; retn 0x7501 ; (2 found)
0x484ad9: or al, 0xF6 ; retn 0x7540 ; (1 found)
0x4862ed: or al, byte [0xFFFFFFFFEFCBA3F3] ; add  [rax+0x39], ecx ; ret ; (1 found)
0x49dd21: or al, byte [rax] ; add byte [rax+0x0F], cl ; retn 0x0FC3 ; (1 found)
0x457f6a: or al, byte [rax] ; add byte [rax+0x0F], cl ; retn 0x66C3 ; (1 found)
0x4131eb: or al, byte [rax] ; add byte [rax-0x7D], cl ; ret ; (1 found)
0x433557: or al, byte [rax] ; add byte [rax-0x7D], cl ; retn 0x4910 ; (6 found)
0x4461e1: or al, byte [rax] ; add byte [rax-0x7D], cl ; retn 0xE910 ; (3 found)
0x433585: or al, byte [rax] ; add byte [rax-0x7D], cl ; retn 0xEB10 ; (1 found)
0x461545: or al, byte [rax] ; add byte [rax], al ; syscall ; (1 found)
0x41ab88: or al, byte [rax] ; add rax, rdx ; ret ; (1 found)
0x46da42: or al, byte [rdx+0x00] ; add byte [rcx-0x77], al ; retn 0x5A58 ; (1 found)
0x4279f7: or al, ch ; ret ; (1 found)
0x4a6ed8: or al, ch ; xchg eax, edx ; ret ; (1 found)
0x42d3a8: or bh, byte [rsi] ; jmp r10 ; (13 found)
0x42cc94: or bh, dh ; retn 0x0000 ; (1 found)
0x4aa15e: or bl, al ; mov eax, 0xFFFFFFFF ; ret ; (1 found)
0x43d773: or bl, dh ; movq qword [rdi], mm1 ; ret ; (2 found)
0x466fb0: or byte [0x00000000004F8EE0], 0x03 ; pop rbx ; ret ; (1 found)
0x467040: or byte [0x00000000004F8EE0], 0x0C ; pop rbx ; ret ; (1 found)
0x4ab0f7: or byte [0xFFFFFFFF83938F71], ah ; ret ; (1 found)
0x420046: or byte [r11+0x5D], bl ; pop r12 ; ret ; (1 found)
0x459a65: or byte [r8+0x39], r9L ; ret ; (3 found)
0x422188: or byte [r8+0x39], r9L ; retn 0x870F ; (1 found)
0x48f420: or byte [r8-0x77], cl ; retn 0x008B ; (1 found)
0x48ac46: or byte [r8-0x77], r9L ; or cl, r13L ; retn 0xFFFE ; (1 found)
0x4a3642: or byte [r8-0x7B], cl ; sal byte [rdi+0x48], 0x89 ; ret ; (1 found)
0x4a3505: or byte [r8-0x7D], cl ; ret ; (1 found)
0x49ca72: or byte [r8], al ; add byte [rax-0x7D], cl ; retn 0xE910 ; (1 found)
0x44b587: or byte [r9-0x76B7F7BE], cl ; clc ; ret ; (1 found)
0x4606c7: or byte [rax+0x00000001], bh ; syscall ; (1 found)
0x4ae6eb: or byte [rax+0x00000002], bh ; ret ; (1 found)
0x4ae6ea: or byte [rax+0x00000002], r15L ; ret ; (1 found)
0x46080f: or byte [rax+0x00000048], bh ; syscall ; (1 found)
0x476b77: or byte [rax+0x0000013E], bh ; syscall ; (1 found)
0x448b97: or byte [rax+0x01], 0xF8 ; vzeroupper ; ret ; (1 found)
0x4944c7: or byte [rax+0x0F], cl ; ret ; (1 found)
0x428bbd: or byte [rax+0x39], cl ; ret ; (5 found)
0x4a7af4: or byte [rax+0x39], cl ; retn 0x2074 ; (1 found)
0x422189: or byte [rax+0x39], cl ; retn 0x870F ; (1 found)
0x425719: or byte [rax+rax], al ; add byte [rsi+0x01], dh ; ret ; (1 found)
0x4619ff: or byte [rax-0x09], cl ; retn 0xFFFE ; (1 found)
0x477047: or byte [rax-0x39], cl ; ret ; (3 found)
0x4657a2: or byte [rax-0x75], cl ; adc byte [rax-0x7D], cl ; retn 0x8310 ; (6 found)
0x4257cb: or byte [rax-0x75], cl ; adc byte [rcx-0x7D], al ; ret ; (1 found)
0x41ebb3: or byte [rax-0x75], cl ; xor ecx,  [rax-0x7D] ; ret ; (1 found)
0x44b4cc: or byte [rax-0x77], cl ; clc ; ret ; (4 found)
0x48cc38: or byte [rax-0x77], cl ; fimul  [rcx+rcx*4-0x19] ; call qword [rbp+0x38] ; (1 found)
0x4aec89: or byte [rax-0x77], cl ; mov qword [0x00000000004F8C48], 0x0000000000000000 ; ret ; (1 found)
0x48e3ae: or byte [rax-0x77], cl ; or cl, r13L ; ret ; (2 found)
0x48ac47: or byte [rax-0x77], cl ; or cl, r13L ; retn 0xFFFE ; (1 found)
0x41f653: or byte [rax-0x77], cl ; out dx, eax ; call rax ; (1 found)
0x4bc2cd: or byte [rax-0x77], cl ; ret ; (2 found)
0x48f421: or byte [rax-0x77], cl ; retn 0x008B ; (1 found)
0x41d034: or byte [rax-0x77], cl ; retn 0x3948 ; (1 found)
0x4a3643: or byte [rax-0x7B], cl ; sal byte [rdi+0x48], 0x89 ; ret ; (1 found)
0x40716a: or byte [rax-0x7D], cl ; ret ; (10 found)
0x41ae09: or byte [rax-0x7D], cl ; retn 0x0F01 ; (2 found)
0x46568a: or byte [rax-0x7D], cl ; retn 0x4110 ; (10 found)
0x476e9d: or byte [rax-0x7D], cl ; retn 0x4801 ; (4 found)
0x4af694: or byte [rax-0x7D], cl ; retn 0x4808 ; (3 found)
0x4b4fe1: or byte [rax-0x7D], cl ; retn 0x4918 ; (1 found)
0x4b4ead: or byte [rax-0x7D], cl ; retn 0x4C08 ; (1 found)
0x48dc3a: or byte [rax-0x7D], cl ; retn 0x8D08 ; (1 found)
0x4656d9: or byte [rax-0x7D], cl ; retn 0xBB10 ; (2 found)
0x465662: or byte [rax-0x7D], cl ; retn 0xBD10 ; (2 found)
0x46577a: or byte [rax-0x7D], cl ; retn 0xC610 ; (6 found)
0x4ac201: or byte [rax], 0x03 ; add byte [rax], al ; ret ; (1 found)
0x493f18: or byte [rax], al ; add byte [rax+0x0F], cl ; retn 0x81C3 ; (1 found)
0x433827: or byte [rax], al ; add byte [rax-0x7D], cl ; retn 0x4910 ; (4 found)
0x446381: or byte [rax], al ; add byte [rax-0x7D], cl ; retn 0xE910 ; (4 found)
0x433765: or byte [rax], al ; add byte [rax-0x7D], cl ; retn 0xEB10 ; (1 found)
0x460725: or byte [rax], al ; add byte [rax], al ; syscall ; (1 found)
0x48dc35: or byte [rax], al ; add byte [rbx-0x7CB7F7A6], cl ; retn 0x8D08 ; (1 found)
0x463bc3: or byte [rax], al ; mov qword [rsi], rax ; ret ; (1 found)
0x463b52: or byte [rax], al ; mov rax, r8 ; ret ; (1 found)
0x46718e: or byte [rax], al ; pop rbx ; ret ; (1 found)
0x466459: or byte [rax], al ; ret ; (2 found)
0x447a4e: or byte [rax], r8L ; add byte [rax-0x7D], cl ; retn 0xE910 ; (1 found)
0x481787: or byte [rbp+0x31], al ; ror byte [rax-0x39], cl ; ret ; (1 found)
0x4af3a2: or byte [rbp+0x41], bl ; pop rsp ; jmp rax ; (2 found)
0x46239b: or byte [rbp+0x41], bl ; pop rsp ; ret ; (1 found)
0x42b5c5: or byte [rbx+0x0F4801E0], al ; retn 0x66C3 ; (1 found)
0x420047: or byte [rbx+0x5D], bl ; pop r12 ; ret ; (1 found)
0x405df9: or byte [rbx+0x5D], bl ; ret ; (33 found)
0x404b6a: or byte [rbx+rbx-0x09], dh ; retn 0x0000 ; (1 found)
0x49118e: or byte [rbx-0x3B7CB7FE], cl ; or byte [rbx+0x5D], bl ; ret ; (1 found)
0x41bb01: or byte [rbx-0x76FEFBB9], al ; retn 0xE281 ; (1 found)
0x4128cd: or byte [rbx-0x7AF0FE02], al ; retn 0xFEED ; (1 found)
0x41b12d: or byte [rbx-0x7BF00002], al ; ret ; (1 found)
0x4ac202: or byte [rbx], al ; add byte [rax], al ; ret ; (1 found)
0x465bcf: or byte [rcx+0x0003F095], cl ; add dh, dh ; retn 0x7402 ; (1 found)
0x4adebb: or byte [rcx+0x01], cl ; retn 0x894C ; (1 found)
0x480061: or byte [rcx+0x01], cl ; retn 0x8D48 ; (1 found)
0x480dcb: or byte [rcx+0x29], cl ; retn 0x894C ; (1 found)
0x426a27: or byte [rcx+0x39], cl ; retn 0x850F ; (1 found)
0x428598: or byte [rcx+rcx*4+0x62], cl ; or byte [rcx-0x7D], al ; retn 0x4901 ; (1 found)
0x41d02a: or byte [rcx+rcx*4-0x01], cl ; call rax ; (1 found)
0x461966: or byte [rcx-0x0A], al ; ret ; (3 found)
0x48124c: or byte [rcx-0x39], cl ; retn 0xC001 ; (1 found)
0x44b588: or byte [rcx-0x76B7F7BE], cl ; clc ; ret ; (1 found)
0x489512: or byte [rcx-0x77], al ; ret ; (2 found)
0x42859c: or byte [rcx-0x7D], al ; retn 0x4901 ; (1 found)
0x40d179: or byte [rcx-0x7D], cl ; ret ; (2 found)
0x415aef: or byte [rcx], bh ; retn 0xEF72 ; (2 found)
0x426fcd: or byte [rcx], dh ; ret ; (1 found)
0x46590c: or byte [rcx], dh ; rol byte [rax-0x6AF0FFC8], cl ; retn 0x8348 ; (1 found)
0x466048: or byte [rcx], dh ; rol byte [rax-0x6AF0FFC8], cl ; retn 0x8D48 ; (1 found)
0x466027: or byte [rcx], dh ; rol byte [rax-0x6BF0FFC8], cl ; retn 0x8D48 ; (2 found)
0x426fec: or byte [rcx], dh ; ror byte [rax+0x09], 1 ; ret ; (1 found)
0x4aa1fa: or byte [rdi+0x0000031D], 0x40 ; ret ; (1 found)
0x4aa13c: or byte [rdi+0x0000031D], 0x40 ; xor eax, eax ; ret ; (1 found)
0x451e03: or byte [rdi+0x00], bh ; vmovdqu64  [rax+rdx-0x01], xmm16 ; ret ; (2 found)
0x4bc1e0: or byte [rdi+0x02], dh ; sbb eax, eax ; ret ; (1 found)
0x4bc1df: or byte [rdi+0x02], r14L ; sbb eax, eax ; ret ; (1 found)
0x4569a4: or byte [rdi+0x17], bh ; vmovdqu64  [rdi+rdx-0x0000000F], xmm19 ; ret ; (1 found)
0x451e09: or byte [rdi+0x44], bh ; adc bh, bh ; ret ; (2 found)
0x41b3cb: or byte [rdi+rcx-0x4A], al ; add byte [rax-0x77], cl ; retn 0x8945 ; (1 found)
0x41b379: or byte [rdi+rcx-0x4A], al ; add eax,  [rbp-0x77] ; retn 0x8341 ; (1 found)
0x493d84: or byte [rdx+0x09], dh ; mov qword [r8], rsi ; ret ; (1 found)
0x463954: or byte [rdx-0x04], ah ; dec  [rax-0x77] ; ret ; (1 found)
0x46112c: or byte [rsi+0x00000010], bh ; mov eax, 0x00000048 ; syscall ; (1 found)
0x41c956: or cl, byte [rax+0x01] ; retn 0x8948 ; (3 found)
0x41fa36: or cl, byte [rax+0x01] ; retn 0x8949 ; (1 found)
0x41c44d: or cl, byte [rax-0x7D] ; ret ; (2 found)
0x4ac1e2: or cl, byte [rax-0x7D] ; retn 0x6608 ; (1 found)
0x464c0a: or cl, byte [rbx+rcx*4+0x50] ; cmp byte [rbp-0x6AF0BE37], al ; ret ; (1 found)
0x4a1b2f: or cl, ch ; imul eax,  [rbx+0x1F0FFFF8], 0x00 ; ret ; (1 found)
0x4060a1: or cl, ch ; imul edi, edi, 0xFF ; jmp qword [rsi+0x0F] ; (1 found)
0x48e3b3: or cl, ch ; ret ; (1 found)
0x48ac4b: or cl, ch ; retn 0xFFFE ; (1 found)
0x48e3b2: or cl, r13L ; ret ; (1 found)
0x48ac4a: or cl, r13L ; retn 0xFFFE ; (1 found)
0x43d693: or dh, bl ; movq qword [rdi], mm1 ; ret ; (2 found)
0x433467: or eax,  [rax] ; add byte [rax-0x7D], cl ; retn 0x4910 ; (3 found)
0x446041: or eax,  [rax] ; add byte [rax-0x7D], cl ; retn 0xE910 ; (2 found)
0x433495: or eax,  [rax] ; add byte [rax-0x7D], cl ; retn 0xEB10 ; (1 found)
0x461515: or eax,  [rax] ; add byte [rax], al ; syscall ; (1 found)
0x4b70b2: or eax,  [rax] ; add byte [rbx-0x70F08B06], al ; retn 0x0006 ; (1 found)
0x467041: or eax, 0x00091E99 ; or al, 0x5B ; ret ; (1 found)
0x435159: or eax, 0x01 ; ret ; (2 found)
0x41ec69: or eax, 0x01740000 ; ret ; (1 found)
0x466f8b: or eax, 0x02 ; mov byte [0x00000000004F8EE0], al ; ret ; (1 found)
0x41ab56: or eax, 0x048B4800 ; clc ; ret ; (1 found)
0x44d3b8: or eax, 0x077F0FF3 ; movdqu  [rdi+0x0D], xmm2 ; ret ; (1 found)
0x46701a: or eax, 0x08 ; mov byte [0x00000000004F8EE0], al ; ret ; (2 found)
0x42cd9c: or eax, 0x0F480001 ; retn 0x0FC3 ; (1 found)
0x43d543: or eax, 0x0F7F0FF3 ; ret ; (2 found)
0x44da81: or eax, 0x1C478D48 ; ret ; (1 found)
0x433287: or eax, 0x83480000 ; retn 0x4910 ; (5 found)
0x445ea1: or eax, 0x83480000 ; retn 0xE910 ; (2 found)
0x4332b5: or eax, 0x83480000 ; retn 0xEB10 ; (1 found)
0x492da8: or eax, 0xA30F4800 ; retn 0x820F ; (1 found)
0x458b42: or eax, 0xC2BC0F48 ; shr rax, 0x02 ; ret ; (1 found)
0x4014a9: or eax, 0xEE830001 ; add cl, byte [rax-0x7D] ; retn 0x4810 ; (1 found)
0x403c7a: or eax, 0xFFFFFFFF ; ret ; (18 found)
0x4351be: or eax, ecx ; ret ; (2 found)
0x480e40: or eax, esi ; movq xmm0, xmm0 ; ret ; (1 found)
0x429a8c: or ebx,  [rbx+0x5D] ; pop r12 ; ret ; (1 found)
0x43d703: or ebx, esi ; movq qword [rdi], mm1 ; ret ; (2 found)
0x4b8904: or ecx,  [rcx-0x7D] ; ret ; (1 found)
0x491b50: or ecx, edi ; jmp qword [rsi+0x0F] ; (1 found)
0x435073: or ecx, esi ; sub eax, ecx ; ret ; (3 found)
0x435ab2: or edi,  [rsi] ; jmp r9 ; (4 found)
0x44d020: or edi,  [rsi] ; jmp rcx ; (16 found)
0x4a8b31: or edx, eax ; cmc ; jmp qword [rsi+0x2E] ; (1 found)
0x4bb332: or esi, 0x02 ; mov edi, 0x00000001 ; call rax ; (1 found)
0x43d623: or esi, ebx ; movq qword [rdi], mm1 ; ret ; (2 found)
0x480dfb: or esi, edx ; movd xmm0, xmm6 ; ret ; (1 found)
0x43d772: or r11L, r14L ; movq qword [rdi], mm1 ; ret ; (2 found)
0x43d702: or r11d, r14d ; movq qword [rdi], mm1 ; ret ; (2 found)
0x43d692: or r14L, r11L ; movq qword [rdi], mm1 ; ret ; (2 found)
0x43d622: or r14d, r11d ; movq qword [rdi], mm1 ; ret ; (2 found)
0x43d542: or r8d, 0x0F7F0FF3 ; ret ; (2 found)
0x403c79: or rax, 0xFFFFFFFFFFFFFFFF ; ret ; (18 found)
0x49c772: or rax, qword [r8] ; add byte [rax-0x7D], cl ; retn 0xE910 ; (1 found)
0x480e3f: or rax, rsi ; movq xmm0, xmm0 ; ret ; (1 found)
0x4a1164: out 0x00, al ; add byte [rax], al ; syscall ; (4 found)
0x42504e: out 0x07, al ; xor sil, 0x81 ; syscall ; (1 found)
0x424c6d: out 0x09, al ; add byte [rax+0x0000000E], bh ; syscall ; (1 found)
0x41c428: out 0x41, al ; call qword [rbp+0x38] ; (1 found)
0x48dd65: out 0x41, eax ; call qword [rdi+0x38] ; (1 found)
0x48d607: out 0x41, eax ; call qword [rsi+0x38] ; (2 found)
0x404af8: out 0x43, eax ; call qword [rsi+rdi*8] ; (2 found)
0x4bd53f: out 0x44, al ; hlt ; jmp qword [rsi+0x66] ; (1 found)
0x42044f: out 0x48, al ; mov edi, ebp ; call qword [r12+0x00000090] ; (2 found)
0x41f239: out 0x48, al ; mov edi, ebp ; call qword [r14+0x00000090] ; (1 found)
0x41f6db: out 0x48, al ; mov edi, ebp ; call qword [r15+0x00000080] ; (1 found)
0x48fbba: out 0x48, al ; mov edi, ebp ; call qword [rbx+0x00000090] ; (1 found)
0x415ca5: out 0x48, al ; mov edi, ebp ; call qword [rcx+0x38] ; (4 found)
0x420b58: out 0x48, al ; mov edi, ebx ; call qword [r14+0x78] ; (1 found)
0x475a55: out 0x4C, al ; mov edi, ebp ; call rbx ; (1 found)
0x416e49: out 0x4C, al ; mov edi, esi ; call qword [rax+0x38] ; (1 found)
0x417ebe: out 0x4C, al ; mov edi, esi ; call qword [rcx+0x38] ; (1 found)
0x485d1f: out 0x4C, eax ; mov  [rbp-0x000000E8], eax ; call rax ; (1 found)
0x475b45: out 0x4C, eax ; mov edx, esi ; call rbp ; (1 found)
0x4b9b01: out 0x83, al ; call qword [rcx] ; (1 found)
0x416872: out 0x83, al ; ret ; (1 found)
0x4b61c9: out 0x89, al ; out dx, eax ; call qword [rax] ; (2 found)
0x4b6185: out 0x89, al ; out dx, eax ; call rax ; (1 found)
0x4af336: out 0x98, al ; add al, 0x00 ; ret ; (1 found)
0x424865: out 0xC7, eax ; std ; jmp qword [rsi+0x0F] ; (1 found)
0x40178b: out 0xE8, eax ; jmp qword [rbp-0x08BEFFF5] ; (1 found)
0x4209c7: out 0xE8, eax ; ret ; (3 found)
0x4beed8: out 0xE8, eax ; retn 0xF6AF ; (1 found)
0x42b235: out 0xE8, eax ; retn 0xFFFF ; (1 found)
0x43cf09: out 0xF3, al ; movq qword [rdi-0x10], mm1 ; ret ; (4 found)
0x43cf89: out 0xF3, eax ; movq qword [rdi-0x10], mm1 ; ret ; (4 found)
0x472b1c: out 0xF8, al ; call qword [rax-0x05E1F00D] ; (1 found)
0x4797a8: out 0xFF, al ; dec  [rax-0x39] ; retn 0xFFFF ; (1 found)
0x417c89: out 0xFF, al ; inc  [rcx] ; ret ; (2 found)
0x413f2b: out 0xFF, al ; jmp qword [rsi+0x0F] ; (4 found)
0x417bbb: out 0xFF, al ; jmp qword [rsi-0x70] ; (3 found)
0x483a06: out 0xFF, eax ; dec  [rax-0x39] ; retn 0xFFFF ; (1 found)
0x413196: out 0xFF, eax ; dec  [rax-0x7D] ; ret ; (1 found)
0x41a67e: out 0xFF, eax ; dec  [rax-0x7D] ; retn 0x0F03 ; (1 found)
0x417ba8: out 0xFF, eax ; inc  [rcx] ; ret ; (1 found)
0x40f4df: out 0xFF, eax ; jmp qword [rsi+0x0F] ; (1 found)
0x41a00b: out 0xFF, eax ; jmp qword [rsi-0x70] ; (1 found)
0x48b365: out dx, al ; add  [rax-0x0008E343], eax ; jmp qword [rax] ; (1 found)
0x40136e: out dx, al ; add cl, byte [rax-0x7D] ; retn 0x4810 ; (6 found)
0x414e56: out dx, al ; add eax, ebp ; ret ; (1 found)
0x42a41e: out dx, al ; mov ah, 0xFF ; jmp qword [rsi+0x0F] ; (1 found)
0x4a1162: out dx, al ; mov eax, 0x000000E6 ; syscall ; (2 found)
0x424e73: out dx, al ; mov eax, 0x000000EA ; syscall ; (1 found)
0x404af5: out dx, al ; mov edi, r12d ; call qword [r14+r15*8] ; (2 found)
0x4a0c9c: out dx, al ; mov qword [rsp+0x000000D0], rax ; call r12 ; (1 found)
0x48d604: out dx, al ; mov rdi, r12 ; call qword [r14+0x38] ; (2 found)
0x48dd62: out dx, al ; mov rdi, r12 ; call qword [r15+0x38] ; (1 found)
0x48e41b: out dx, al ; mov rdi, r12 ; call qword [rax+0x38] ; (1 found)
0x40b809: out dx, al ; mov rdi, r12 ; call rax ; (3 found)
0x40c172: out dx, al ; mov rdi, r13 ; call r15 ; (1 found)
0x416217: out dx, al ; mov rdi, r14 ; call qword [rax+0x38] ; (1 found)
0x41d1db: out dx, al ; mov rdi, r15 ; call qword [r14+0x00000080] ; (1 found)
0x41c2b7: out dx, al ; mov rdi, r15 ; call qword [r14+0x38] ; (2 found)
0x41c31d: out dx, al ; mov rdi, r15 ; call qword [rbp+0x38] ; (2 found)
0x41e5cb: out dx, al ; mov rdi, r15 ; call rbx ; (1 found)
0x420295: out dx, al ; mov rdi, rbp ; call qword [rax+0x78] ; (1 found)
0x4a084f: out dx, al ; mov rdi, rbp ; call rbx ; (1 found)
0x41fffd: out dx, al ; mov rdi, rbx ; call qword [r12+0x00000080] ; (1 found)
0x48fd66: out dx, al ; mov rdi, rbx ; call qword [r13+0x38] ; (1 found)
0x4ae9a8: out dx, al ; mov rdi, rbx ; call qword [r14+0x48] ; (1 found)
0x4bc10a: out dx, al ; mov rdi, rbx ; call r14 ; (1 found)
0x43d319: out dx, al ; movdqu  [rdi-0x10], xmm1 ; ret ; (4 found)
0x46e327: out dx, al ; retn 0x0000 ; (1 found)
0x47984e: out dx, al ; retn 0xFFF8 ; (1 found)
0x4a6421: out dx, al ; sti ; jmp qword [rsi-0x007F] ; (1 found)
0x4a8a10: out dx, al ; syscall ; (1 found)
0x4862f2: out dx, eax ; add  [rax+0x39], ecx ; ret ; (1 found)
0x420452: out dx, eax ; call qword [r12+0x00000090] ; (2 found)
0x4186ce: out dx, eax ; call qword [r12+0x38] ; (1 found)
0x41fae3: out dx, eax ; call qword [r13+0x00000090] ; (1 found)
0x419965: out dx, eax ; call qword [r13+0x38] ; (1 found)
0x41f23c: out dx, eax ; call qword [r14+0x00000090] ; (1 found)
0x4201a2: out dx, eax ; call qword [r14+0x18] ; (3 found)
0x4914b0: out dx, eax ; call qword [r14+0x20] ; (1 found)
0x41f6de: out dx, eax ; call qword [r15+0x00000080] ; (1 found)
0x418be8: out dx, eax ; call qword [r15+0x38] ; (3 found)
0x41f606: out dx, eax ; call qword [rax+0x00000080] ; (1 found)
0x41f498: out dx, eax ; call qword [rax+0x00000090] ; (1 found)
0x420298: out dx, eax ; call qword [rax+0x78] ; (1 found)
0x4b61cb: out dx, eax ; call qword [rax] ; (2 found)
0x41bdaf: out dx, eax ; call qword [rbx+0x00000080] ; (4 found)
0x4214f4: out dx, eax ; call qword [rbx+0x00000088] ; (1 found)
0x48fbbd: out dx, eax ; call qword [rbx+0x00000090] ; (1 found)
0x41ba5e: out dx, eax ; call qword [rbx+0x10] ; (1 found)
0x422259: out dx, eax ; call qword [rbx+0x18] ; (2 found)
0x419232: out dx, eax ; call qword [rbx+0x38] ; (2 found)
0x415ca8: out dx, eax ; call qword [rcx+0x38] ; (4 found)
0x461ce7: out dx, eax ; call r12 ; (2 found)
0x40c119: out dx, eax ; call r15 ; (2 found)
0x41f656: out dx, eax ; call rax ; (4 found)
0x4588e9: out dx, eax ; call rbx ; (3 found)
0x46144d: out dx, eax ; cli ; jmp qword [rsi+0x2E] ; (1 found)
0x4019e1: out dx, eax ; idiv edi ; call qword [rax-0x18] ; (1 found)
0x4576b0: out dx, eax ; jmp qword [rsi+0x66] ; (1 found)
0x41e35d: out dx, eax ; lea r9, qword [rsp+0x28] ; call rbp ; (2 found)
0x457d26: out dx, eax ; lea r9, qword [rsp+0x30] ; call rbx ; (1 found)
0x455e69: out dx, eax ; lea rax, qword [rdi+rax] ; ret ; (1 found)
0x4934a8: out dx, eax ; mov eax, 0x000000CA ; syscall ; (1 found)
0x492676: out dx, eax ; mov eax, r13d ; syscall ; (1 found)
0x493412: out dx, eax ; mov eax, r8d ; syscall ; (1 found)
0x420259: out dx, eax ; mov edx, 0x00000001 ; call qword [rax+0x00000080] ; (1 found)
0x457e71: out dx, eax ; mov rsi, qword [rsp+0x18] ; call rbx ; (1 found)
0x43d399: out dx, eax ; movdqu  [rdi-0x10], xmm1 ; ret ; (4 found)
0x404713: out dx, eax ; push rsi ; retn 0x0F02 ; (1 found)
0x4593c7: out dx, eax ; ret ; (1 found)
0x44fb63: out dx, eax ; retn 0x0F66 ; (1 found)
0x41fd05: out dx, eax ; sub r12, r14 ; call qword [r13+0x40] ; (1 found)
0x4b8fd9: out dx, eax ; xor byte [rax+0x21], cl ; retn 0x8949 ; (1 found)
0x4a8264: out dx, eax ; xor eax, eax ; ret ; (1 found)
0x4615c6: out dx, eax ; xor esi, esi ; call r12 ; (4 found)
0x4b41ef: outsb ; int 0x80 ; (1 found)
0x4aa21e: outsb ; mov al, 0xFB ; jmp qword [rsi+0x66] ; (1 found)
0x403d43: outsb ; ret ; (10 found)
0x4647de: outsb ; retn 0x0008 ; (1 found)
0x409d55: outsb ; retn 0x0F66 ; (5 found)
0x4b495a: outsb ; retn 0x160F ; (1 found)
0x46928e: outsb ; retn 0x4166 ; (1 found)
0x4262f7: outsb ; retn 0x4866 ; (2 found)
0x421697: outsb ; retn 0x8948 ; (6 found)
0x4074ca: outsb ; retn 0x8B41 ; (1 found)
0x4aa49e: outsb ; retn 0x8B49 ; (1 found)
0x401e98: outsb ; retn 0x8D48 ; (3 found)
0x4ae721: outsb ; retn 0xD1B8 ; (1 found)
0x4ae760: outsb ; retn 0xD348 ; (1 found)
0x4258a3: outsb ; shl byte [rsi+0x0F], 0x6C ; retn 0x0F41 ; (1 found)
0x48476f: outsd ; adc  [rax-0x0000DF6B], ecx ; jmp qword [rsi+0x0F] ; (1 found)
0x481275: outsd ; add eax, 0xC7480000 ; retn 0xFFA0 ; (1 found)
0x483fd1: outsd ; and al, 0xE8 ; ret ; (1 found)
0x44111e: outsd ; fmul qword [rcx-0x7D] ; retn 0x0F10 ; (60 found)
0x42d4f8: outsd ; fmul qword [rcx-0x7D] ; retn 0x7F10 ; (60 found)
0x486ef3: outsd ; in eax, 0xFF ; jmp qword [rsi+0x0F] ; (1 found)
0x437527: outsd ; iretq ; (2 found)
0x4774d8: outsd ; jmp qword [rsi+0x0F] ; (2 found)
0x4818dc: outsd ; jmp qword [rsi-0x70] ; (1 found)
0x435fe5: outsd ; lock jmp r9 ; (30 found)
0x489511: outsd ; or byte [rcx-0x77], al ; ret ; (2 found)
0x440ce7: outsd ; pop rcx ; jmp qword [rdx-0x2F] ; (2 found)
0x437c47: outsd ; ret ; (8 found)
0x485525: outsd ; retn 0x02BE ; (1 found)
0x448d7a: outsd ; retn 0x0F66 ; (2 found)
0x48477d: outsd ; retn 0x290F ; (2 found)
0x437e47: outsd ; retn 0x8B4C ; (4 found)
0x433142: pcmpeqb mm0, mm1 ; lea r10, qword [r10+r9] ; jmp r10 ; (3 found)
0x49ed34: pcmpeqb mm3, qword [rcx] ; add rax, 0x02 ; ret ; (1 found)
0x49ed1f: pcmpeqb mm3, qword [rsi] ; ret ; (1 found)
0x433141: pcmpeqb xmm0, xmm1 ; lea r10, qword [r10+r9] ; jmp r10 ; (3 found)
0x47c4b9: pmaddwd mm7, mm7 ; dec  [rax-0x39] ; retn 0xFFFF ; (1 found)
0x4a1795: pop qword [rax] ; add byte [rax], al ; syscall ; (1 found)
0x402dfd: pop qword [rsi+rax] ; add byte [rcx+0x17E8E845], cl ; ret ; (1 found)
0x4204e0: pop r12 ; jmp rax ; (6 found)
0x4207a5: pop r12 ; pop r13 ; jmp rax ; (4 found)
0x40d63a: pop r12 ; pop r13 ; ret ; (75 found)
0x4026e8: pop r12 ; pop rbp ; ret ; (2 found)
0x40398d: pop r12 ; ret ; (116 found)
0x4670fa: pop r12 ; shl eax, cl ; ret ; (1 found)
0x4207a7: pop r13 ; jmp rax ; (4 found)
0x41f2d4: pop r13 ; pop r14 ; jmp rax ; (1 found)
0x40b5bb: pop r13 ; pop r14 ; ret ; (49 found)
0x4a57a5: pop r13 ; pop rbp ; ret ; (2 found)
0x40d63c: pop r13 ; ret ; (75 found)
0x41f2d6: pop r14 ; jmp rax ; (1 found)
0x46a2a6: pop r14 ; pop r15 ; jmp rax ; (12 found)
0x40352c: pop r14 ; pop r15 ; ret ; (211 found)
0x40b5bd: pop r14 ; ret ; (50 found)
0x46a2a8: pop r15 ; jmp rax ; (12 found)
0x406033: pop r15 ; pop rbp ; ret ; (39 found)
0x40352e: pop r15 ; ret ; (211 found)
0x40a479: pop rax ; add al, 0x5B ; ret ; (1 found)
0x460243: pop rax ; cli ; jmp qword [rsi+0x2E] ; (1 found)
0x4b027c: pop rax ; cmc ; call qword [rax-0x05E1F00D] ; (1 found)
0x4941f2: pop rax ; dec  [rcx-0x77] ; retn 0x3948 ; (1 found)
0x48c873: pop rax ; idiv edi ; jmp qword [rsi-0x77] ; (1 found)
0x46a5a0: pop rax ; mov rax, qword [rsp+0x18] ; call rax ; (2 found)
0x46c22d: pop rax ; mov rdi, qword [rsp+0x50] ; call r13 ; (3 found)
0x461267: pop rax ; ret ; (7 found)
0x4b4adf: pop rbp ; adc ch, dh ; jmp qword [rsi+0x2E] ; (1 found)
0x41861e: pop rbp ; add dh, dh ; ret ; (1 found)
0x4207a8: pop rbp ; jmp rax ; (8 found)
0x4b4aae: pop rbp ; jmp rdx ; (1 found)
0x45ea8e: pop rbp ; lea rax, qword [rax+rdx*8] ; ret ; (1 found)
0x4bc599: pop rbp ; mov eax, r8d ; ret ; (1 found)
0x4204df: pop rbp ; pop r12 ; jmp rax ; (5 found)
0x40398c: pop rbp ; pop r12 ; ret ; (92 found)
0x41f2d5: pop rbp ; pop r14 ; jmp rax ; (1 found)
0x40b5bc: pop rbp ; pop r14 ; ret ; (49 found)
0x4a57a6: pop rbp ; pop rbp ; ret ; (2 found)
0x480dd8: pop rbp ; pop rbx ; ret ; (2 found)
0x401b41: pop rbp ; ret ; (207 found)
0x4ada00: pop rbp ; sti ; jmp qword [rsi+0x66] ; (1 found)
0x4220e9: pop rbx ; jmp rax ; (6 found)
0x4bec0b: pop rbx ; mov qword [0x00000000004F84B0], 0x0000000000000000 ; ret ; (1 found)
0x4ae84f: pop rbx ; pop r12 ; jmp rax ; (1 found)
0x40c556: pop rbx ; pop r12 ; ret ; (14 found)
0x4221d9: pop rbx ; pop rbp ; jmp rax ; (4 found)
0x4b4aad: pop rbx ; pop rbp ; jmp rdx ; (1 found)
0x405dfa: pop rbx ; pop rbp ; ret ; (77 found)
0x402f60: pop rbx ; ret ; (75 found)
0x45988d: pop rcx ; adc byte [rcx+0x29], al ; ret ; (1 found)
0x4b323b: pop rcx ; add eax, 0x01480000 ; ret ; (1 found)
0x4b01af: pop rcx ; cmc ; jmp qword [rsi+0x0F] ; (2 found)
0x4406bc: pop rcx ; jmp qword [rdx-0x0F] ; (1 found)
0x440ce9: pop rcx ; jmp qword [rdx-0x2F] ; (1 found)
0x4bbbac: pop rcx ; jmp rcx ; (4 found)
0x41659f: pop rdi ; add al, 0x89 ; retn 0x9D89 ; (1 found)
0x46a2a9: pop rdi ; jmp rax ; (12 found)
0x437356: pop rdi ; lock mov qword [rdi-0x08], rcx ; ret ; (4 found)
0x437394: pop rdi ; lock mov qword [rdi-0x08], rdx ; ret ; (12 found)
0x462570: pop rdi ; mov rdi, qword [r12+0x00] ; call rbx ; (1 found)
0x41bb00: pop rdi ; or byte [rbx-0x76FEFBB9], al ; retn 0xE281 ; (1 found)
0x406034: pop rdi ; pop rbp ; ret ; (39 found)
0x40352f: pop rdi ; ret ; (211 found)
0x425878: pop rdx ; adc byte [rax+0x01], cl ; retn 0x0349 ; (1 found)
0x433af6: pop rdx ; add eax, 0x83480000 ; retn 0x4910 ; (1 found)
0x48dc39: pop rdx ; or byte [rax-0x7D], cl ; retn 0x8D08 ; (1 found)
0x461965: pop rdx ; or byte [rcx-0x0A], al ; ret ; (1 found)
0x4637cf: pop rdx ; pop r12 ; ret ; (1 found)
0x4ad83b: pop rdx ; pop rbx ; ret ; (6 found)
0x4748de: pop rsi ; adc bh, cl ; jmp qword [rsi+0x66] ; (1 found)
0x4b9246: pop rsi ; add eax, 0x00024C74 ; ret ; (1 found)
0x41f2d7: pop rsi ; jmp rax ; (1 found)
0x492dc1: pop rsi ; mov eax, 0x00000016 ; ret ; (1 found)
0x46209d: pop rsi ; or byte [rcx-0x0A], al ; ret ; (2 found)
0x46a2a7: pop rsi ; pop r15 ; jmp rax ; (12 found)
0x40352d: pop rsi ; pop r15 ; ret ; (211 found)
0x40b5be: pop rsi ; ret ; (50 found)
0x4466c0: pop rsp ; add eax, 0x83480000 ; retn 0xE910 ; (1 found)
0x464284: pop rsp ; cld ; jmp qword [rsi+0x0F] ; (1 found)
0x45ff14: pop rsp ; cli ; jmp qword [rsi+0x0F] ; (1 found)
0x4204e1: pop rsp ; jmp rax ; (6 found)
0x4207a6: pop rsp ; pop r13 ; jmp rax ; (4 found)
0x40d63b: pop rsp ; pop r13 ; ret ; (75 found)
0x4026e9: pop rsp ; pop rbp ; ret ; (2 found)
0x40398e: pop rsp ; ret ; (118 found)
0x4670fb: pop rsp ; shl eax, cl ; ret ; (1 found)
0x4bb8c0: popfq ; cmp ch, 0xFF ; jmp qword [rsi+0x0F] ; (1 found)
0x4886e3: psllq mm7, mm7 ; jmp qword [rsi+0x0F] ; (1 found)
0x46457f: punpcklqdq mm0, mm0 ; movups  [0x00000000004F8C60], xmm0 ; ret ; (1 found)
0x46462e: punpcklqdq mm0, mm0 ; movups  [rbx+0x000002D8], xmm0 ; syscall ; (1 found)
0x4ac1fc: punpcklqdq mm0, mm2 ; movups  [rax+0x00000308], xmm0 ; ret ; (1 found)
0x46457e: punpcklqdq xmm0, xmm0 ; movups  [0x00000000004F8C60], xmm0 ; ret ; (1 found)
0x46462d: punpcklqdq xmm0, xmm0 ; movups  [rbx+0x000002D8], xmm0 ; syscall ; (1 found)
0x4ac1fb: punpcklqdq xmm0, xmm2 ; movups  [rax+0x00000308], xmm0 ; ret ; (1 found)
0x4578d5: push 0x00000000 ; lea r9, qword [rsp+0x18] ; call r13 ; (1 found)
0x457aeb: push 0x00000001 ; lea r9, qword [rsp+0x20] ; call rbx ; (1 found)
0x4b0ad2: push 0x00000050 ; cmc ; jmp qword [rsi+0x2E] ; (1 found)
0x403233: push 0x001F0FF8 ; call qword [rbp+rbx*8+0x00] ; (1 found)
0x417745: push 0x0FFFFFF7 ; xchg eax, edx ; retn 0x3948 ; (1 found)
0x4ab9af: push 0x41FFFFFF ; call rcx ; (1 found)
0x493f34: push 0x48000099 ; cmove eax, edx ; ret ; (1 found)
0x41ab54: push 0x48000D33 ; mov eax,  [rax+rdi*8] ; ret ; (1 found)
0x4abd95: push 0x4CFFFFFF ; mov  [rbp-0x00000088], ecx ; call rax ; (1 found)
0x422f41: push 0x75C08548 ; lock ret ; (2 found)
0x405b32: push 0x8948000D ; ret ; (1 found)
0x46390c: push 0x8948FFFC ; ret ; (1 found)
0x49309e: push 0xAB740104 ; mov eax, 0x00000083 ; ret ; (1 found)
0x44df74: push 0xF6000001 ; retn 0x7501 ; (1 found)
0x479b7f: push 0xFFF10AE9 ; jmp qword [rsi+0x66] ; (1 found)
0x42b885: push 0xFFFFFF83 ; ret ; (1 found)
0x403222: push cs ; add byte [rax+0x29], cl ; ret ; (1 found)
0x4068a6: push cs ; add byte [rax-0x77], cl ; ret ; (2 found)
0x40c90a: push cs ; add byte [rbx+rcx*4+0x04], cl ; retn 0x8D48 ; (2 found)
0x4022ac: push cs ; add cl, cl ; ret ; (1 found)
0x4142d1: push cs ; fdiv st7, st0 ; jmp qword [rsi+0x0F] ; (1 found)
0x44d99e: push cs ; lea rax, qword [rdi+0x15] ; ret ; (2 found)
0x44daa1: push cs ; lea rax, qword [rdi+0x1D] ; ret ; (1 found)
0x440775: push cs ; mov byte [rdi], cl ; ret ; (1 found)
0x4a857e: push cs ; mov rax, r8 ; ret ; (1 found)
0x43d4d2: push cs ; movdqu  [rdi], xmm1 ; ret ; (4 found)
0x4aa1f9: push cs ; or byte [rdi+0x0000031D], 0x40 ; ret ; (1 found)
0x44cdf0: push cs ; ret ; (9 found)
0x4b4404: push cs ; sti ; jmp qword [rsi+0x0F] ; (1 found)
0x43521a: push cs ; sub eax, ecx ; ret ; (2 found)
0x4331fb: push cs ; sub eax, edx ; ret ; (1 found)
0x4be0c2: push cs ; xor esp, esi ; jmp qword [rsi+0x2E] ; (1 found)
0x44f8f7: push qword [rbp+0x1A] ; xor eax, eax ; ret ; (2 found)
0x462610: push qword [rbp+0x1D] ; mov rdi, qword [r13+0x00] ; call rbx ; (1 found)
0x462542: push qword [rbp+0x4B] ; mov rdi, qword [r12+0x00] ; call rbx ; (1 found)
0x461800: push qword [rbp+0x4D] ; mov rdi, qword [r13+0x00] ; call rbx ; (1 found)
0x4625e4: push qword [rbp+0x69] ; mov rdi, qword [r13+0x00] ; call rbx ; (1 found)
0x490f21: push qword [rbp+rax-0x0A] ; retn 0x7408 ; (1 found)
0x489bd5: push qword [rbp+rax-0x18] ; ret ; (1 found)
0x4be395: push qword [rbp+rcx*2-0x77] ; retn 0x8948 ; (1 found)
0x4230d6: push qword [rbp+rcx-0x18] ; retn 0x006D ; (1 found)
0x460260: push qword [rbx+0x01] ; ret ; (17 found)
0x42b230: push qword [rcx] ; test byte [rcx+rcx*4-0x19], 0xE8 ; retn 0xFFFF ; (1 found)
0x4a16fc: push qword [rdi+0x01] ; ret ; (1 found)
0x461329: push qword [rdi+0x04] ; ret ; (1 found)
0x460730: push qword [rdi+0x05] ; ret ; (4 found)
0x4612bd: push qword [rdi+0x08] ; ret ; (1 found)
0x4633a3: push qword [rdi+0x0A] ; ret ; (3 found)
0x460352: push qword [rdi+0x0B] ; xor eax, eax ; ret ; (1 found)
0x4614cc: push qword [rdi+0x21] ; ret ; (1 found)
0x46086c: push qword [rdi+0x41] ; ret ; (1 found)
0x46069c: push qword [rdi+0x51] ; ret ; (3 found)
0x4605f7: push qword [rdi+0x56] ; ret ; (1 found)
0x4bc7fc: push qword [rsi-0x77] ; retn 0xE283 ; (1 found)
0x4224f5: push qword [rsp+rax-0x58] ; add  [rsp-0x77], esi ; retn 0xC883 ; (1 found)
0x429989: push qword [rsp+rcx+0x48] ; add esp, 0x08 ; ret ; (1 found)
0x463895: push r11 ; or  [rax], eax ; ret ; (1 found)
0x423b09: push rax ; adc byte [rbx-0x2FD6EFB9], cl ; ret ; (1 found)
0x46c232: push rax ; call r13 ; (3 found)
0x46787f: push rax ; call rbx ; (1 found)
0x4b0ad3: push rax ; cmc ; jmp qword [rsi+0x2E] ; (1 found)
0x464c0d: push rax ; cmp byte [rbp-0x6AF0BE37], al ; ret ; (1 found)
0x42aadd: push rax ; dec  [rax-0x7B] ; retn 0x840F ; (1 found)
0x417376: push rax ; idiv edi ; jmp qword [rsi+0x0F] ; (1 found)
0x464767: push rax ; mov byte [rax+0x50], 0x01 ; ret ; (1 found)
0x46bbbc: push rax ; mov rax, qword [rsp+0x18] ; call rax ; (1 found)
0x469fe0: push rax ; mov rax, qword [rsp+0x28] ; call rax ; (2 found)
0x46cf26: push rax ; mov rdi, qword [rsp+0x48] ; call r14 ; (1 found)
0x4908d0: push rax ; movups  [rax], xmm0 ; ret ; (1 found)
0x490895: push rax ; movups  [rax], xmm1 ; ret ; (1 found)
0x484ad8: push rax ; or al, 0xF6 ; retn 0x7540 ; (1 found)
0x464781: push rax ; ret ; (2 found)
0x423afa: push rax ; sbb byte [rbx-0x2FD6EFB9], cl ; ret ; (1 found)
0x4bed0b: push rbp ; adc byte [rax-0x7D], cl ; ret ; (1 found)
0x4a1d08: push rbp ; add  [rax+0x01], ecx ; ret ; (1 found)
0x48df0e: push rbp ; add byte [rax-0x77], cl ; retn 0xC148 ; (2 found)
0x4a59f0: push rbp ; add byte [rbp-0x36], dh ; ret ; (3 found)
0x42989d: push rbp ; and byte [rax+0x39], cl ; retn 0x4473 ; (1 found)
0x456a2a: push rbp ; bsf eax, eax ; ret ; (2 found)
0x47faad: push rbp ; call qword [rax+0x48068B48] ; (1 found)
0x41c42b: push rbp ; cmp byte [rax+0x39], cl ; ret ; (2 found)
0x469242: push rbp ; mov byte [rax-0x7D], cl ; ret ; (1 found)
0x41cbd9: push rbx ; adc byte [rax+0x01], cl ; retn 0x2B48 ; (1 found)
0x4047e1: push rbx ; adc byte [rax-0x7D], cl ; ret ; (1 found)
0x4bc55c: push rbx ; add  [rax-0x7D], ecx ; ret ; (1 found)
0x456b6e: push rbx ; bsf eax, eax ; ret ; (2 found)
0x49e3dc: push rbx ; lea rax, qword [rdi+rax+0x10] ; ret ; (1 found)
0x463896: push rbx ; or  [rax], eax ; ret ; (2 found)
0x461cca: push rbx ; or byte [rax-0x7D], cl ; ret ; (2 found)
0x45f80d: push rcx ; cld ; jmp qword [rsi+0x0F] ; (1 found)
0x4a05e4: push rcx ; mov eax, 0x0148051E ; retn 0xB848 ; (1 found)
0x46069e: push rcx ; ret ; (3 found)
0x474cd3: push rcx ; sti ; jmp qword [rsi+0x2E] ; (1 found)
0x44d89c: push rdi ; add eax, 0x0C478D48 ; ret ; (1 found)
0x4b98ee: push rdi ; add ecx,  [rax+0x63] ; ret ; (1 found)
0x437398: push rdi ; clc ; ret ; (70 found)
0x437510: push rdi ; cld ; ret ; (70 found)
0x417813: push rdi ; idiv edi ; jmp qword [rsi+0x0F] ; (1 found)
0x43cd0a: push rdi ; mov qword [rdi-0x08], rcx ; ret ; (4 found)
0x4adeba: push rdi ; or byte [rcx+0x01], cl ; retn 0x894C ; (1 found)
0x480dca: push rdi ; or byte [rcx+0x29], cl ; retn 0x894C ; (1 found)
0x44da80: push rdi ; or eax, 0x1C478D48 ; ret ; (1 found)
0x44d3e0: push rdi ; push cs ; ret ; (1 found)
0x4040aa: push rdi ; retn 0x0000 ; (1 found)
0x4283f5: push rdi ; retn 0x0009 ; (1 found)
0x45ffa8: push rdi ; retn 0x4000 ; (1 found)
0x4afae4: push rdi ; sti ; jmp qword [rsi+0x0F] ; (1 found)
0x494a28: push rdi ; xor eax, eax ; ret ; (1 found)
0x425e16: push rdx ; adc byte [rcx+0x01], cl ; retn 0x3948 ; (1 found)
0x4bc7cf: push rdx ; hlt ; jmp qword [rsi+0x66] ; (1 found)
0x4bec4a: push rdx ; mov dl, 0xF6 ; jmp qword [rsi+0x0F] ; (1 found)
0x426a26: push rdx ; or byte [rcx+0x39], cl ; retn 0x850F ; (1 found)
0x435f89: push rdx ; sar byte [rsi], 0x41 ; jmp rcx ; (60 found)
0x44d1c3: push rsi ; add ecx,  [rcx+0x0357890F] ; ret ; (1 found)
0x49e07b: push rsi ; cld ; jmp qword [rsi-0x70] ; (1 found)
0x4b7c16: push rsi ; idiv edi ; jmp qword [rsi+0x0F] ; (1 found)
0x44f3e6: push rsi ; lock sub eax, edx ; ret ; (1 found)
0x4605f9: push rsi ; ret ; (1 found)
0x404714: push rsi ; retn 0x0F02 ; (2 found)
0x485a5f: push rsi ; retn 0x0F20 ; (1 found)
0x49de60: push rsi ; retn 0x7420 ; (1 found)
0x484b43: push rsi ; retn 0x7440 ; (1 found)
0x44f406: push rsi ; sub eax, edx ; ret ; (2 found)
0x4a0f38: push rsp ; and al, 0x38 ; call r12 ; (2 found)
0x428d22: push rsp ; ret ; (4 found)
0x429643: push rsp ; retn 0xE8F0 ; (2 found)
0x4bdd7a: push rsp ; std ; jmp qword [rsi-0x70] ; (2 found)
0x445680: pushfq ; adc eax, 0x83480000 ; retn 0xE910 ; (1 found)
0x401a34: pushfq ; idiv edi ; call qword [rax-0x18] ; (1 found)
0x4332b4: pushfq ; or eax, 0x83480000 ; retn 0xEB10 ; (1 found)
0x45a6b7: pushfq ; retn 0x394C ; (1 found)
0x45af61: pushfq ; retn 0xD089 ; (1 found)
0x427ab2: rcl  [0x00000000004F189D], 0xFFFFFF83 ; retn 0x8B01 ; (1 found)
0x475476: rcl byte [rax+0x48FFFFFF], 0x63 ; jmp qword [rax+rcx*2-0x75] ; (1 found)
0x424f73: rcl byte [rax-0x3F76BBA5], 0x5D ; pop r12 ; ret ; (1 found)
0x427ae1: rcr  [rbp+0x3948000C], cl ; ret ; (1 found)
0x44637c: rcr  [rdx], 0x0F ; xchg byte [rax+rcx-0x7CB80000], bl ; retn 0xE910 ; (1 found)
0x445b5c: rcr  [rdx], 0x0F ; xchg byte [rax+rdx-0x7CB80000], bh ; retn 0xE910 ; (1 found)
0x44567c: rcr  [rdx], 0x0F ; xchg byte [rbp+rdx-0x7CB80000], bl ; retn 0xE910 ; (1 found)
0x44685c: rcr  [rdx], 0x0F ; xchg byte [rbx+rax-0x7CB80000], bh ; retn 0xE910 ; (1 found)
0x4bf570: rcr byte [rax+0x48FFFFFF], 0xC7 ; retn 0xEE20 ; (1 found)
0x42abc5: rcr byte [rbp+0x41], 0x5C ; pop r13 ; ret ; (2 found)
0x409581: rcr byte [rbp+0x41], 0x5C ; ret ; (11 found)
0x420092: rcr byte [rbp+0x41], 1 ; pop rsp ; ret ; (1 found)
0x480dd7: rcr byte [rbp+0x5B], 1 ; ret ; (2 found)
0x40398a: rcr byte [rbx+0x5D], 0x41 ; pop rsp ; ret ; (4 found)
0x48c93b: rcr edx, 0xFFFFFFFF ; call qword [rax+0x48BD8B48] ; (1 found)
0x45032d: rep movsb ; cld ; ret ; (1 found)
0x45031f: rep movsb ; ret ; (2 found)
0x45143f: rep movsb ; vmovdqu64  [r8], zmm16 ; ret ; (2 found)
0x44fdb0: rep ret ; (1 found)
0x451967: rep stosb ; mov rax, rdx ; ret ; (6 found)
0x40101a: ret ; (3678 found)
0x4040ac: retn 0x0000 ; (48 found)
0x42c065: retn 0x0001 ; (5 found)
0x40a08c: retn 0x0002 ; (4 found)
0x479f2b: retn 0x0003 ; (6 found)
0x433b8e: retn 0x0004 ; (4 found)
0x402e34: retn 0x0005 ; (7 found)
0x4b70ba: retn 0x0006 ; (1 found)
0x43384a: retn 0x0007 ; (1 found)
0x4349a9: retn 0x0008 ; (3 found)
0x4043d7: retn 0x0009 ; (13 found)
0x40f60f: retn 0x000A ; (1 found)
0x418bf2: retn 0x000F ; (2 found)
0x48d571: retn 0x0012 ; (1 found)
0x4135ce: retn 0x001C ; (1 found)
0x48e84a: retn 0x0023 ; (1 found)
0x421d8a: retn 0x002B ; (1 found)
0x40e9de: retn 0x0038 ; (1 found)
0x45ff9e: retn 0x0067 ; (1 found)
0x4230da: retn 0x006D ; (1 found)
0x42fdc8: retn 0x0080 ; (78 found)
0x48f424: retn 0x008B ; (1 found)
0x45ca14: retn 0x00B8 ; (5 found)
0x4a8901: retn 0x00C6 ; (2 found)
0x485791: retn 0x00F8 ; (1 found)
0x48f5cf: retn 0x0107 ; (1 found)
0x428d5a: retn 0x0110 ; (2 found)
0x4015e7: retn 0x011C ; (1 found)
0x45a8f8: retn 0x0144 ; (5 found)
0x423226: retn 0x0148 ; (5 found)
0x477a38: retn 0x0149 ; (8 found)
0x40351c: retn 0x014D ; (12 found)
0x45c895: retn 0x017E ; (3 found)
0x4049d2: retn 0x01A8 ; (1 found)
0x418e3d: retn 0x01B8 ; (2 found)
0x4aaf2a: retn 0x01BA ; (1 found)
0x47542b: retn 0x0200 ; (1 found)
0x4018ca: retn 0x0231 ; (1 found)
0x4b8502: retn 0x0240 ; (1 found)
0x42a2d5: retn 0x02A8 ; (2 found)
0x485526: retn 0x02BE ; (1 found)
0x4be8da: retn 0x0339 ; (1 found)
0x40fd14: retn 0x0348 ; (3 found)
0x42587c: retn 0x0349 ; (1 found)
0x4a9b32: retn 0x0373 ; (1 found)
0x48a139: retn 0x0377 ; (1 found)
0x42250b: retn 0x0389 ; (2 found)
0x4b0a1a: retn 0x0418 ; (1 found)
0x4b4612: retn 0x0445 ; (1 found)
0x4a5796: retn 0x04B6 ; (1 found)
0x4aae52: retn 0x04E0 ; (1 found)
0x4b84fa: retn 0x0530 ; (1 found)
0x481fba: retn 0x054E ; (1 found)
0x46695f: retn 0x0589 ; (2 found)
0x403d08: retn 0x058B ; (1 found)
0x46ccaa: retn 0x05AB ; (1 found)
0x41b120: retn 0x05B8 ; (1 found)
0x479b53: retn 0x05C9 ; (1 found)
0x46866d: retn 0x05EA ; (1 found)
0x49d7a8: retn 0x0676 ; (4 found)
0x41901a: retn 0x06AF ; (1 found)
0x458936: retn 0x06D0 ; (1 found)
0x45a84d: retn 0x076B ; (1 found)
0x4a21cb: retn 0x0774 ; (1 found)
0x4b3eb8: retn 0x0790 ; (1 found)
0x46f540: retn 0x0876 ; (2 found)
0x4a4184: retn 0x08A8 ; (1 found)
0x4655da: retn 0x0936 ; (1 found)
0x4815b8: retn 0x0941 ; (1 found)
0x47cfaa: retn 0x0948 ; (1 found)
0x448dc8: retn 0x094C ; (1 found)
0x4b593c: retn 0x0974 ; (1 found)
0x42939a: retn 0x09B2 ; (1 found)
0x459f06: retn 0x09E5 ; (1 found)
0x4afeb7: retn 0x09EB ; (1 found)
0x427ac2: retn 0x0A7E ; (1 found)
0x462752: retn 0x0ABE ; (2 found)
0x42b03a: retn 0x0C68 ; (1 found)
0x4a9f68: retn 0x0C74 ; (1 found)
0x49e871: retn 0x0C75 ; (1 found)
0x408083: retn 0x0C8B ; (1 found)
0x427df9: retn 0x0C9A ; (1 found)
0x4237d2: retn 0x0D0B ; (1 found)
0x4af124: retn 0x0D8B ; (1 found)
0x45fe1c: retn 0x0DEB ; (2 found)
0x4af043: retn 0x0E7F ; (1 found)
0x4afcc8: retn 0x0F00 ; (1 found)
0x403a96: retn 0x0F01 ; (12 found)
0x404716: retn 0x0F02 ; (7 found)
0x41a46b: retn 0x0F03 ; (2 found)
0x4300a7: retn 0x0F04 ; (4 found)
0x48eaf9: retn 0x0F0C ; (1 found)
0x4286e5: retn 0x0F0F ; (2 found)
0x42d4b2: retn 0x0F10 ; (244 found)
0x40c455: retn 0x0F11 ; (1 found)
0x404b9d: retn 0x0F20 ; (2 found)
0x401246: retn 0x0F2C ; (1 found)
0x44ff19: retn 0x0F40 ; (15 found)
0x41aef9: retn 0x0F41 ; (9 found)
0x45abac: retn 0x0F44 ; (5 found)
0x45a972: retn 0x0F47 ; (1 found)
0x41b237: retn 0x0F48 ; (12 found)
0x460c0f: retn 0x0F49 ; (1 found)
0x40401e: retn 0x0F4D ; (4 found)
0x403e42: retn 0x0F4F ; (1 found)
0x484b29: retn 0x0F50 ; (2 found)
0x409d56: retn 0x0F66 ; (71 found)
0x423f37: retn 0x0F8B ; (1 found)
0x4506e7: retn 0x0FC0 ; (2 found)
0x42c071: retn 0x0FC3 ; (38 found)
0x43ccd0: retn 0x0FF2 ; (4 found)
0x42e87a: retn 0x0FF3 ; (9 found)
0x40bd43: retn 0x110F ; (8 found)
0x480dac: retn 0x114D ; (2 found)
0x40c7e9: retn 0x13EB ; (2 found)
0x494cc8: retn 0x1576 ; (4 found)
0x4b495b: retn 0x160F ; (1 found)
0x46ca4c: retn 0x1676 ; (1 found)
0x493d76: retn 0x1774 ; (1 found)
0x46d8f9: retn 0x1776 ; (4 found)
0x440bd0: retn 0x180F ; (1 found)
0x494a95: retn 0x1876 ; (1 found)
0x417c5c: retn 0x19E9 ; (2 found)
0x49fee4: retn 0x1A76 ; (1 found)
0x47d969: retn 0x1B74 ; (1 found)
0x49da72: retn 0x1C76 ; (1 found)
0x4a1efe: retn 0x1CE8 ; (1 found)
0x45f93f: retn 0x1E74 ; (1 found)
0x49f6ec: retn 0x1F0F ; (1 found)
0x4a01ef: retn 0x1F76 ; (1 found)
0x478d41: retn 0x2040 ; (4 found)
0x4b76ed: retn 0x2044 ; (1 found)
0x4a7af7: retn 0x2074 ; (1 found)
0x429f02: retn 0x2148 ; (5 found)
0x47023b: retn 0x2174 ; (2 found)
0x40af9c: retn 0x2274 ; (1 found)
0x4a96b0: retn 0x2275 ; (1 found)
0x49d78c: retn 0x2276 ; (1 found)
0x449d38: retn 0x2288 ; (2 found)
0x4b2dca: retn 0x2376 ; (1 found)
0x470d42: retn 0x2476 ; (1 found)
0x40697c: retn 0x2548 ; (22 found)
0x4b34a5: retn 0x25E8 ; (1 found)
0x4493a6: retn 0x2774 ; (2 found)
0x437166: retn 0x280F ; (34 found)
0x494a85: retn 0x2876 ; (1 found)
0x4a06b5: retn 0x287F ; (1 found)
0x4a038f: retn 0x28F5 ; (7 found)
0x48477e: retn 0x290F ; (3 found)
0x449b67: retn 0x2920 ; (6 found)
0x4868dd: retn 0x2941 ; (1 found)
0x45a928: retn 0x2944 ; (2 found)
0x45ab72: retn 0x2945 ; (1 found)
0x41d179: retn 0x2948 ; (3 found)
0x4161fb: retn 0x2949 ; (4 found)
0x41c918: retn 0x294C ; (14 found)
0x49e854: retn 0x2975 ; (1 found)
0x46b9fb: retn 0x29E9 ; (1 found)
0x41cbdd: retn 0x2B48 ; (4 found)
0x4aff63: retn 0x2B49 ; (1 found)
0x48f385: retn 0x2E66 ; (1 found)
0x403072: retn 0x3145 ; (7 found)
0x4a6cc3: retn 0x314C ; (1 found)
0x40909b: retn 0x3325 ; (1 found)
0x47dabe: retn 0x3489 ; (1 found)
0x47240f: retn 0x3673 ; (1 found)
0x46f512: retn 0x3676 ; (2 found)
0x4a0da2: retn 0x3840 ; (3 found)
0x494a75: retn 0x3876 ; (1 found)
0x40d33b: retn 0x3948 ; (30 found)
0x4244cb: retn 0x3949 ; (8 found)
0x45a6b8: retn 0x394C ; (6 found)
0x41645d: retn 0x394D ; (4 found)
0x44fa12: retn 0x3A01 ; (3 found)
0x40307d: retn 0x3A77 ; (1 found)
0x45c3ca: retn 0x3AE9 ; (1 found)
0x426301: retn 0x3B48 ; (1 found)
0x40f430: retn 0x3C01 ; (1 found)
0x4bd039: retn 0x3C74 ; (1 found)
0x493401: retn 0x3C75 ; (1 found)
0x4ad520: retn 0x3D72 ; (1 found)
0x429b08: retn 0x3D74 ; (1 found)
0x45ffaa: retn 0x4000 ; (1 found)
0x40b04d: retn 0x4001 ; (5 found)
0x46ca22: retn 0x4076 ; (1 found)
0x49e023: retn 0x408D ; (1 found)
0x4696cf: retn 0x4101 ; (21 found)
0x4a395b: retn 0x4102 ; (1 found)
0x403f24: retn 0x4104 ; (4 found)
0x46568e: retn 0x4110 ; (5 found)
0x45d2d2: retn 0x4130 ; (2 found)
0x46928f: retn 0x4166 ; (1 found)
0x40d114: retn 0x4174 ; (1 found)
0x45a6dd: retn 0x4189 ; (1 found)
0x402fb6: retn 0x41C3 ; (1 found)
0x42e94a: retn 0x4266 ; (2 found)
0x46d8ce: retn 0x4276 ; (3 found)
0x45af80: retn 0x4389 ; (3 found)
0x4838e0: retn 0x4402 ; (1 found)
0x4705ba: retn 0x4408 ; (4 found)
0x468250: retn 0x440F ; (1 found)
0x478f5f: retn 0x4418 ; (1 found)
0x47bdaf: retn 0x4435 ; (1 found)
0x4298a1: retn 0x4473 ; (1 found)
0x41913c: retn 0x448B ; (2 found)
0x41e3c6: retn 0x44E8 ; (1 found)
0x45777a: retn 0x4501 ; (1 found)
0x42171f: retn 0x458B ; (1 found)
0x4afc5f: retn 0x45C6 ; (1 found)
0x45c1b7: retn 0x45C7 ; (1 found)
0x49e837: retn 0x4675 ; (1 found)
0x4a3926: retn 0x4776 ; (1 found)
0x486e53: retn 0x47E8 ; (1 found)
0x4075a9: retn 0x4801 ; (36 found)
0x4148e7: retn 0x4802 ; (4 found)
0x489c14: retn 0x4803 ; (2 found)
0x4895c1: retn 0x4804 ; (3 found)
0x40137e: retn 0x4808 ; (41 found)
0x401372: retn 0x4810 ; (17 found)
0x4722f6: retn 0x4811 ; (2 found)
0x458372: retn 0x4817 ; (1 found)
0x45f905: retn 0x4820 ; (1 found)
0x414dcd: retn 0x4830 ; (2 found)
0x4a3989: retn 0x4838 ; (1 found)
0x42e856: retn 0x4840 ; (1 found)
0x4038b2: retn 0x4853 ; (1 found)
0x46cac0: retn 0x4858 ; (1 found)
0x423ac3: retn 0x4860 ; (1 found)
0x4872b3: retn 0x4864 ; (1 found)
0x424870: retn 0x4866 ; (6 found)
0x43552b: retn 0x4880 ; (2 found)
0x4490fc: retn 0x48C3 ; (2 found)
0x419ef0: retn 0x48E9 ; (2 found)
0x4094cc: retn 0x4901 ; (15 found)
0x46a0bc: retn 0x4902 ; (2 found)
0x45f52a: retn 0x4908 ; (4 found)
0x43328c: retn 0x4910 ; (75 found)
0x472ca7: retn 0x4911 ; (1 found)
0x4b4fe4: retn 0x4918 ; (1 found)
0x4210de: retn 0x4A8D ; (1 found)
0x46ec29: retn 0x4B01 ; (1 found)
0x45da56: retn 0x4C01 ; (3 found)
0x43456e: retn 0x4C04 ; (3 found)
0x415ae6: retn 0x4C08 ; (4 found)
0x4340e6: retn 0x4C20 ; (3 found)
0x41594f: retn 0x4C40 ; (5 found)
0x434126: retn 0x4C60 ; (3 found)
0x485847: retn 0x4D74 ; (1 found)
0x4bd70c: retn 0x4EE8 ; (1 found)
0x48f6b6: retn 0x4F8D ; (1 found)
0x47fd0a: retn 0x50E8 ; (1 found)
0x4a0354: retn 0x5180 ; (1 found)
0x403a86: retn 0x518D ; (1 found)
0x40dd68: retn 0x5372 ; (1 found)
0x402fac: retn 0x538D ; (1 found)
0x4a1e07: retn 0x53E8 ; (1 found)
0x4a6781: retn 0x5441 ; (1 found)
0x460ab2: retn 0x5488 ; (1 found)
0x40be9f: retn 0x55BF ; (1 found)
0x4a90c4: retn 0x56E8 ; (1 found)
0x40315c: retn 0x58E9 ; (1 found)
0x4588f7: retn 0x5941 ; (1 found)
0x46da48: retn 0x5A58 ; (1 found)
0x494c80: retn 0x5D76 ; (2 found)
0x4358f2: retn 0x5D77 ; (1 found)
0x455d52: retn 0x6200 ; (10 found)
0x4551c1: retn 0x6280 ; (2 found)
0x48b4ef: retn 0x6348 ; (2 found)
0x45a5e7: retn 0x634C ; (1 found)
0x49e81a: retn 0x6375 ; (1 found)
0x424563: retn 0x63E9 ; (1 found)
0x472c7e: retn 0x6411 ; (1 found)
0x48dc55: retn 0x6604 ; (1 found)
0x49e341: retn 0x6608 ; (2 found)
0x494a01: retn 0x6620 ; (1 found)
0x42b5cb: retn 0x66C3 ; (62 found)
0x4598e3: retn 0x6948 ; (4 found)
0x45a57c: retn 0x694D ; (5 found)
0x42530c: retn 0x6974 ; (1 found)
0x49e613: retn 0x6A76 ; (2 found)
0x40bee1: retn 0x6AE9 ; (1 found)
0x4ae7ac: retn 0x6CE9 ; (1 found)
0x458360: retn 0x6DE9 ; (1 found)
0x45dfda: retn 0x6EB8 ; (1 found)
0x4655f4: retn 0x7400 ; (1 found)
0x42b0e0: retn 0x7402 ; (3 found)
0x465be3: retn 0x7404 ; (2 found)
0x490f25: retn 0x7408 ; (1 found)
0x41ece1: retn 0x7420 ; (7 found)
0x484b45: retn 0x7440 ; (1 found)
0x425330: retn 0x7501 ; (7 found)
0x425328: retn 0x7502 ; (9 found)
0x41b01a: retn 0x7504 ; (3 found)
0x44f3b4: retn 0x7508 ; (1 found)
0x44df4b: retn 0x7510 ; (2 found)
0x42cd8a: retn 0x7520 ; (5 found)
0x44df65: retn 0x7540 ; (5 found)
0x4a9be5: retn 0x75E8 ; (1 found)
0x428df6: retn 0x75E9 ; (1 found)
0x4a1ea1: retn 0x79E8 ; (1 found)
0x45da09: retn 0x7A8D ; (1 found)
0x49e2e1: retn 0x7E08 ; (3 found)
0x4949a1: retn 0x7E20 ; (7 found)
0x42d4fc: retn 0x7F10 ; (150 found)
0x42e6d9: retn 0x8000 ; (8 found)
0x4af5bb: retn 0x8001 ; (1 found)
0x42ffa5: retn 0x8101 ; (6 found)
0x403fec: retn 0x8141 ; (4 found)
0x42027f: retn 0x8148 ; (3 found)
0x484dc4: retn 0x8149 ; (1 found)
0x4bc6c1: retn 0x8166 ; (1 found)
0x4b217e: retn 0x8190 ; (1 found)
0x42d27d: retn 0x81C3 ; (6 found)
0x4a9195: retn 0x81E9 ; (1 found)
0x40e23d: retn 0x820F ; (4 found)
0x402fa5: retn 0x8301 ; (5 found)
0x41985f: retn 0x8302 ; (1 found)
0x48eb04: retn 0x8304 ; (1 found)
0x430075: retn 0x8308 ; (6 found)
0x440782: retn 0x830F ; (4 found)
0x430040: retn 0x8310 ; (10 found)
0x430012: retn 0x8320 ; (6 found)
0x41abdb: retn 0x8341 ; (13 found)
0x40c360: retn 0x8348 ; (55 found)
0x48bab2: retn 0x8349 ; (2 found)
0x4a9f8a: retn 0x8364 ; (1 found)
0x41015c: retn 0x83E9 ; (1 found)
0x408a46: retn 0x8401 ; (7 found)
0x4894f6: retn 0x8404 ; (1 found)
0x424f48: retn 0x840F ; (17 found)
0x4b9b6d: retn 0x8440 ; (1 found)
0x4b7f57: retn 0x8441 ; (1 found)
0x4aa0fb: retn 0x8445 ; (1 found)
0x41ade5: retn 0x8501 ; (2 found)
0x4148ef: retn 0x850F ; (19 found)
0x421875: retn 0x8548 ; (9 found)
0x47dcf0: retn 0x854D ; (1 found)
0x402a88: retn 0x858B ; (1 found)
0x42c0ed: retn 0x85C3 ; (6 found)
0x485f50: retn 0x85C7 ; (2 found)
0x4054f8: retn 0x860F ; (8 found)
0x47cf34: retn 0x86E9 ; (1 found)
0x42218c: retn 0x870F ; (7 found)
0x4af611: retn 0x87F6 ; (2 found)
0x409531: retn 0x8801 ; (2 found)
0x40c838: retn 0x8840 ; (1 found)
0x405ee0: retn 0x8901 ; (5 found)
0x48f4a1: retn 0x8904 ; (1 found)
0x41a55b: retn 0x8908 ; (2 found)
0x45a901: retn 0x8941 ; (8 found)
0x45c91a: retn 0x8944 ; (9 found)
0x41b3d2: retn 0x8945 ; (2 found)
0x40473e: retn 0x8948 ; (89 found)
0x40c0cb: retn 0x8949 ; (13 found)
0x404fc1: retn 0x894C ; (33 found)
0x4280f1: retn 0x894D ; (3 found)
0x47fe4b: retn 0x894E ; (1 found)
0x427ab9: retn 0x8B01 ; (1 found)
0x4634a7: retn 0x8B05 ; (1 found)
0x4074cb: retn 0x8B41 ; (3 found)
0x48b991: retn 0x8B42 ; (1 found)
0x401c78: retn 0x8B48 ; (38 found)
0x4a7a2d: retn 0x8B49 ; (3 found)
0x47fdd2: retn 0x8B4A ; (2 found)
0x406aeb: retn 0x8B4C ; (18 found)
0x48ea84: retn 0x8D04 ; (1 found)
0x470615: retn 0x8D08 ; (2 found)
0x46e260: retn 0x8D0F ; (4 found)
0x413522: retn 0x8D41 ; (2 found)
0x45a93f: retn 0x8D44 ; (1 found)
0x45abb8: retn 0x8D45 ; (2 found)
0x46b4dc: retn 0x8D47 ; (1 found)
0x401e99: retn 0x8D48 ; (157 found)
0x42a361: retn 0x8D49 ; (5 found)
0x47d5f8: retn 0x8D4A ; (4 found)
0x4869c3: retn 0x8D4B ; (1 found)
0x428813: retn 0x8D4C ; (5 found)
0x475f8b: retn 0x8E0F ; (1 found)
0x47f579: retn 0x8F74 ; (1 found)
0x4a0725: retn 0x907E ; (1 found)
0x47f4ae: retn 0x9274 ; (1 found)
0x40fcc8: retn 0x9575 ; (1 found)
0x4a05fb: retn 0x960F ; (1 found)
0x4165a2: retn 0x9D89 ; (1 found)
0x4bcdb8: retn 0xA2E8 ; (1 found)
0x4096be: retn 0xA801 ; (1 found)
0x46f4ae: retn 0xA8EB ; (1 found)
0x4652e1: retn 0xA9E8 ; (1 found)
0x42882d: retn 0xB0EB ; (1 found)
0x428f09: retn 0xB48B ; (2 found)
0x459938: retn 0xB60F ; (10 found)
0x459c26: retn 0xB70F ; (5 found)
0x4297a9: retn 0xB817 ; (1 found)
0x4a05ea: retn 0xB848 ; (1 found)
0x459753: retn 0xB850 ; (5 found)
0x4a91b4: retn 0xB8EB ; (1 found)
0x4a4440: retn 0xBA41 ; (1 found)
0x4656dd: retn 0xBB10 ; (1 found)
0x4ba1a5: retn 0xBC80 ; (1 found)
0x4bd39e: retn 0xBCE8 ; (1 found)
0x465666: retn 0xBD10 ; (1 found)
0x426d8d: retn 0xBD41 ; (1 found)
0x4a3967: retn 0xBF77 ; (1 found)
0x45ff61: retn 0xBF98 ; (1 found)
0x42e599: retn 0xC000 ; (8 found)
0x48124f: retn 0xC001 ; (1 found)
0x40366b: retn 0xC031 ; (9 found)
0x40d10c: retn 0xC083 ; (59 found)
0x4186f3: retn 0xC085 ; (44 found)
0x434d59: retn 0xC0FF ; (6 found)
0x402f42: retn 0xC148 ; (73 found)
0x470def: retn 0xC1E9 ; (1 found)
0x4785dc: retn 0xC220 ; (4 found)
0x425240: retn 0xC231 ; (1 found)
0x459751: retn 0xC281 ; (7 found)
0x424a68: retn 0xC372 ; (1 found)
0x40eb7c: retn 0xC389 ; (1 found)
0x4a9b89: retn 0xC475 ; (1 found)
0x482eb9: retn 0xC4EB ; (1 found)
0x455865: retn 0xC500 ; (11 found)
0x424a03: retn 0xC572 ; (1 found)
0x450e19: retn 0xC580 ; (4 found)
0x465513: retn 0xC600 ; (1 found)
0x40969f: retn 0xC602 ; (1 found)
0x46577e: retn 0xC610 ; (3 found)
0x4a06ef: retn 0xC67E ; (1 found)
0x48a6fc: retn 0xC689 ; (1 found)
0x44a094: retn 0xC748 ; (2 found)
0x45ca1b: retn 0xC801 ; (10 found)
0x4ad08b: retn 0xC829 ; (1 found)
0x4224fd: retn 0xC883 ; (2 found)
0x4351ba: retn 0xC919 ; (4 found)
0x426054: retn 0xC931 ; (4 found)
0x425314: retn 0xC983 ; (1 found)
0x42ccda: retn 0xC985 ; (2 found)
0x449c85: retn 0xC9FF ; (2 found)
0x48eb69: retn 0xCA08 ; (1 found)
0x42508b: retn 0xCA83 ; (3 found)
0x426fe9: retn 0xCAC1 ; (1 found)
0x4bd06e: retn 0xCB75 ; (1 found)
0x4088bb: retn 0xCE80 ; (3 found)
0x4b17b8: retn 0xCE89 ; (1 found)
0x460157: retn 0xCFE9 ; (2 found)
0x41ba98: retn 0xD008 ; (4 found)
0x4090ab: retn 0xD089 ; (2 found)
0x472e20: retn 0xD108 ; (1 found)
0x493d02: retn 0xD148 ; (1 found)
0x45d468: retn 0xD189 ; (1 found)
0x4ae722: retn 0xD1B8 ; (1 found)
0x4505e7: retn 0xD1F7 ; (5 found)
0x481336: retn 0xD348 ; (4 found)
0x4b7f10: retn 0xD349 ; (2 found)
0x46d0bd: retn 0xD3E9 ; (1 found)
0x4be285: retn 0xD5E8 ; (1 found)
0x40ea8a: retn 0xD629 ; (2 found)
0x404d53: retn 0xD689 ; (1 found)
0x4112cf: retn 0xD729 ; (4 found)
0x45c89c: retn 0xD789 ; (1 found)
0x4b78fd: retn 0xD8E9 ; (1 found)
0x46114a: retn 0xD8F7 ; (1 found)
0x403a8c: retn 0xDA89 ; (1 found)
0x4935cc: retn 0xDAF7 ; (1 found)
0x4b8593: retn 0xDB31 ; (1 found)
0x4a558d: retn 0xDBEB ; (1 found)
0x4af79c: retn 0xDE89 ; (1 found)
0x42e459: retn 0xE000 ; (8 found)
0x44df0d: retn 0xE074 ; (1 found)
0x4295a9: retn 0xE083 ; (6 found)
0x4bc01a: retn 0xE0E8 ; (1 found)
0x4b66c2: retn 0xE0E9 ; (1 found)
0x403fa5: retn 0xE281 ; (9 found)
0x402e9b: retn 0xE283 ; (41 found)
0x4bf551: retn 0xE3A0 ; (1 found)
0x466789: retn 0xE480 ; (2 found)
0x486c98: retn 0xE57F ; (1 found)
0x48a738: retn 0xE783 ; (6 found)
0x40901e: retn 0xE801 ; (1 found)
0x41b3f5: retn 0xE883 ; (2 found)
0x429644: retn 0xE8F0 ; (2 found)
0x4941bb: retn 0xE901 ; (2 found)
0x449d26: retn 0xE908 ; (2 found)
0x4454e6: retn 0xE910 ; (60 found)
0x42c5ec: retn 0xE975 ; (1 found)
0x486f76: retn 0xE9F8 ; (2 found)
0x484704: retn 0xEAC0 ; (1 found)
0x40330a: retn 0xEAC1 ; (7 found)
0x41af39: retn 0xEB01 ; (2 found)
0x4afc80: retn 0xEB08 ; (2 found)
0x4332ba: retn 0xEB10 ; (15 found)
0x427032: retn 0xEB75 ; (1 found)
0x403a9a: retn 0xEBE9 ; (1 found)
0x40ba81: retn 0xEC75 ; (2 found)
0x4bf5f2: retn 0xEDA0 ; (1 found)
0x4bf577: retn 0xEE20 ; (1 found)
0x422bd7: retn 0xEE75 ; (2 found)
0x4a9187: retn 0xEE7C ; (1 found)
0x415af1: retn 0xEF72 ; (2 found)
0x4bf5a0: retn 0xEFE0 ; (1 found)
0x42e319: retn 0xF000 ; (8 found)
0x40ccc0: retn 0xF039 ; (1 found)
0x4bf5c9: retn 0xF060 ; (1 found)
0x41e135: retn 0xF075 ; (1 found)
0x48be25: retn 0xF1E9 ; (1 found)
0x42501b: retn 0xF283 ; (3 found)
0x424f92: retn 0xF289 ; (1 found)
0x42319e: retn 0xF390 ; (1 found)
0x4940d1: retn 0xF475 ; (1 found)
0x4b9df2: retn 0xF47B ; (1 found)
0x4bf61b: retn 0xF5A0 ; (1 found)
0x42fede: retn 0xF5C5 ; (4 found)
0x4bf644: retn 0xF600 ; (1 found)
0x4b0122: retn 0xF631 ; (1 found)
0x4b239e: retn 0xF641 ; (1 found)
0x4bf66d: retn 0xF680 ; (1 found)
0x4beeda: retn 0xF6AF ; (1 found)
0x4be9da: retn 0xF6B4 ; (1 found)
0x4580fa: retn 0xF70B ; (1 found)
0x468236: retn 0xF739 ; (1 found)
0x4bf696: retn 0xF740 ; (1 found)
0x41d330: retn 0xF748 ; (9 found)
0x4556a3: retn 0xF77A ; (6 found)
0x4bf6bf: retn 0xF7C0 ; (1 found)
0x42e1d9: retn 0xF800 ; (9 found)
0x4bf6e8: retn 0xF820 ; (1 found)
0x40c780: retn 0xF839 ; (1 found)
0x45b8df: retn 0xF883 ; (4 found)
0x4bf528: retn 0xF8E0 ; (1 found)
0x48fc0a: retn 0xF928 ; (1 found)
0x4036e5: retn 0xF981 ; (2 found)
0x46877a: retn 0xF9D3 ; (1 found)
0x45c17a: retn 0xFA4F ; (1 found)
0x4af82a: retn 0xFB5A ; (1 found)
0x4adc4a: retn 0xFB77 ; (1 found)
0x454a80: retn 0xFBC5 ; (3 found)
0x42e099: retn 0xFC00 ; (8 found)
0x45b91a: retn 0xFC69 ; (1 found)
0x48a14a: retn 0xFD95 ; (1 found)
0x483f4a: retn 0xFDF7 ; (1 found)
0x42df59: retn 0xFE00 ; (8 found)
0x41e79a: retn 0xFE28 ; (1 found)
0x4128d3: retn 0xFEED ; (1 found)
0x42de19: retn 0xFF00 ; (10 found)
0x43509f: retn 0xFF2D ; (8 found)
0x4bac8d: retn 0xFF3E ; (1 found)
0x415939: retn 0xFF80 ; (11 found)
0x4651c0: retn 0xFF85 ; (2 found)
0x4070da: retn 0xFFA0 ; (76 found)
0x420b26: retn 0xFFB8 ; (1 found)
0x47cb53: retn 0xFFBF ; (1 found)
0x42db99: retn 0xFFC0 ; (8 found)
0x41139c: retn 0xFFCC ; (2 found)
0x42da59: retn 0xFFE0 ; (12 found)
0x40235a: retn 0xFFED ; (1 found)
0x47bceb: retn 0xFFEE ; (1 found)
0x410fd5: retn 0xFFEF ; (2 found)
0x40b520: retn 0xFFF0 ; (10 found)
0x417102: retn 0xFFF1 ; (1 found)
0x4a4898: retn 0xFFF2 ; (1 found)
0x45daca: retn 0xFFF3 ; (1 found)
0x4bb52a: retn 0xFFF5 ; (1 found)
0x4bd92a: retn 0xFFF6 ; (2 found)
0x472a1a: retn 0xFFF7 ; (2 found)
0x42d7d9: retn 0xFFF8 ; (14 found)
0x4a9a0a: retn 0xFFFA ; (1 found)
0x45878d: retn 0xFFFB ; (2 found)
0x41729a: retn 0xFFFC ; (10 found)
0x48092b: retn 0xFFFD ; (2 found)
0x40dba6: retn 0xFFFE ; (18 found)
0x41c656: retn 0xFFFF ; (33 found)
0x49ed1c: rol  [rax+0x1E740FE1], 1 ; ret ; (1 found)
0x494a24: rol  [rbp+0x315775C0], 0xFFFFFFC0 ; ret ; (1 found)
0x49e364: rol  [rbp+0x316775C0], 0xFFFFFFC0 ; ret ; (1 found)
0x4494a4: rol  [rbp-0x0CA88B40], 0x0F ; mov esp, 0x77F8C5C0 ; ret ; (1 found)
0x494c93: rol  [rbp-0x3AA78A40], 0xFFFFFFFD ; xlatb ; retn 0xC085 ; (4 found)
0x4348cf: rol  [rbp-0x3AD38A40], 0xFFFFFFFD ; xlatb ; retn 0xC085 ; (2 found)
0x4697d3: rol  [rcx+0x0F], 0x11 ; add al, ch ; ret ; (1 found)
0x403f20: rol  [rcx+rcx*2], 0xFFFFFF83 ; retn 0x4104 ; (1 found)
0x4b88c9: rol  [rcx-0x0A], cl ; ret ; (1 found)
0x46ddae: rol  [rdx+rdx*8-0x157E2A87], 1 ; retn 0x0000 ; (1 found)
0x463776: rol ax, 0x0008 ; ret ; (1 found)
0x44fad5: rol bl, 0x48 ; mov eax, edi ; ret ; (1 found)
0x49e33e: rol bl, 0x83 ; retn 0x6608 ; (1 found)
0x4949fe: rol bl, 0x83 ; retn 0x6620 ; (1 found)
0x423b0f: rol bl, 1 ; mov eax, 0xFFFFFFFF ; ret ; (2 found)
0x434a1e: rol bl, 1 ; xor eax, eax ; ret ; (1 found)
0x4736f2: rol byte [0xFFFFFFFF898F36F8], cl ; retn 0x294C ; (1 found)
0x4bf54a: rol byte [rax+0x48FFFFFF], 0xC7 ; retn 0xE3A0 ; (1 found)
0x42e852: rol byte [rax+0x48], 0x83 ; retn 0x4840 ; (1 found)
0x4493a2: rol byte [rax+0x49], 0x39 ; retn 0x2774 ; (2 found)
0x471eb0: rol byte [rax+rcx*2], 0x83 ; ret ; (1 found)
0x48f6c1: rol byte [rax+rcx*2], 0x89 ; retn 0x8348 ; (1 found)
0x46590e: rol byte [rax-0x6AF0FFC8], cl ; retn 0x8348 ; (1 found)
0x46604a: rol byte [rax-0x6AF0FFC8], cl ; retn 0x8D48 ; (1 found)
0x466029: rol byte [rax-0x6BF0FFC8], cl ; retn 0x8D48 ; (2 found)
0x41f26c: rol byte [rax], 0x00 ; add byte [rbp+0x4F0F48C9], al ; retn 0x8948 ; (2 found)
0x465bde: rol byte [rax], 0x00 ; add dh, dh ; retn 0x7404 ; (2 found)
0x4a0ca1: rol byte [rax], 1 ; add byte [rax], al ; call r12 ; (1 found)
0x454a85: rol byte [rbp+0x622675C0], 0xB2 ; and byte [gs:rsi], ah ; ret ; (1 found)
0x434732: rol byte [rbp+0x664975C0], 0x0F ; xlatb ; retn 0xC085 ; (1 found)
0x455f1e: rol byte [rbp-0x0C828B40], 0x0F ; mov esp, 0xF80148C0 ; ret ; (1 found)
0x455682: rol byte [rbp-0x0C868B40], 0x0F ; mov esp, 0xF80148C0 ; ret ; (2 found)
0x4556a6: rol byte [rbp-0x0CA68B40], 0x0F ; mov esp, 0xC80148C0 ; ret ; (2 found)
0x4a0235: rol byte [rbp-0x3AC98A40], 0xFB ; xchg eax, ebx ; retn 0xC085 ; (1 found)
0x457708: rol byte [rbp-0x3ACC8A40], 0xFB ; xchg eax, ebx ; retn 0xC085 ; (1 found)
0x49dab2: rol byte [rbp-0x3AD68A40], 0xFB ; xchg eax, ebx ; retn 0xC085 ; (1 found)
0x47f667: rol byte [rbx-0x177CFD20], 0x01 ; ret ; (1 found)
0x49ed92: rol byte [rbx], 0x00 ; add byte [rax], al ; ret ; (1 found)
0x45a92b: rol byte [rcx-0x77], cl ; ror byte [rbp+0x0F440752], 1 ; retn 0xB70F ; (1 found)
0x49ed72: rol byte [rcx], 0x00 ; add byte [rax], al ; ret ; (1 found)
0x403a82: rol byte [rcx], 0x0F ; scasd ; retn 0x518D ; (1 found)
0x402fa8: rol byte [rcx], 0x0F ; scasd ; retn 0x538D ; (1 found)
0x49edd2: rol byte [rdi], 0x00 ; add byte [rax], al ; ret ; (1 found)
0x49ed82: rol byte [rdx], 0x00 ; add byte [rax], al ; ret ; (1 found)
0x4b241e: rol byte [rdx], 0x00 ; add byte [rcx+0x248B4CE8], cl ; retn 0x0F41 ; (1 found)
0x41b11d: rol byte [rdx], 0xEB ; retn 0x05B8 ; (1 found)
0x49edc2: rol byte [rsi], 0x00 ; add byte [rax], al ; ret ; (1 found)
0x463777: rol eax, 0x08 ; ret ; (1 found)
0x4261e7: ror  [rax+0x21], cl ; ret ; (1 found)
0x402912: ror  [rax+0x29], cl ; ret ; (1 found)
0x4a50e6: ror  [rax+0x39], 1 ; retn 0x0F48 ; (2 found)
0x45de35: ror  [rax+0x39], 1 ; retn 0x830F ; (1 found)
0x4815bb: ror  [rax-0x39], 1 ; retn 0xFFFF ; (1 found)
0x481fb6: ror  [rax-0x73], 0x3D ; retn 0x054E ; (1 found)
0x465a7c: ror  [rax-0x75], 0x42 ; adc byte [rax-0x7D], cl ; retn 0x4810 ; (2 found)
0x4b8fe0: ror  [rax-0x77], 1 ; retn 0xC148 ; (1 found)
0x40b04a: ror  [rax-0x7D], 1 ; retn 0x4001 ; (1 found)
0x4075a6: ror  [rax-0x7D], 1 ; retn 0x4801 ; (1 found)
0x4340e3: ror  [rax-0x7D], 1 ; retn 0x4C20 ; (3 found)
0x434103: ror  [rax-0x7D], 1 ; retn 0x4C40 ; (3 found)
0x434123: ror  [rax-0x7D], 1 ; retn 0x4C60 ; (3 found)
0x48dc65: ror  [rax-0x7D], cl ; retn 0x4104 ; (1 found)
0x4af5b8: ror  [rax], 0xFFFFFF83 ; retn 0x8001 ; (1 found)
0x4b8702: ror  [rcx+0x09], cl ; ret ; (2 found)
0x41c31a: ror  [rcx+rcx*4-0x12], cl ; mov rdi, r15 ; call qword [rbp+0x38] ; (2 found)
0x4030b9: ror  [rcx+rcx*4-0x40], 0x5B ; ret ; (1 found)
0x4926d0: ror  [rcx-0x4EF00F30], 0x4D ; add byte [rsi+rdi-0x77], dh ; retn 0x48E9 ; (1 found)
0x4b8cb7: ror  [rcx-0x77], 1 ; ret ; (1 found)
0x4b8743: ror  [rcx-0x77], cl ; ret ; (2 found)
0x45b46d: ror  [rcx], 1 ; add byte [rax-0x77], cl ; retn 0x850F ; (1 found)
0x44df0b: ror  [rcx], cl ; retn 0xE074 ; (1 found)
0x433144: ror  [rdi-0x73], 0x14 ; or bh, byte [rsi] ; jmp r10 ; (5 found)
0x42234e: ror  [rdi], 0x11 ; adc byte [r8+0x39], r9L ; retn 0x870F ; (1 found)
0x422185: ror  [rdi], 0x11 ; or byte [r8+0x39], r9L ; retn 0x870F ; (1 found)
0x46497b: ror  [rdi], 0x1F ; add byte [rax-0x77], cl ; retn 0x8348 ; (1 found)
0x45d981: ror  [rdi], 0xFFFFFF88 ; retn 0x0005 ; (1 found)
0x4b8598: ror  [rdi], 0xFFFFFF92 ; ret ; (1 found)
0x402fb3: ror  [rdi], 0xFFFFFFAF ; retn 0x41C3 ; (1 found)
0x4b85bb: ror  [rdi], 1 ; xchg eax, edx ; retn 0x0F40 ; (1 found)
0x465839: ror byte [r8-0x75], 1 ; adc byte [rax-0x7D], cl ; retn 0x4810 ; (1 found)
0x4556ae: ror byte [rax+0x01], 0xC8 ; ret ; (2 found)
0x43480c: ror byte [rax+0x01], 0xC8 ; vzeroupper ; ret ; (1 found)
0x456134: ror byte [rax+0x01], 0xD0 ; ret ; (1 found)
0x448bde: ror byte [rax+0x01], 0xD0 ; vzeroupper ; ret ; (1 found)
0x43460c: ror byte [rax+0x01], 0xF8 ; add rax, rcx ; ret ; (1 found)
0x434782: ror byte [rax+0x01], 0xF8 ; ret ; (16 found)
0x4347de: ror byte [rax+0x01], 0xF8 ; vzeroupper ; ret ; (9 found)
0x426fee: ror byte [rax+0x09], 1 ; ret ; (1 found)
0x46babd: ror byte [rax+0x0F], 0x44 ; ret ; (3 found)
0x417c59: ror byte [rax+0x0F], 0x44 ; retn 0x19E9 ; (1 found)
0x45a6ce: ror byte [rax+0x0F], 0x4F ; retn 0x8D48 ; (2 found)
0x402f3e: ror byte [rax+0x0F], 0xAF ; retn 0xC148 ; (1 found)
0x45fe19: ror byte [rax+0x0F], 1 ; retn 0x0DEB ; (1 found)
0x4248ee: ror byte [rax+0x0F], 1 ; retn 0x2B48 ; (1 found)
0x475357: ror byte [rax+0x0F], 1 ; retn 0x3949 ; (1 found)
0x4243ab: ror byte [rax+0x0F], 1 ; retn 0x8949 ; (2 found)
0x475346: ror byte [rax+0x0F], 1 ; retn 0x8B41 ; (1 found)
0x45fdd3: ror byte [rax+0x0F], 1 ; retn 0xC148 ; (1 found)
0x460154: ror byte [rax+0x0F], 1 ; retn 0xCFE9 ; (1 found)
0x457343: ror byte [rax+0x29], 0xD7 ; lea rax, qword [rdi+rax+0x20] ; ret ; (1 found)
0x457353: ror byte [rax+0x29], 0xD7 ; lea rax, qword [rdi+rax+0x40] ; ret ; (1 found)
0x449257: ror byte [rax+0x29], 1 ; clc ; ret ; (3 found)
0x4573b6: ror byte [rax+0x39], 0xC6 ; cmovb eax, esi ; ret ; (2 found)
0x424940: ror byte [rax+0x39], 0xFA ; setnb al ; ret ; (1 found)
0x46b4d2: ror byte [rax+0x39], cl ; ret ; (1 found)
0x4148ec: ror byte [rax+0x39], cl ; retn 0x850F ; (1 found)
0x4161f4: ror byte [rax+0x48004F34], 0x89 ; retn 0x2949 ; (2 found)
0x4bf599: ror byte [rax+0x48FFFFFF], 0xC7 ; retn 0xEFE0 ; (1 found)
0x4ad5cd: ror byte [rax+0x63], cl ; retn 0x8D48 ; (1 found)
0x429187: ror byte [rax+rcx*2], 0x8D ; push rsp ; ret ; (1 found)
0x48178a: ror byte [rax-0x39], cl ; ret ; (1 found)
0x42604a: ror byte [rax-0x39], cl ; retn 0x0000 ; (7 found)
0x434772: ror byte [rax-0x73], 0x44 ; cmp al, dh ; ret ; (3 found)
0x4347a2: ror byte [rax-0x73], 0x44 ; cmp byte [rax], ah ; ret ; (3 found)
0x434792: ror byte [rax-0x73], 0x44 ; cmp byte [rax], dl ; ret ; (3 found)
0x49fdb3: ror byte [rax-0x73], 0x44 ; xchg  [rax], esp ; ret ; (2 found)
0x46583a: ror byte [rax-0x75], 1 ; adc byte [rax-0x7D], cl ; retn 0x4810 ; (1 found)
0x4a1a3f: ror byte [rax-0x77], 0xE2 ; mov eax, 0x00000010 ; syscall ; (1 found)
0x462a9d: ror byte [rax-0x77], 0xE2 ; mov eax, 0x000000CC ; syscall ; (1 found)
0x4588e6: ror byte [rax-0x77], 0xEF ; call rbx ; (1 found)
0x457d23: ror byte [rax-0x77], 0xEF ; lea r9, qword [rsp+0x30] ; call rbx ; (1 found)
0x41d679: ror byte [rax-0x77], 1 ; ret ; (1 found)
0x4a0ba7: ror byte [rax-0x77], 1 ; retn 0xC148 ; (9 found)
0x40b602: ror byte [rax-0x77], 1 ; retn 0xE281 ; (1 found)
0x41f603: ror byte [rax-0x77], cl ; out dx, eax ; call qword [rax+0x00000080] ; (1 found)
0x41f8ed: ror byte [rax-0x77], cl ; out dx, eax ; call qword [rbx+0x00000080] ; (1 found)
0x427df5: ror byte [rax-0x7D], 0x3D ; retn 0x0C9A ; (1 found)
0x46f539: ror byte [rax-0x7D], 0xC0 ; add ecx,  [rax+0x39] ; retn 0x0876 ; (1 found)
0x46ca45: ror byte [rax-0x7D], 0xC0 ; add ecx,  [rax+0x39] ; retn 0x1676 ; (1 found)
0x46d8f2: ror byte [rax-0x7D], 0xC0 ; add ecx,  [rax+0x39] ; retn 0x1776 ; (3 found)
0x42202a: ror byte [rax-0x7D], 0xC4 ; or byte [rbx+0x5D], bl ; ret ; (2 found)
0x4a1927: ror byte [rax-0x7D], 0xC4 ; pop rax ; ret ; (1 found)
0x4217ed: ror byte [rax-0x7D], 0xC4 ; sbb byte [rbx+0x5D], bl ; ret ; (1 found)
0x4675fe: ror byte [rax-0x7D], 1 ; ret ; (2 found)
0x4bc3c5: ror byte [rax], 0x49 ; mov  [rax], edx ; ret ; (2 found)
0x45a92e: ror byte [rbp+0x0F440752], 1 ; retn 0xB70F ; (1 found)
0x4a424f: ror byte [rbp+rcx*4+0x34], 1 ; ret ; (1 found)
0x4afc7d: ror byte [rbp-0x73], 1 ; retn 0xEB08 ; (1 found)
0x460623: ror byte [rbx+0x3108247C], 0xC0 ; syscall ; (1 found)
0x4281f1: ror byte [rbx+rcx*4+0x44], 0x24 ; sbb byte [rax-0x77], cl ; retn 0x850F ; (1 found)
0x489c5c: ror byte [rbx-0x76BF29AC], cl ; adc  [rax+0x39], ecx ; ret ; (1 found)
0x4b2c02: ror byte [rcx+0x04608705], 0x00 ; add rsp, 0x18 ; ret ; (1 found)
0x4ae537: ror byte [rcx+0x0F486611], 0x7E ; retn 0xC148 ; (1 found)
0x464c82: ror byte [rcx+0x0F], 1 ; retn 0x3948 ; (1 found)
0x41b231: ror byte [rcx+0x39482C4B], cl ; retn 0x0F48 ; (1 found)
0x4705d1: ror byte [rcx+0x3948FC51], cl ; ret ; (2 found)
0x41cfd1: ror byte [rcx+rcx*4-0x01], cl ; call qword [r14+0x00000080] ; (1 found)
0x41d58d: ror byte [rcx+rcx*4-0x01], cl ; call qword [rbx+0x00000080] ; (1 found)
0x4930fb: ror byte [rcx+rcx*4-0x39], cl ; mov eax, 0x000000CA ; syscall ; (1 found)
0x40c3e6: ror byte [rcx+rcx*4-0x40], 0x5B ; pop rbp ; ret ; (2 found)
0x4840ad: ror byte [rcx+rcx*4-0x40], cl ; ret ; (1 found)
0x48ceac: ror byte [rcx-0x75], cl ; adc al, 0xD0 ; jmp rdx ; (1 found)
0x493d9b: ror byte [rcx-0x77], 0x30 ; ret ; (1 found)
0x41818b: ror byte [rcx-0x77], cl ; ret ; (1 found)
0x4b0b02: ror byte [rcx-0x7D], 1 ; retn 0x4901 ; (1 found)
0x46ec26: ror byte [rcx-0x7D], cl ; retn 0x4B01 ; (1 found)
0x4756e2: ror byte [rdi], 0x00 ; add byte [rax], al ; syscall ; (2 found)
0x464581: ror byte [rdi], 0x11 ; add eax, 0x000946D7 ; ret ; (1 found)
0x423c28: ror byte [rdi], 0x11 ; pop rbx ; ret ; (1 found)
0x4611db: ror byte [rdi], 0x1F ; add byte [rax-0x39], cl ; retn 0xFFA0 ; (1 found)
0x42702c: ror byte [rdi], 0x29 ; add byte [rax+0x39], cl ; retn 0xEB75 ; (1 found)
0x4b3c14: ror byte [rdi], 0x44 ; lock mov eax, 0x0000009E ; syscall ; (1 found)
0x462d60: ror byte [rdi], 0x44 ; retn 0x66C3 ; (1 found)
0x462b24: ror byte [rdi], 0x44 ; retn 0x8348 ; (1 found)
0x472cb8: ror byte [rdi], 0x48 ; retn 0xC083 ; (1 found)
0x41c041: ror byte [rdi], 0x84 ; mov  [rax], 0x89480000 ; ret ; (1 found)
0x42936c: ror byte [rdi], 0x84 ; ret ; (2 found)
0x4bdfd7: ror byte [rdi], 0x84 ; retn 0x0000 ; (1 found)
0x40f60c: ror byte [rdi], 0x84 ; retn 0x000A ; (1 found)
0x48d56e: ror byte [rdi], 0x84 ; retn 0x0012 ; (1 found)
0x480928: ror byte [rdi], 0x84 ; retn 0xFFFD ; (1 found)
0x4736ef: ror byte [rdi], 0x84 ; rol byte [0xFFFFFFFF898F36F8], cl ; retn 0x294C ; (1 found)
0x466c1c: ror byte [rdi], 0x85 ; mov  [rax], 0x25810000 ; jmp qword [rax] ; (1 found)
0x4b1a55: ror byte [rdi], 0x85 ; retn 0x0000 ; (1 found)
0x4135cb: ror byte [rdi], 0x8E ; retn 0x001C ; (1 found)
0x463d0d: ror byte [rdi], 0x94 ; ret ; (3 found)
0x4a0d9f: ror byte [rdi], 0x94 ; retn 0x3840 ; (3 found)
0x476155: ror byte [rdi], 0x9E ; retn 0xD008 ; (1 found)
0x450469: ror byte [rdi], 1 ; adc  [rdi+rdx-0x40], edi ; ret ; (1 found)
0x459c24: ror byte [rdi], 1 ; retn 0xB70F ; (1 found)
0x477ab7: ror byte [rdi], 1 ; retn 0xC801 ; (4 found)
0x434966: ror byte [rdi], 1 ; test  [rax+rax-0x08B70000], ecx ; retn 0x0002 ; (1 found)
0x45d62e: ror byte [rdi], cl ; retn 0xC083 ; (2 found)
0x4b7191: ror byte [rdi], cl ; xchg eax, ebp ; retn 0xD348 ; (1 found)
0x4b446e: sahf ; cli ; jmp qword [rsi+0x2E] ; (1 found)
0x455d12: sahf ; lea rax, qword [rdi+rax+0x40] ; ret ; (1 found)
0x4b3f4e: sahf ; ret ; (1 found)
0x4a0c73: sahf ; retn 0x2148 ; (1 found)
0x476157: sahf ; retn 0xD008 ; (1 found)
0x489890: sahf ; std ; jmp qword [rsi+0x2E] ; (1 found)
0x4a847f: sal  [rbp-0x2A], 1 ; mov eax,  [rcx] ; ret ; (1 found)
0x4564f1: sal  [rbp-0x44], 0xFFFFFF83 ; retn 0x8320 ; (2 found)
0x4bfef6: sal  [rcx+rcx*4+0x48], 0xFFFFFF89 ; retn 0xC148 ; (1 found)
0x4bfa9e: sal  [rdi+rax*4+0x48], 0xFFFFFF89 ; retn 0xC148 ; (1 found)
0x4bfbf6: sal  [rdx+rcx*4+0x48], 0xFFFFFF89 ; retn 0xC148 ; (1 found)
0x464736: sal  [rsi+0x24], 1 ; ret ; (1 found)
0x4bbb1c: sal bh, 0xFF ; inc  [rbx-0x7AF0F808] ; retn 0xFFFE ; (1 found)
0x42e6d7: sal bh, 1 ; retn 0x8000 ; (8 found)
0x42e597: sal bh, 1 ; retn 0xC000 ; (8 found)
0x42e457: sal bh, 1 ; retn 0xE000 ; (8 found)
0x42e317: sal bh, 1 ; retn 0xF000 ; (8 found)
0x42e1d7: sal bh, 1 ; retn 0xF800 ; (8 found)
0x42e097: sal bh, 1 ; retn 0xFC00 ; (8 found)
0x42df57: sal bh, 1 ; retn 0xFE00 ; (8 found)
0x42de17: sal bh, 1 ; retn 0xFF00 ; (8 found)
0x42dcd7: sal bh, 1 ; retn 0xFF80 ; (8 found)
0x42db97: sal bh, 1 ; retn 0xFFC0 ; (8 found)
0x42da57: sal bh, 1 ; retn 0xFFE0 ; (8 found)
0x42d917: sal bh, 1 ; retn 0xFFF0 ; (8 found)
0x42d7d7: sal bh, 1 ; retn 0xFFF8 ; (8 found)
0x42d697: sal bh, 1 ; retn 0xFFFC ; (8 found)
0x42d557: sal bh, 1 ; retn 0xFFFE ; (8 found)
0x49d655: sal byte [rax+rcx*2-0x0D], 0x0F ; mov esp, 0xF80148C0 ; ret ; (2 found)
0x4ab5d5: sal byte [rbp+0x02], cl ; call rax ; (1 found)
0x451956: sal byte [rbp+0x04], cl ; mov rax, rdi ; ret ; (1 found)
0x45f0f8: sal byte [rbp+0x05], 0x48 ; add esp, 0x08 ; ret ; (1 found)
0x420ab8: sal byte [rbp+0x05], cl ; ret ; (1 found)
0x40b657: sal byte [rbp+0x06], 0x5D ; ret ; (1 found)
0x4634c2: sal byte [rbp+0x0B], cl ; ret ; (1 found)
0x4758de: sal byte [rbp+0x0F], 0x48 ; add esp, 0x08 ; ret ; (1 found)
0x4aadfe: sal byte [rbp+0x10], cl ; mov qword [rbp-0x000000B0], r10 ; call rax ; (1 found)
0x4b21e6: sal byte [rbp+0x27], 0xE9 ; retn 0xFFFE ; (1 found)
0x49fec2: sal byte [rbp+0x2B], 0x83 ; retn 0x0F10 ; (1 found)
0x49da50: sal byte [rbp+0x2D], 0x83 ; retn 0x0F40 ; (1 found)
0x4a01cd: sal byte [rbp+0x30], 0x83 ; retn 0x0F10 ; (1 found)
0x49d76a: sal byte [rbp+0x33], 0x83 ; retn 0x0F40 ; (1 found)
0x494c61: sal byte [rbp+0x5C], 0x83 ; retn 0x0F40 ; (2 found)
0x49e5f4: sal byte [rbp+0x69], 0x83 ; retn 0x0F40 ; (2 found)
0x41d460: sal byte [rbp+rbp*2+0x49], 0x2B ; and byte [r8+0x01], r9L ; ret ; (1 found)
0x455f20: sal byte [rbp+rdi*2-0x0D], 0x0F ; mov esp, 0xF80148C0 ; ret ; (1 found)
0x49ed18: sal byte [rbp+rdx-0x78], cl ; rol  [rax+0x1E740FE1], 1 ; ret ; (1 found)
0x49e09c: sal byte [rbp-0x0F], cl ; ret ; (1 found)
0x44fc40: sal byte [rbp-0x13], cl ; lea rax, qword [rcx-0x01] ; ret ; (1 found)
0x421f38: sal byte [rbp-0x13], cl ; ret ; (2 found)
0x4b13c4: sal byte [rbp-0x17], cl ; ret ; (1 found)
0x42e9fb: sal byte [rbp-0x1E], 0x31 ; shr byte [rcx], 0xC8 ; ret ; (1 found)
0x42ffbc: sal byte [rbp-0x1F], 0x29 ; enter 0xF8C5, 0x77 ; ret ; (1 found)
0x434451: sal byte [rbp-0x24], 0x29 ; enter 0xF8C5, 0x77 ; ret ; (1 found)
0x40b61c: sal byte [rbp-0x27], cl ; ret ; (1 found)
0x494d21: sal byte [rbp-0x64], 0x83 ; retn 0x0F40 ; (2 found)
0x49e6c4: sal byte [rbp-0x67], 0x83 ; retn 0x0F40 ; (2 found)
0x423f50: sal byte [rbx+0x25], 1 ; movzx eax, byte [rax] ; ret ; (1 found)
0x45eae6: sal byte [rbx+rbp+0x5B], 0x5D ; pop r12 ; ret ; (1 found)
0x449634: sal byte [rcx+rbp*2-0x0D], 0x0F ; mov esp, 0x77F8C5C0 ; ret ; (1 found)
0x45f36b: sal byte [rcx+rbx*2+0x48], 0x89 ; retn 0x8348 ; (1 found)
0x4556a8: sal byte [rcx+rbx*2-0x0D], 0x0F ; mov esp, 0xC80148C0 ; ret ; (2 found)
0x455684: sal byte [rcx+rdi*2-0x0D], 0x0F ; mov esp, 0xF80148C0 ; ret ; (2 found)
0x44919c: sal byte [rcx+rdx+0x48], cl ; bsf eax, edx ; ret ; (2 found)
0x46516c: sal byte [rcx+rdx+0x48], cl ; lea edi,  [rcx+rax+0x48] ; jmp rdx ; (1 found)
0x423617: sal byte [rcx], cl ; test byte [rax-0x77], 0xDF ; call qword [rcx+0x58] ; (1 found)
0x4a3646: sal byte [rdi+0x48], 0x89 ; ret ; (1 found)
0x4a8262: sal byte [rdi+rbp*8+0x31], 0xC0 ; ret ; (1 found)
0x4494a6: sal byte [rdi+rdx*2-0x0D], 0x0F ; mov esp, 0x77F8C5C0 ; ret ; (1 found)
0x457136: sal byte [rdi-0x0D], 0x0F ; mov esp, 0xC031C3C0 ; ret ; (2 found)
0x44936b: sal byte [rdx+0x48], cl ; bsf eax, edx ; ret ; (1 found)
0x401011: sal byte [rdx+rax-0x01], 0xD0 ; add rsp, 0x08 ; ret ; (1 found)
0x449d33: sal byte [rdx+rdx+0x48], 0xFF ; retn 0x2288 ; (2 found)
0x40b51b: sal byte [rdx+rsi*2+0x48], 0xC7 ; retn 0xFFF0 ; (1 found)
0x42263e: sal byte [rsi+0x27], 1 ; mov rdi, rbx ; call qword [rbp+0x20] ; (1 found)
0x491733: sal byte [rsi+0x2A], 1 ; mov rdi, rbx ; call qword [rbp+0x30] ; (1 found)
0x42315e: sal byte [rsi+0x2F], 1 ; mov rdi, rbx ; call qword [rbp+0x30] ; (1 found)
0x4214ef: sal byte [rsi+0x36], 1 ; mov rdi, rbp ; call qword [rbx+0x00000088] ; (1 found)
0x490bbe: sal byte [rsi+0x3F], 1 ; mov rdi, rbx ; call qword [rbp+0x20] ; (1 found)
0x41bf42: sal byte [rsi+0x4B], 1 ; mov rdi, rbx ; call qword [rbp+0x60] ; (1 found)
0x422588: sal byte [rsi+0x65], 1 ; mov rdi, rbx ; call qword [rbp+0x68] ; (1 found)
0x44913f: sal byte [rsi+rdi*2+0x48], cl ; bsf eax, edx ; ret ; (1 found)
0x42880e: sal byte [rsp+rdi+0x48], 0x89 ; retn 0x8D4C ; (1 found)
0x488bca: sal ch, 0xFF ; jmp qword [rsi-0x70] ; (2 found)
0x4a8b32: sal ch, 1 ; jmp qword [rsi+0x2E] ; (1 found)
0x4860ec: sal dh, 1 ; retn 0x0F40 ; (1 found)
0x450597: sal ebx, 1 ; movsb ; ret ; (1 found)
0x4ad008: sal edi, 0xFFFFFFD8 ; ret ; (1 found)
0x492544: salc ; and esi, 0x00000080 ; syscall ; (1 found)
0x48c3a4: salc ; call qword [r14+0x38] ; (1 found)
0x48a350: salc ; call qword [r15+0x38] ; (1 found)
0x45009e: salc ; clc ; ret ; (1 found)
0x419449: salc ; jmp rdx ; (5 found)
0x4a8481: salc ; mov eax,  [rcx] ; ret ; (1 found)
0x418ebe: salc ; mov rdi, rbp ; call qword [r15+0x38] ; (1 found)
0x41a311: salc ; mov rdi, rbp ; call qword [rbx+0x38] ; (1 found)
0x480dfc: salc ; movd xmm0, xmm6 ; ret ; (1 found)
0x4bd17a: salc ; ret ; (1 found)
0x480c36: salc ; sub bh, dh ; jmp qword [rsi+0x0F] ; (1 found)
0x440b21: sar  [rax+rcx*2+0x11], 1 ; jmp qword [r10-0x2F] ; (1 found)
0x464d08: sar  [rbp-0x73], 0xFFFFFFC3 ; nop  [rax+0x00] ; ret ; (1 found)
0x485845: sar  [rcx], cl ; retn 0x4D74 ; (1 found)
0x44072f: sar  [rdx+0x7F], 0x49 ; lock ret ; (1 found)
0x4164d5: sar  [rsi], 1 ; jmp rcx ; (2 found)
0x4bb894: sar ah, 0xFF ; jmp qword [rsi+0x0F] ; (2 found)
0x4ae665: sar bh, 0xFF ; ret ; (1 found)
0x4be5b9: sar bh, 1 ; dec  [rax-0x77] ; ret ; (1 found)
0x4047bd: sar bh, cl ; dec  [rax-0x39] ; ret ; (1 found)
0x4be3bf: sar bh, cl ; jmp qword [rsi+0x0F] ; (1 found)
0x42848a: sar bh, cl ; jmp qword [rsi-0x70] ; (2 found)
0x40216f: sar bl, 0xFF ; call qword [rcx+0x49] ; (1 found)
0x4a16ee: sar byte [r8+0x000000D9], 1 ; syscall ; (1 found)
0x4921df: sar byte [rax+0x000000CA], cl ; syscall ; (1 found)
0x4a16ef: sar byte [rax+0x000000D9], 1 ; syscall ; (1 found)
0x4a1b8a: sar byte [rdi-0x08], cl ; dec  [rax-0x77] ; ret ; (1 found)
0x424aba: sar byte [rdx+0x00000001], cl ; mov eax, 0x000000CA ; syscall ; (1 found)
0x4623d1: sar byte [rsi+0x00000001], cl ; call r12 ; (1 found)
0x435f8a: sar byte [rsi], 0x41 ; jmp rcx ; (60 found)
0x40ddfa: sar byte [rsi], 1 ; jmp rax ; (22 found)
0x440ccb: sar ch, 0xFF ; jmp qword [rdx-0x0F] ; (1 found)
0x40dfee: sar cl, 0xFF ; jmp qword [rsi+0x0F] ; (1 found)
0x4b4a1e: sar dh, 1 ; jmp qword [rax+rcx*2-0x75] ; (1 found)
0x466343: sar dl, 0xFF ; jmp qword [rsi+0x0F] ; (1 found)
0x49181c: sar eax, 0x02 ; sub eax, 0x01 ; ret ; (1 found)
0x4a33ea: sar ebp, 0xFFFFFFFF ; jmp qword [rsi-0x70] ; (1 found)
0x46877b: sar ecx, cl ; jmp qword [rsi-0x70] ; (1 found)
0x49fbb6: sar edi, 0x02 ; lea eax,  [rdi+rax+0x08] ; ret ; (1 found)
0x49fbc6: sar edi, 0x02 ; lea eax,  [rdi+rax+0x10] ; ret ; (1 found)
0x49fbd6: sar edi, 0x02 ; lea eax,  [rdi+rax+0x18] ; ret ; (1 found)
0x49fbe6: sar edi, 0x02 ; lea eax,  [rdi+rax+0x20] ; ret ; (1 found)
0x459545: sar edi, 0x02 ; lea rax, qword [rdi+rax+0x08] ; ret ; (2 found)
0x459504: sar edi, 0x02 ; lea rax, qword [rdi+rax+0x10] ; ret ; (2 found)
0x4595ef: sar edi, 0x02 ; lea rax, qword [rdi+rax+0x18] ; ret ; (1 found)
0x459594: sar edi, 0x02 ; lea rax, qword [rdi+rax+0x20] ; ret ; (1 found)
0x4918c6: sar edx, 0x02 ; sub eax, edx ; ret ; (2 found)
0x4a3e5b: sar edx, 0xFFFFFFFF ; call qword [rax-0x01077A3A] ; (1 found)
0x458943: sar edx, 1 ; jmp qword [rsi+0x2E] ; (1 found)
0x457bae: sar esi, 0xFFFFFFFF ; jmp qword [rsi+0x0F] ; (2 found)
0x47656c: sar esi, 1 ; call qword [rax-0x05E1F00D] ; (1 found)
0x49181b: sar rax, 0x02 ; sub eax, 0x01 ; ret ; (1 found)
0x459544: sar rdi, 0x02 ; lea rax, qword [rdi+rax+0x08] ; ret ; (2 found)
0x459503: sar rdi, 0x02 ; lea rax, qword [rdi+rax+0x10] ; ret ; (2 found)
0x4595ee: sar rdi, 0x02 ; lea rax, qword [rdi+rax+0x18] ; ret ; (1 found)
0x459593: sar rdi, 0x02 ; lea rax, qword [rdi+rax+0x20] ; ret ; (1 found)
0x4918c5: sar rdx, 0x02 ; sub eax, edx ; ret ; (2 found)
0x499fb8: sbb  [r8], r8d ; add byte [rax-0x7D], cl ; retn 0xE910 ; (1 found)
0x41af36: sbb  [rax-0x7D], ecx ; retn 0xEB01 ; (1 found)
0x499f41: sbb  [rax], eax ; add byte [rax-0x7D], cl ; retn 0x4910 ; (1 found)
0x499fb9: sbb  [rax], eax ; add byte [rax-0x7D], cl ; retn 0xE910 ; (1 found)
0x462df9: sbb  [rax], eax ; add byte [rax], al ; syscall ; (1 found)
0x464fdb: sbb  [rsi], eax ; add byte [rax+0x00000015], bh ; syscall ; (1 found)
0x461575: sbb al, 0x00 ; add byte [rax], al ; syscall ; (1 found)
0x4ace26: sbb al, 0x24 ; add rsp, 0x18 ; jmp r11 ; (3 found)
0x4ac714: sbb al, 0x24 ; add rsp, 0x30 ; jmp r11 ; (3 found)
0x4ac802: sbb al, 0x24 ; add rsp, 0x30 ; ret ; (3 found)
0x4a0785: sbb al, 0x24 ; call rbx ; (1 found)
0x49da74: sbb al, 0x48 ; lea eax,  [rdi+rax+0x40] ; ret ; (1 found)
0x4bf820: sbb al, 0x63 ; hlt ; jmp qword [rsi+0x2E] ; (1 found)
0x492103: sbb al, 0x83 ; ret ; (1 found)
0x493c20: sbb al, 0xB0 ; clc ; jmp qword [rsi+0x2E] ; (1 found)
0x4b1fa0: sbb al, 0xE9 ; retn 0x0005 ; (1 found)
0x45f6cb: sbb al, 0xF4 ; mov eax, esi ; syscall ; (1 found)
0x4b3ef2: sbb al, 0xF5 ; jmp qword [rsi+0x2E] ; (2 found)
0x483e87: sbb al, 0xF8 ; jmp qword [rsi+0x0F] ; (1 found)
0x41d908: sbb al, ch ; retn 0x0009 ; (1 found)
0x491c80: sbb bh, ch ; jmp qword [rsi+0x66] ; (1 found)
0x490013: sbb bh, dh ; jmp qword [rsi+0x2E] ; (1 found)
0x464104: sbb bh, dl ; jmp qword [rsi+0x0F] ; (1 found)
0x4595f6: sbb bl, al ; mov rax, r8 ; ret ; (1 found)
0x4842e1: sbb byte [r8+0x2B], cl ; sub byte [r9+r9*4+0x04], cl ; retn 0x8B4C ; (1 found)
0x4ad838: sbb byte [r8+0x5A], bl ; pop rbx ; ret ; (2 found)
0x421f6a: sbb byte [r8-0x77], r9L ; movups  [rdi+0x08], xmm1 ; ret ; (1 found)
0x46057b: sbb byte [rax+0x00000101], bh ; syscall ; (1 found)
0x4842e2: sbb byte [rax+0x2B], cl ; sub byte [r9+r9*4+0x04], cl ; retn 0x8B4C ; (1 found)
0x4b1018: sbb byte [rax+0x39], cl ; ret ; (2 found)
0x4b1017: sbb byte [rax+0x39], r9L ; ret ; (2 found)
0x4ad839: sbb byte [rax+0x5A], bl ; pop rbx ; ret ; (2 found)
0x45cfa5: sbb byte [rax+0x63], cl ; retn 0x8944 ; (1 found)
0x429eb6: sbb byte [rax-0x39], cl ; ret ; (1 found)
0x4b3f69: sbb byte [rax-0x39], cl ; retn 0xFFF8 ; (1 found)
0x4032b2: sbb byte [rax-0x75], cl ; and al, 0x08 ; call rax ; (1 found)
0x4bc2ca: sbb byte [rax-0x75], cl ; or byte [rax-0x77], cl ; ret ; (1 found)
0x47d475: sbb byte [rax-0x76B7CF05], al ; mov byte [rcx+0x0F], 0x95 ; ret ; (1 found)
0x421fa6: sbb byte [rax-0x77], cl ; movups  [rdi+0x08], xmm0 ; ret ; (1 found)
0x421f6b: sbb byte [rax-0x77], cl ; movups  [rdi+0x08], xmm1 ; ret ; (1 found)
0x45eb37: sbb byte [rax-0x77], cl ; ret ; (1 found)
0x4069fb: sbb byte [rax-0x77], cl ; retn 0x2548 ; (4 found)
0x4281f6: sbb byte [rax-0x77], cl ; retn 0x850F ; (1 found)
0x4bd3a8: sbb byte [rax-0x77], cl ; retn 0x8548 ; (1 found)
0x4062bd: sbb byte [rax-0x77], cl ; retn 0x8948 ; (2 found)
0x4bd39b: sbb byte [rax-0x77], cl ; retn 0xBCE8 ; (1 found)
0x46a0f0: sbb byte [rax-0x7D], cl ; ret ; (2 found)
0x460255: sbb byte [rax], al ; add byte [rax], al ; syscall ; (1 found)
0x462ace: sbb byte [rax], dl ; add byte [rax], al ; ret ; (1 found)
0x4588e3: sbb byte [rbp+0x31], al ; ror byte [rax-0x77], 0xEF ; call rbx ; (1 found)
0x4279a8: sbb byte [rbp+0x41], bl ; pop rsp ; ret ; (3 found)
0x4a0c2a: sbb byte [rbx+0x0F40244C], cl ; xchg eax, ebp ; retn 0xC985 ; (1 found)
0x4bc597: sbb byte [rbx+0x5D], bl ; mov eax, r8d ; ret ; (1 found)
0x41d7d9: sbb byte [rbx+0x5D], bl ; ret ; (14 found)
0x423afb: sbb byte [rbx-0x2FD6EFB9], cl ; ret ; (1 found)
0x4bcdb2: sbb byte [rbx-0x76B7F019], al ; retn 0xA2E8 ; (1 found)
0x41e35a: sbb byte [rcx+rcx*4-0x11], cl ; lea r9, qword [rsp+0x28] ; call rbp ; (2 found)
0x429daf: sbb byte [rcx], dh ; rcr byte [rbp+0x41], 0x5C ; ret ; (2 found)
0x478f57: sbb byte [rdi], cl ; mov ds, word [0xFFFFFFFF83478F6B] ; retn 0x4418 ; (1 found)
0x4014a8: sbb cl, byte [0xFFFFFFFFEEC314AF] ; add cl, byte [rax-0x7D] ; retn 0x4810 ; (1 found)
0x474112: sbb cl, byte [rax-0x77] ; retn 0x2548 ; (2 found)
0x467349: sbb cl, byte [rax-0x77] ; retn 0x8948 ; (4 found)
0x4b0662: sbb cl, byte [rbp-0x7CB6FFFC] ; retn 0x4801 ; (1 found)
0x44637d: sbb cl, byte [rdi] ; xchg byte [rax+rcx-0x7CB80000], bl ; retn 0xE910 ; (1 found)
0x445b5d: sbb cl, byte [rdi] ; xchg byte [rax+rdx-0x7CB80000], bh ; retn 0xE910 ; (1 found)
0x44567d: sbb cl, byte [rdi] ; xchg byte [rbp+rdx-0x7CB80000], bl ; retn 0xE910 ; (1 found)
0x44685d: sbb cl, byte [rdi] ; xchg byte [rbx+rax-0x7CB80000], bh ; retn 0xE910 ; (1 found)
0x48fdf3: sbb dh, bh ; jmp qword [rsi+0x2E] ; (1 found)
0x49dd34: sbb eax,  [rax] ; add bh, dh ; retn 0x0000 ; (1 found)
0x40f42b: sbb eax,  [rax] ; add byte [rax-0x7D], cl ; retn 0x3C01 ; (1 found)
0x499d61: sbb eax,  [rax] ; add byte [rax-0x7D], cl ; retn 0x4910 ; (1 found)
0x499dd9: sbb eax,  [rax] ; add byte [rax-0x7D], cl ; retn 0xE910 ; (1 found)
0x413910: sbb eax,  [rax] ; add byte [rcx-0x39], cl ; retn 0xFFA0 ; (1 found)
0x457134: sbb eax,  [rbp-0x0C988B40] ; bsf eax, eax ; ret ; (2 found)
0x401500: sbb eax,  [rcx] ; add byte [rbx-0x7CB7FD12], al ; retn 0x4810 ; (1 found)
0x462612: sbb eax, 0x007D8B49 ; call rbx ; (1 found)
0x464633: sbb eax, 0x02 ; add byte [rax], al ; syscall ; (1 found)
0x4aa1fc: sbb eax, 0x40000003 ; ret ; (1 found)
0x4aa13e: sbb eax, 0x40000003 ; xor eax, eax ; ret ; (1 found)
0x4bb5c4: sbb eax, 0x48FFF464 ; mov eax,  [rax] ; ret ; (1 found)
0x46176f: sbb eax, 0x49000001 ; mov edi,  [rbp+0x00] ; call rbx ; (1 found)
0x45e6f2: sbb eax, 0x74DAF883 ; and byte [rax-0x39], cl ; retn 0xFFA0 ; (1 found)
0x478f5a: sbb eax, 0x8300000C ; retn 0x4418 ; (1 found)
0x4209c2: sbb eax, 0x8944DC74 ; out 0xE8, eax ; ret ; (1 found)
0x418e38: sbb eax, 0x89490000 ; retn 0x01B8 ; (1 found)
0x44f917: sbb eax, 0xFFFFFFFF ; ret ; (1 found)
0x4b3f59: sbb eax, eax ; add rsp, 0x08 ; ret ; (1 found)
0x435157: sbb eax, eax ; or eax, 0x01 ; ret ; (2 found)
0x4bc1e3: sbb eax, eax ; ret ; (1 found)
0x44f915: sbb eax, eax ; sbb eax, 0xFFFFFFFF ; ret ; (1 found)
0x4b1e6a: sbb ebx, edi ; call qword [rax-0x376974BF] ; (1 found)
0x41adfd: sbb ecx,  [rax-0x7D] ; retn 0x4801 ; (2 found)
0x4351bc: sbb ecx, ecx ; or eax, ecx ; ret ; (2 found)
0x4693e0: sbb edi, esp ; dec  [rax-0x77] ; ret ; (1 found)
0x404b6c: sbb esi, edi ; retn 0x0000 ; (1 found)
0x447cee: scasb ; add eax, 0x83480000 ; retn 0xE910 ; (1 found)
0x4ab371: scasb ; add rax, rsi ; jmp rax ; (1 found)
0x493dde: scasb ; clc ; jmp qword [rsi+0x2E] ; (1 found)
0x45ab46: scasd ; ret ; (3 found)
0x41d178: scasd ; retn 0x2948 ; (1 found)
0x402fb5: scasd ; retn 0x41C3 ; (1 found)
0x4038b1: scasd ; retn 0x4853 ; (1 found)
0x403a85: scasd ; retn 0x518D ; (1 found)
0x402fab: scasd ; retn 0x538D ; (1 found)
0x4a85dd: scasd ; retn 0x8348 ; (1 found)
0x402f41: scasd ; retn 0xC148 ; (1 found)
0x403a8b: scasd ; retn 0xDA89 ; (1 found)
0x403a99: scasd ; retn 0xEBE9 ; (1 found)
0x41d32f: scasd ; retn 0xF748 ; (1 found)
0x402fb2: scasd ; ror  [rdi], 0xFFFFFFAF ; retn 0x41C3 ; (1 found)
0x4aa292: scasd ; sti ; jmp qword [rsi+0x66] ; (1 found)
0x424944: setnb al ; ret ; (1 found)
0x42cc91: shl  [rax], 0x74 ; or bh, dh ; retn 0x0000 ; (1 found)
0x44f9bf: shl  [rsi+0x0F], 0xFFFFFFDA ; ret ; (2 found)
0x4262fd: shl  [rsi+0x0F], 1 ; insb ; retn 0x3B48 ; (1 found)
0x43464c: shl  [rsi+0x0F], 1 ; xlatb ; retn 0xC085 ; (8 found)
0x4ae75c: shl  [rsi+0x49], 0x0F ; outsb ; retn 0xD348 ; (1 found)
0x494c5d: shl  [rsi-0x70], 0xFFFFFF85 ; sal byte [rbp+0x5C], 0x83 ; retn 0x0F40 ; (2 found)
0x40db9f: shl byte [rax+0x48FFFFFF], 0xC7 ; retn 0xFFFE ; (2 found)
0x4059d6: shl byte [rax+0x64FFFFFF], 0x48 ; add eax,  [0x00000000] ; ret ; (1 found)
0x4258a4: shl byte [rsi+0x0F], 0x6C ; retn 0x0F41 ; (1 found)
0x4ae77a: shl byte [rsi+0x0F], 0x6C ; retn 0x110F ; (1 found)
0x44df07: shl byte [rsi+0x0F], 0xD7 ; ror  [rcx], cl ; retn 0xE074 ; (1 found)
0x448525: shl byte [rsi+0x0F], 0xEB ; retn 0x0F66 ; (2 found)
0x4a7a98: shl byte [rsi+0x0F], 1 ; insb ; retn 0x3948 ; (1 found)
0x448d66: shl byte [rsi+0x0F], 1 ; outsd ; ret ; (1 found)
0x448d77: shl byte [rsi+0x0F], 1 ; outsd ; retn 0x0F66 ; (1 found)
0x4ab341: shl byte [rsi+0x0F], cl ; insb ; retn 0x0F41 ; (1 found)
0x41cbef: shl byte [rsi+0x0F], cl ; insb ; retn 0x110F ; (1 found)
0x44fb5f: shl byte [rsi+0x44], 0x0F ; out dx, eax ; retn 0x0F66 ; (1 found)
0x4670fc: shl eax, cl ; ret ; (1 found)
0x4a7387: shl ebp, 0x05 ; add r13, rax ; call qword [r13+0x68] ; (1 found)
0x47f70b: shl ecx, cl ; mov qword [rdi-0x08], r9 ; ret ; (1 found)
0x47f78c: shl ecx, cl ; mov qword [rdi-0x10], r9 ; ret ; (1 found)
0x47f6da: shl ecx, cl ; mov qword [rdi], r9 ; ret ; (1 found)
0x42504d: shl esi, 0x07 ; xor sil, 0x81 ; syscall ; (1 found)
0x4a7386: shl r13, 0x05 ; add r13, rax ; call qword [r13+0x68] ; (1 found)
0x47f70a: shl r9, cl ; mov qword [rdi-0x08], r9 ; ret ; (1 found)
0x47f78b: shl r9, cl ; mov qword [rdi-0x10], r9 ; ret ; (1 found)
0x47f6d9: shl r9, cl ; mov qword [rdi], r9 ; ret ; (1 found)
0x468ca5: shr al, 0xB5 ; test cl, bh ; jmp qword [rsi+0x0F] ; (1 found)
0x4b2859: shr bl, 0x9F ; nop  [rax+0x00] ; call rax ; (1 found)
0x47768d: shr bl, cl ; adc  [rax-0x7D], ecx ; retn 0x4101 ; (4 found)
0x40cacd: shr bl, cl ; or  [rax-0x7D], ecx ; retn 0x4801 ; (2 found)
0x42e9ff: shr byte [rcx], 0xC8 ; ret ; (2 found)
0x434fcf: shr byte [rcx], 0xC8 ; vzeroupper ; ret ; (1 found)
0x456a63: shr byte [rcx], 0xD7 ; lea eax,  [rdi+rax+0x00000080] ; ret ; (1 found)
0x456a33: shr byte [rcx], 0xD7 ; lea eax,  [rdi+rax+0x20] ; ret ; (1 found)
0x456a43: shr byte [rcx], 0xD7 ; lea eax,  [rdi+rax+0x40] ; ret ; (1 found)
0x456a53: shr byte [rcx], 0xD7 ; lea eax,  [rdi+rax+0x60] ; ret ; (1 found)
0x483563: shr byte [rcx], 1 ; ret ; (1 found)
0x4578d4: shr byte [rdx+0x00], 0x4C ; lea ecx,  [rsp+0x18] ; call r13 ; (1 found)
0x457aea: shr byte [rdx+0x01], cl ; lea r9, qword [rsp+0x20] ; call rbx ; (1 found)
0x40f4dc: shr cl, 1 ; ret ; (1 found)
0x4b3f07: shr cl, cl ; ret ; (1 found)
0x458acc: shr eax, 0x02 ; ret ; (9 found)
0x458c7f: shr eax, 0x02 ; vzeroupper ; ret ; (25 found)
0x402fd3: shr eax, 0x16 ; add eax, 0x01 ; ret ; (1 found)
0x49d34f: shr ebx, 0x3A ; xor eax, eax ; ret ; (2 found)
0x47f825: shr ecx, cl ; mov qword [rdi+0x08], r9 ; ret ; (1 found)
0x47f89c: shr ecx, cl ; mov qword [rdi+0x10], r9 ; ret ; (1 found)
0x47f7f4: shr ecx, cl ; mov qword [rdi], r9 ; ret ; (1 found)
0x47f824: shr r9, cl ; mov qword [rdi+0x08], r9 ; ret ; (1 found)
0x47f89b: shr r9, cl ; mov qword [rdi+0x10], r9 ; ret ; (1 found)
0x47f7f3: shr r9, cl ; mov qword [rdi], r9 ; ret ; (1 found)
0x458acb: shr rax, 0x02 ; ret ; (9 found)
0x458ddf: shr rax, 0x02 ; vzeroupper ; ret ; (12 found)
0x49d34e: shr rbx, 0x3A ; xor eax, eax ; ret ; (2 found)
0x46b177: shufps xmm0,  [0x000000003DD3F97E], 0x1C ; mov byte [0xFFFFFFFFAA009986], 0xF9 ; jmp qword [rsi+0x0F] ; (1 found)
0x455b75: shufps xmm0,  [rdi+0x02], 0x00 ; lea rax, qword [rdi+0x02] ; ret ; (1 found)
0x456945: shufps xmm0,  [rdi+0x02], 0x00 ; ret ; (1 found)
0x449bd5: shufps xmm0,  [rdi+0x02], 0x00 ; vzeroupper ; ret ; (1 found)
0x4ae791: sldt word [rax] ; add byte [rax-0x77], cl ; retn 0x2944 ; (1 found)
0x403cfe: sldt word [rcx-0x73FCE71E] ; and  [rcx+0x09], eax ; retn 0x058B ; (1 found)
0x401b3e: sldt word [rcx] ; pop rbp ; ret ; (1 found)
0x46798d: stc ; call qword [rax-0x05E1F00D] ; (1 found)
0x4938cc: stc ; dec  [rax-0x77] ; ret ; (1 found)
0x46f618: stc ; dec  [rbp-0x77] ; ret ; (2 found)
0x46f69f: stc ; inc  [rcx-0x77] ; ret ; (2 found)
0x46b9f7: stc ; inc  [rcx-0x77] ; retn 0x29E9 ; (1 found)
0x4679c0: stc ; jmp qword [rsi+0x0F] ; (12 found)
0x467910: stc ; jmp qword [rsi+0x2E] ; (5 found)
0x468420: stc ; jmp qword [rsi+0x49] ; (1 found)
0x468fb1: stc ; jmp qword [rsi+0x66] ; (2 found)
0x46877c: stc ; jmp qword [rsi-0x70] ; (3 found)
0x474772: stc ; jmp rcx ; (1 found)
0x455bbf: stc ; lea rax, qword [rdi+rdx] ; ret ; (1 found)
0x438238: stc ; mov  [rdi-0x04], ecx ; ret ; (4 found)
0x417bba: stc ; out 0xFF, al ; jmp qword [rsi-0x70] ; (1 found)
0x45697f: stc ; ret ; (1 found)
0x440b98: stc ; vmovups  [rdi-0x0200], zmm15 ; ret ; (1 found)
0x449c0f: stc ; vzeroupper ; ret ; (1 found)
0x43509d: stc ; xlatb ; retn 0xFF2D ; (8 found)
0x41cd5e: std ; add  [rsi+rbp-0x77], esi ; retn 0xC085 ; (1 found)
0x40ba16: std ; add r15, r14 ; call rax ; (1 found)
0x4922ad: std ; call qword [rax+0x56415741] ; (1 found)
0x48f1cb: std ; call qword [rax-0x05E1F00D] ; (4 found)
0x424793: std ; dec  [rax-0x77] ; ret ; (1 found)
0x424867: std ; jmp qword [rsi+0x0F] ; (4 found)
0x489891: std ; jmp qword [rsi+0x2E] ; (3 found)
0x425962: std ; jmp qword [rsi+0x66] ; (3 found)
0x483f4c: std ; jmp qword [rsi-0x70] ; (3 found)
0x455b9b: std ; lea rax, qword [rdi+rdx] ; ret ; (1 found)
0x456967: std ; mov  [rdi+rdx-0x03], ecx ; ret ; (1 found)
0x437a5b: std ; mov word [rdi-0x02], cx ; ret ; (4 found)
0x45696b: std ; ret ; (1 found)
0x454e06: std ; vmovdqu64  [rdi+rdx-0x04], ymm23 ; ret ; (1 found)
0x451286: std ; vmovdqu64  [rdi+rdx-0x04], zmm23 ; ret ; (1 found)
0x449bfb: std ; vzeroupper ; ret ; (1 found)
0x4348dd: std ; xlatb ; ret ; (41 found)
0x4348d5: std ; xlatb ; retn 0xC085 ; (23 found)
0x434d57: std ; xlatb ; retn 0xC0FF ; (6 found)
0x4afc00: sti ; call qword [rax+0x44B84D8B] ; (1 found)
0x4aa20b: sti ; call qword [rax+0x48] ; (1 found)
0x4afe57: sti ; call qword [rax-0x00043517] ; (1 found)
0x4a4751: sti ; call qword [rax-0x00083817] ; (1 found)
0x4af32c: sti ; call qword [rax-0x05E1F00D] ; (2 found)
0x4b1e6b: sti ; call qword [rax-0x376974BF] ; (1 found)
0x49de90: sti ; dec  [rax+0x0F] ; retn 0x66C3 ; (2 found)
0x4a81af: sti ; dec  [rax-0x77] ; retn 0x8348 ; (1 found)
0x45b11e: sti ; dec  [rax-0x77] ; retn 0x8548 ; (1 found)
0x4a4932: sti ; dec  [rcx-0x77] ; retn 0x8348 ; (1 found)
0x46637a: sti ; idiv bh ; jmp qword [rsi-0x70] ; (1 found)
0x48bace: sti ; idiv edi ; jmp qword [rsi+0x0F] ; (1 found)
0x45fe63: sti ; jmp qword [rbx+0x0001FFDE] ; (1 found)
0x473218: sti ; jmp qword [rsi+0x0F] ; (6 found)
0x474cd4: sti ; jmp qword [rsi+0x2E] ; (2 found)
0x4aa220: sti ; jmp qword [rsi+0x66] ; (3 found)
0x4a6422: sti ; jmp qword [rsi-0x007F] ; (1 found)
0x472d3c: sti ; jmp qword [rsi-0x70] ; (2 found)
0x437e38: sti ; mov  [rdi-0x04], ecx ; ret ; (4 found)
0x49353e: sti ; mov rdi, qword [rdi+0x08] ; call qword [rbx] ; (1 found)
0x49de5f: sti ; push rsi ; retn 0x7420 ; (1 found)
0x47cb52: sti ; retn 0xFFBF ; (1 found)
0x457716: sti ; xchg eax, ebx ; ret ; (3 found)
0x45770e: sti ; xchg eax, ebx ; retn 0xC085 ; (3 found)
0x45fd9e: stosb ; add rax, rdx ; jmp rax ; (3 found)
0x451968: stosb ; mov rax, rdx ; ret ; (6 found)
0x46cca3: stosd ; add eax, 0x3D8D4800 ; retn 0x05AB ; (2 found)
0x457152: stosd ; lock bsf eax, eax ; ret ; (2 found)
0x4930a2: stosd ; mov eax, 0x00000083 ; ret ; (1 found)
0x41177f: stosd ; ret ; (1 found)
0x438789: stosd ; retn 0x0008 ; (1 found)
0x4ae559: str word [rax+0x21] ; retn 0xC148 ; (1 found)
0x47f4ab: str word [rcx] ; retn 0x9274 ; (1 found)
0x42683c: sub  [rax+0x39], ecx ; retn 0x840F ; (1 found)
0x46274f: sub  [rax-0x77], ecx ; retn 0x0ABE ; (1 found)
0x42c0e8: sub  [rax], eax ; add byte [rax+0x0F], cl ; retn 0x85C3 ; (1 found)
0x4633d5: sub  [rax], eax ; add byte [rax], al ; syscall ; (1 found)
0x48e813: sub  [rcx+rdi*8], eax ; jmp qword [rsi+0x0F] ; (1 found)
0x455563: sub  [rdi+0x00], edi ; ret ; (1 found)
0x435fe4: sub  [rdi-0x10], ebp ; jmp r9 ; (30 found)
0x435fe0: sub  [rdi-0x20], esp ; movaps  [rdi-0x10], xmm5 ; jmp r9 ; (30 found)
0x43608e: sub  [rdi], esp ; jmp r9 ; (30 found)
0x4a0784: sub  [rsp+0x00], ebx ; call rbx ; (1 found)
0x48a3ea: sub  [rsp+rdx-0x38B80000], 0xFFFFA0C0 ; jmp qword [rdi+rax*8+0x00] ; (1 found)
0x4bf3e2: sub ah, byte [rcx] ; cli ; jmp qword [rsi+0x2E] ; (1 found)
0x42cc76: sub al, 0x02 ; add byte [rax+0x0F], cl ; retn 0x66C3 ; (1 found)
0x472e1d: sub al, 0x0F ; xchg eax, esp ; retn 0xD108 ; (1 found)
0x41f22b: sub al, 0x4F ; add byte [rax+0x39], cl ; ret ; (5 found)
0x41cecb: sub al, 0x4F ; add byte [rax-0x39], cl ; ret ; (6 found)
0x47cd8a: sub al, byte [rax] ; add byte [rax-0x7D], cl ; ret ; (1 found)
0x48e848: sub al, ch ; retn 0x0023 ; (1 found)
0x4610fd: sub bh, byte [rax+0x00000048] ; syscall ; (1 found)
0x4b16f2: sub bh, byte [rbx-0x01] ; jmp qword [rsi+0x2E] ; (1 found)
0x480c37: sub bh, dh ; jmp qword [rsi+0x0F] ; (2 found)
0x4a45c7: sub byte [r8+0x39], r9L ; retn 0x870F ; (1 found)
0x4842e5: sub byte [r9+r9*4+0x04], cl ; retn 0x8B4C ; (1 found)
0x423066: sub byte [rax+0x00000000], 0x00 ; add byte [rax], al ; ret ; (2 found)
0x419910: sub byte [rax+0x39], cl ; retn 0x850F ; (4 found)
0x4a45c8: sub byte [rax+0x39], cl ; retn 0x870F ; (1 found)
0x4248eb: sub byte [rax+0x39], cl ; ror byte [rax+0x0F], 1 ; retn 0x2B48 ; (1 found)
0x41a4b4: sub byte [rax-0x0080], al ; jmp qword [rdi+rcx] ; (1 found)
0x45f079: sub byte [rax-0x39], cl ; ret ; (1 found)
0x42ccf4: sub byte [rax-0x5C8B0000], al ; ret ; (1 found)
0x4a45c4: sub byte [rax-0x75], cl ; sub byte [r8+0x39], r9L ; retn 0x870F ; (1 found)
0x4be0d4: sub byte [rax-0x77], cl ; adc al, ch ; ret ; (1 found)
0x48fc64: sub byte [rax-0x77], cl ; retn 0xC148 ; (1 found)
0x4199c3: sub byte [rax], al ; add byte [rax+0x39], cl ; ret ; (1 found)
0x461068: sub byte [rax], al ; add byte [rax], al ; syscall ; (1 found)
0x48d4b0: sub byte [rbp+0x29], al ; ret ; (2 found)
0x42d294: sub byte [rbx+0x0F480002], ah ; retn 0x0FC3 ; (1 found)
0x41b6b9: sub byte [rbx+0x5D], bl ; ret ; (5 found)
0x41358a: sub byte [rbx-0x00063B7B], cl ; jmp qword [rdi+rdi*2] ; (1 found)
0x4b3df8: sub byte [rbx-0x1B], dh ; mov eax, 0x00000001 ; ret ; (1 found)
0x4b3df7: sub byte [rbx-0x1B], sil ; mov eax, 0x00000001 ; ret ; (1 found)
0x40af79: sub byte [rcx+0x01], cl ; retn 0x894C ; (1 found)
0x4842e6: sub byte [rcx+rcx*4+0x04], cl ; retn 0x8B4C ; (1 found)
0x4b25b1: sub byte [rcx-0x77], cl ; ret ; (1 found)
0x40af99: sub byte [rcx-0x77], cl ; retn 0x2274 ; (1 found)
0x418e82: sub byte [rcx], ch ; ret ; (1 found)
0x454fb2: sub byte [rdi+0x00], bh ; vmovdqu64  [r8+0x01], ymm17 ; ret ; (2 found)
0x451df3: sub byte [rdi+0x00], bh ; vmovdqu64  [rax+rdx-0x01], ymm16 ; ret ; (2 found)
0x454ee1: sub byte [rdi+0x01], bh ; ret ; (1 found)
0x454edb: sub byte [rdi+0x02], bh ; vmovdqu64  [rcx], ymm16 ; ret ; (1 found)
0x4554cc: sub byte [rdi+0x07], bh ; ret ; (1 found)
0x4511a6: sub byte [rdi+0x07], bh ; vmovdqu64  [rdi+rdx-0x01], ymm17 ; ret ; (3 found)
0x4569d4: sub byte [rdi+0x17], bh ; vmovdqu64  [rdi+rdx-0x0000001F], ymm19 ; ret ; (1 found)
0x451df9: sub byte [rdi+0x44], bh ; adc bh, bh ; ret ; (2 found)
0x454f81: sub byte [rdi+0x44], bh ; cmp bh, bh ; ret ; (1 found)
0x4559ca: sub byte [rdi+0x7F], bh ; jmp qword [rdx-0x1F] ; (2 found)
0x460b73: sub byte [rdi], cl ; xchg eax, esp ; retn 0x3948 ; (1 found)
0x468232: sub byte [rdi], cl ; xchg eax, esp ; retn 0xF739 ; (2 found)
0x49daa7: sub byte [rdx-0x4D], ah ; and byte [r15], r15L ; retn 0xC500 ; (1 found)
0x479b4c: sub cl, bh ; add eax, 0x3D8D4800 ; retn 0x05C9 ; (1 found)
0x47f085: sub cl, ch ; ret ; (1 found)
0x492212: sub cl, dl ; clc ; jmp qword [rsi+0x2E] ; (1 found)
0x488955: sub dh, al ; add byte [0x0000000000419846], ch ; jmp qword [rsi-0x70] ; (1 found)
0x416820: sub dh, al ; add byte [rcx-0x7D], cl ; ret ; (1 found)
0x4ad7ea: sub eax,  [0x00000000] ; ret ; (1 found)
0x4632a1: sub eax,  [rax] ; add byte [rax], al ; syscall ; (2 found)
0x4248f4: sub eax,  [rdi+0x18] ; ret ; (1 found)
0x423ad7: sub eax,  [rsi+0x10] ; ret ; (1 found)
0x42324b: sub eax, 0x01 ; ret ; (4 found)
0x4a940f: sub eax, 0x48FFFFF7 ; add esp, 0x000000D8 ; ret ; (1 found)
0x4adaa6: sub eax, 0x58C48348 ; ret ; (2 found)
0x488958: sub eax, 0xFFF90EE9 ; jmp qword [rsi-0x70] ; (1 found)
0x42e73c: sub eax, ecx ; ret ; (51 found)
0x423249: sub eax, ecx ; sub eax, 0x01 ; ret ; (1 found)
0x42ffbf: sub eax, ecx ; vzeroupper ; ret ; (13 found)
0x449259: sub eax, edi ; ret ; (6 found)
0x458bde: sub eax, edi ; shr rax, 0x02 ; ret ; (3 found)
0x423aff: sub eax, edx ; ret ; (57 found)
0x42fcc2: sub eax, edx ; vzeroupper ; ret ; (25 found)
0x4ad080: sub eax, esi ; ret ; (1 found)
0x45eae8: sub ebx,  [rbx+0x5D] ; pop r12 ; ret ; (1 found)
0x41cd2b: sub ecx,  [rdx-0x02] ; call qword [rax-0x76AAABBF] ; (1 found)
0x46118c: sub edi,  [rax+0x00000048] ; syscall ; (1 found)
0x49e89c: sub edi, 0x10 ; add rax, rdi ; ret ; (1 found)
0x456a64: sub edi, edx ; lea eax,  [rdi+rax+0x00000080] ; ret ; (1 found)
0x456a34: sub edi, edx ; lea eax,  [rdi+rax+0x20] ; ret ; (1 found)
0x456a44: sub edi, edx ; lea eax,  [rdi+rax+0x40] ; ret ; (1 found)
0x456a54: sub edi, edx ; lea eax,  [rdi+rax+0x60] ; ret ; (1 found)
0x457331: sub edi, edx ; lea rax, qword [rdi+rax+0x00000080] ; ret ; (1 found)
0x4572e5: sub edi, edx ; lea rax, qword [rdi+rax+0x20] ; ret ; (2 found)
0x4572b3: sub edi, edx ; lea rax, qword [rdi+rax+0x40] ; ret ; (2 found)
0x45736c: sub edi, edx ; lea rax, qword [rdi+rax+0x60] ; ret ; (1 found)
0x4ac2fa: sub edi, esi ; jmp qword [rsi-0x70] ; (2 found)
0x41efba: sub edx, esi ; call qword [r12+0x70] ; (1 found)
0x41c931: sub edx, esi ; call qword [rax+0x70] ; (1 found)
0x47a1b6: sub esi,  [rsi-0x08] ; jmp qword [rsi+0x0F] ; (1 found)
0x420b18: sub esi, eax ; mov rdi, rbx ; call qword [r14+0x00000080] ; (1 found)
0x4bff15: sub esp, 0x08 ; add rsp, 0x08 ; ret ; (1 found)
0x45e6d1: sub esp, 0x08 ; call rax ; (1 found)
0x41fd07: sub esp, esi ; call qword [r13+0x40] ; (1 found)
0x41fd06: sub r12, r14 ; call qword [r13+0x40] ; (1 found)
0x44fd93: sub rax, 0x01 ; ret ; (1 found)
0x4ad7e9: sub rax, qword [0x00000000] ; ret ; (1 found)
0x4ad7e8: sub rax, qword [fs:0x00000000] ; ret ; (1 found)
0x4248f3: sub rax, qword [rdi+0x18] ; ret ; (1 found)
0x423248: sub rax, rcx ; sub eax, 0x01 ; ret ; (1 found)
0x449258: sub rax, rdi ; ret ; (6 found)
0x458bdd: sub rax, rdi ; shr rax, 0x02 ; ret ; (3 found)
0x44fe73: sub rax, rdx ; ret ; (2 found)
0x49e89b: sub rdi, 0x10 ; add rax, rdi ; ret ; (1 found)
0x45732f: sub rdi, rdx ; lea rax, qword [rdi+rax+0x00000080] ; ret ; (2 found)
0x4572e4: sub rdi, rdx ; lea rax, qword [rdi+rax+0x20] ; ret ; (2 found)
0x4572b2: sub rdi, rdx ; lea rax, qword [rdi+rax+0x40] ; ret ; (2 found)
0x45736b: sub rdi, rdx ; lea rax, qword [rdi+rax+0x60] ; ret ; (1 found)
0x41efb9: sub rdx, rsi ; call qword [r12+0x70] ; (1 found)
0x41c930: sub rdx, rsi ; call qword [rax+0x70] ; (1 found)
0x420b17: sub rsi, rax ; mov rdi, rbx ; call qword [r14+0x00000080] ; (1 found)
0x4bff14: sub rsp, 0x08 ; add rsp, 0x08 ; ret ; (1 found)
0x45e6d0: sub rsp, 0x08 ; call rax ; (1 found)
0x45f670: syscall ; mov eax, r8d ; ret ; (1 found)
0x424aa6: syscall ; ret ; (7 found)
0x4032e4: syscall ; (138 found)
0x46176e: test  [0x0000000049461775], ebx ; mov edi,  [rbp+0x00] ; call rbx ; (1 found)
0x4bb5c3: test  [0x00000000494BAA2D], ebx ; mov eax,  [rax] ; ret ; (1 found)
0x448f43: test  [0xFFFFFFFF89448F4A], edi ; retn 0x8948 ; (1 found)
0x42cfd5: test  [rax+0x02], 0x440F4800 ; retn 0x66C3 ; (1 found)
0x434968: test  [rax+rax-0x08B70000], ecx ; retn 0x0002 ; (1 found)
0x4173c2: test  [rax+rcx*4-0x73], 0xFFFFF714 ; mov byte [rbp-0x000008E8], r8L ; call rax ; (1 found)
0x461dad: test  [rax-0x75], 0x8945A845 ; out dx, eax ; call rax ; (1 found)
0x414dc7: test  [rax-0x7C000005], edx ; retn 0x4830 ; (1 found)
0x46678c: test  [rax-0x7FBEF732], 0x450F2DFF ; retn 0x014D ; (1 found)
0x4771ea: test  [rax], eax ; add byte [rax-0x7D], cl ; ret ; (1 found)
0x4b974a: test  [rax], eax ; add rax, rbp ; jmp rax ; (1 found)
0x48b1d0: test  [rax], ecx ; idiv edi ; call qword [rax] ; (4 found)
0x4171cd: test  [rax], edx ; idiv edi ; call qword [rax] ; (4 found)
0x4b9749: test  [rax], r8d ; add rax, rbp ; jmp rax ; (1 found)
0x460511: test  [rbp+0x48000000], edi ; add esp, 0x78 ; ret ; (1 found)
0x4617d6: test  [rbp+0x49000000], edx ; mov edi,  [rbp+0x00] ; call rbx ; (1 found)
0x4625b6: test  [rbp+0x49000000], esi ; mov edi,  [rbp+0x00] ; call rbx ; (1 found)
0x435650: test  [rbx+0x03], ebp ; add byte [rax], al ; ret ; (1 found)
0x4949f8: test  [rbx+0x31000000], esp ; rol bl, 0x83 ; retn 0x6620 ; (1 found)
0x48c935: test  [rbx-0x16000020], ebp ; rcr edx, 0xFFFFFFFF ; call qword [rax+0x48BD8B48] ; (1 found)
0x437683: test  [rbx-0x76B703AA], 0x5789F74F ; cld ; ret ; (2 found)
0x43cfa3: test  [rbx-0x76B703B2], 0x4F89F757 ; cld ; ret ; (2 found)
0x46665a: test  [rbx-0x7FBEF736], 0x450F2DFF ; retn 0x014D ; (1 found)
0x468238: test  [rcx+0x0F], 0x2144C09C ; retn 0xF283 ; (1 found)
0x47ced9: test  [rcx+rcx-0x01], 0xFFFD6AE9 ; jmp qword [rsi+0x0F] ; (1 found)
0x4607a7: test  [rdi+0x48000000], ebx ; add esp, 0x68 ; ret ; (1 found)
0x48515a: test  [rdi+rdi*8-0x01], esp ; jmp qword [rsi+0x00] ; (2 found)
0x493015: test  [rdi], 0xFFFD7384 ; call qword [rax+0x48] ; (1 found)
0x4617a1: test  [rdx+0x49000000], ecx ; mov edi,  [rbp+0x00] ; call rbx ; (1 found)
0x412d26: test  [rdx+rbp*8-0x38B60001], ebp ; retn 0xFFA0 ; (1 found)
0x41ba01: test  [rdx-0x77000000], edi ; retn 0xE281 ; (1 found)
0x48369b: test  [rdx-0x7CFFFFFC], eax ; ret ; (1 found)
0x42cf19: test  [rdx], eax ; add byte [rax+0x0F], cl ; retn 0x66C3 ; (1 found)
0x43458d: test  [rsi+0x29FFFFFE], ebx ; enter 0xF8C5, 0x77 ; ret ; (1 found)
0x4adc94: test  [rsi+0x48000000], ebp ; add esp, 0x68 ; ret ; (1 found)
0x48c705: test  [rsi+rbp*8-0x0E160001], edx ; fdiv st7, st0 ; call qword [rax+0x087E8B48] ; (1 found)
0x4102a5: test  [rsi-0x76000020], ecx ; ret ; (1 found)
0x4bb6d7: test al, 0x00 ; add byte [rax], al ; ret ; (1 found)
0x461db0: test al, 0x45 ; mov edi, ebp ; call rax ; (2 found)
0x4892fe: test bh, dh ; jmp qword [rsi+0x2E] ; (1 found)
0x46d001: test byte [0xFFFFFFFFF746D00B], dh ; retn 0x0000 ; (1 found)
0x46d00d: test byte [0xFFFFFFFFF746D018], dl ; retn 0x0000 ; (1 found)
0x4afdd3: test byte [rax+rax-0x76B40000], bh ; dec  [rax-0x7D] ; ret ; (1 found)
0x448ce7: test byte [rax-0x73], 0x04 ; aaa ; ret ; (1 found)
0x4aaf26: test byte [rax-0x73], 0x05 ; retn 0x01BA ; (1 found)
0x4b221a: test byte [rax-0x75], 0x3C ; retn 0xB60F ; (1 found)
0x4bd66e: test byte [rax-0x76FFFFFE], dl ; retn 0xE283 ; (1 found)
0x48ff40: test byte [rax-0x77], 0xDF ; call qword [r15+0x38] ; (1 found)
0x41fe78: test byte [rax-0x77], 0xDF ; call qword [rbp+0x70] ; (1 found)
0x423619: test byte [rax-0x77], 0xDF ; call qword [rcx+0x58] ; (1 found)
0x418c80: test byte [rax-0x77], 0xEF ; call qword [r15+0x38] ; (1 found)
0x41ba5b: test byte [rax-0x77], 0xEF ; call qword [rbx+0x10] ; (1 found)
0x492673: test byte [rax-0x77], 0xEF ; mov eax, r13d ; syscall ; (1 found)
0x41fd02: test byte [rax-0x77], 0xEF ; sub r12, r14 ; call qword [r13+0x40] ; (1 found)
0x459a06: test byte [rax], 0x00 ; add byte [rax-0x7D], cl ; retn 0x0F01 ; (1 found)
0x42cca1: test byte [rax], al ; add bh, dh ; retn 0x0000 ; (1 found)
0x45f55e: test byte [rbp+0x48FFFFFD], ah ; lea edi,  [rsp+0x20] ; call 0x00000000 ; (1 found)
0x425186: test byte [rcx+0x0000CAB8], 0x00 ; syscall ; (5 found)
0x4b8ba3: test byte [rcx+0x0F], 0x95 ; ret ; (1 found)
0x4bfd40: test byte [rcx+rax-0x76B80000], al ; retn 0xC148 ; (1 found)
0x485d1c: test byte [rcx+rcx*4-0x19], 0x4C ; mov  [rbp-0x000000E8], eax ; call rax ; (1 found)
0x42b232: test byte [rcx+rcx*4-0x19], 0xE8 ; retn 0xFFFF ; (1 found)
0x40c662: test byte [rcx-0x7CFFFFFF], cl ; jmp qword [rdi+rcx] ; (1 found)
0x49f995: test byte [rdi+0x00000080], al ; ret ; (6 found)
0x4a0276: test byte [rdi+0x000000A0], al ; ret ; (1 found)
0x4a0286: test byte [rdi+0x000000C0], al ; ret ; (1 found)
0x4a024c: test byte [rdi+0x000000E0], al ; ret ; (1 found)
0x45750f: test byte [rdi+rdi*8-0x01], ch ; jmp qword [rsi+0x66] ; (1 found)
0x4562d7: test byte [rdi+rdi*8-0x01], dh ; jmp qword [rdx-0x4E] ; (1 found)
0x418630: test byte [rdi-0x09FFFFDF], ah ; ret ; (1 found)
0x45d5cb: test byte [rdi], 0x84 ; ret ; (1 found)
0x40e9db: test byte [rdi], 0x8E ; retn 0x0038 ; (1 found)
0x4b88c0: test byte [rdi], 0x95 ; retn 0xD349 ; (1 found)
0x403668: test byte [rdi], 0x9F ; retn 0xC031 ; (1 found)
0x40ea87: test byte [rdi], 0x9F ; retn 0xD629 ; (2 found)
0x4055a9: test byte [rdx+0x48000000], ah ; add esp, 0x00000098 ; ret ; (1 found)
0x4492fd: test byte [rsi+0x48000000], bl ; bsf eax, edx ; ret ; (1 found)
0x468ca8: test cl, bh ; jmp qword [rsi+0x0F] ; (1 found)
0x4736f1: test dl, dl ; add eax, 0x89480000 ; retn 0x294C ; (1 found)
0x4aab33: test eax, 0x3EC80148 ; jmp rax ; (1 found)
0x42d153: test eax, 0x48000251 ; cmove eax, edx ; ret ; (1 found)
0x43b146: test eax, 0x7F0F41F3 ; add byte [rax-0x007F], cl ; retn 0x0080 ; (2 found)
0x429367: test eax, 0x85000CF0 ; ror byte [rdi], 0x84 ; ret ; (1 found)
0x473293: test eax, 0x85FFF8DE ; ror byte [rdi], 0x94 ; ret ; (1 found)
0x44fda8: test eax, 0xFFFD3BE9 ; jmp qword [rsi-0x70] ; (1 found)
0x462d5f: test eax, eax ; cmove eax, edx ; ret ; (1 found)
0x416056: test eax, esp ; idiv bh ; jmp qword [rax+rcx*2-0x75] ; (1 found)
0x437682: test qword [rbx-0x76B703AA], 0x000000005789F74F ; cld ; ret ; (2 found)
0x490e26: ud0 edi, edi ; jmp qword [rsi+0x0F] ; (1 found)
0x404670: verr word [r14+0x0F] ; outsb ; ret ; (1 found)
0x403d3f: verr word [rsi+0x0F] ; outsb ; ret ; (2 found)
0x450c2b: vmovdqu  [r8+0x20], ymm1 ; vzeroupper ; ret ; (2 found)
0x44072e: vmovdqu  [r9-0x10], xmm1 ; ret ; (1 found)
0x44071a: vmovdqu  [r9-0x20], ymm1 ; ret ; (1 found)
0x440701: vmovdqu  [r9-0x20], ymm3 ; ret ; (1 found)
0x4406fb: vmovdqu  [r9-0x40], ymm2 ; vmovdqu  [r9-0x20], ymm3 ; ret ; (1 found)
0x451c06: vmovdqu  [rax+rdx-0x10], xmm0 ; vzeroupper ; ret ; (1 found)
0x451b24: vmovdqu  [rax+rdx-0x20], ymm0 ; vzeroupper ; ret ; (1 found)
0x450b66: vmovdqu  [rcx], ymm0 ; vzeroupper ; ret ; (1 found)
0x451bac: vmovdqu  [rdi+0x60], ymm0 ; vzeroupper ; ret ; (3 found)
0x450aab: vmovdqu  [rdi+rdx-0x0080], ymm7 ; vzeroupper ; ret ; (1 found)
0x449c2e: vmovdqu  [rdi+rdx-0x0F], xmm3 ; vzeroupper ; ret ; (1 found)
0x4509f0: vmovdqu  [rdi+rdx-0x10], xmm1 ; ret ; (4 found)
0x449c4e: vmovdqu  [rdi+rdx-0x1F], ymm3 ; vzeroupper ; ret ; (1 found)
0x450939: vmovdqu  [rdi+rdx-0x20], ymm1 ; vzeroupper ; ret ; (2 found)
0x450e64: vmovdqu  [rdi+rdx-0x20], ymm3 ; vzeroupper ; ret ; (2 found)
0x450a2c: vmovdqu  [rdi+rdx-0x40], ymm3 ; vzeroupper ; ret ; (1 found)
0x451b35: vmovdqu  [rdi-0x20], ymm0 ; vzeroupper ; ret ; (1 found)
0x44072a: vmovdqu  [rdi], xmm0 ; vmovdqu  [r9-0x10], xmm1 ; ret ; (1 found)
0x4509ec: vmovdqu  [rdi], xmm0 ; vmovdqu  [rdi+rdx-0x10], xmm1 ; ret ; (4 found)
0x450089: vmovdqu  [rdi], xmm0 ; vmovdqu  [rsi-0x10], xmm0 ; ret ; (1 found)
0x440716: vmovdqu  [rdi], ymm0 ; vmovdqu  [r9-0x20], ymm1 ; ret ; (1 found)
0x451aca: vmovdqu  [rdi], ymm0 ; vzeroupper ; ret ; (1 found)
0x45007f: vmovdqu  [rdi], ymm2 ; vmovdqu  [rsi-0x20], ymm2 ; ret ; (1 found)
0x450be6: vmovdqu  [rdx+rdi-0x20], ymm8 ; vzeroupper ; ret ; (1 found)
0x45008d: vmovdqu  [rsi-0x10], xmm0 ; ret ; (1 found)
0x450083: vmovdqu  [rsi-0x20], ymm2 ; ret ; (1 found)
0x455518: vmovdqu64  [eax], ymm16 ; vmovdqu64  [rax+rdx-0x01], ymm16 ; ret ; (1 found)
0x451cdb: vmovdqu64  [fs:rax], zmm16 ; vmovdqu64  [rax+rdx-0x01], zmm16 ; ret ; (1 found)
0x454fb5: vmovdqu64  [r8+0x01], ymm17 ; ret ; (2 found)
0x454faf: vmovdqu64  [r8], ymm16 ; vmovdqu64  [r8+0x01], ymm17 ; ret ; (2 found)
0x451441: vmovdqu64  [r8], zmm16 ; ret ; (2 found)
0x451e06: vmovdqu64  [rax+rdx-0x01], xmm16 ; ret ; (2 found)
0x451df6: vmovdqu64  [rax+rdx-0x01], ymm16 ; ret ; (2 found)
0x451ce2: vmovdqu64  [rax+rdx-0x01], zmm16 ; ret ; (1 found)
0x451e00: vmovdqu64  [rax], xmm16 ; vmovdqu64  [rax+rdx-0x01], xmm16 ; ret ; (2 found)
0x451df0: vmovdqu64  [rax], ymm16 ; vmovdqu64  [rax+rdx-0x01], ymm16 ; ret ; (2 found)
0x451cdc: vmovdqu64  [rax], zmm16 ; vmovdqu64  [rax+rdx-0x01], zmm16 ; ret ; (1 found)
0x455530: vmovdqu64  [rcx+0x02], ymm16 ; vmovdqu64  [rcx+0x03], ymm16 ; ret ; (2 found)
0x455537: vmovdqu64  [rcx+0x03], ymm16 ; ret ; (2 found)
0x451cf0: vmovdqu64  [rcx+0x06], zmm16 ; vmovdqu64  [rcx+0x07], zmm16 ; ret ; (2 found)
0x451cf7: vmovdqu64  [rcx+0x07], zmm16 ; ret ; (2 found)
0x454ede: vmovdqu64  [rcx], ymm16 ; ret ; (1 found)
0x451364: vmovdqu64  [rcx], zmm16 ; ret ; (1 found)
0x454f77: vmovdqu64  [rdi+0x03], ymm23 ; vmovdqu64  [rdx+rdi-0x01], ymm24 ; ret ; (1 found)
0x451401: vmovdqu64  [rdi+0x03], zmm23 ; vmovdqu64  [rdx+rdi-0x01], zmm24 ; ret ; (1 found)
0x455be7: vmovdqu64  [rdi+rdx-0x0000000F], xmm19 ; lea rax, qword [rdi+rdx] ; ret ; (1 found)
0x4569a7: vmovdqu64  [rdi+rdx-0x0000000F], xmm19 ; ret ; (1 found)
0x455c17: vmovdqu64  [rdi+rdx-0x0000001F], ymm19 ; lea rax, qword [rdi+rdx] ; ret ; (1 found)
0x4569d7: vmovdqu64  [rdi+rdx-0x0000001F], ymm19 ; ret ; (1 found)
0x4554c1: vmovdqu64  [rdi+rdx-0x01], ymm16 ; vmovdqu64  [rdi], ymm16 ; ret ; (1 found)
0x4511a9: vmovdqu64  [rdi+rdx-0x01], ymm17 ; ret ; (3 found)
0x454d6e: vmovdqu64  [rdi+rdx-0x01], ymm18 ; vmovdqu64  [rdi+rdx-0x02], ymm19 ; ret ; (1 found)
0x455222: vmovdqu64  [rdi+rdx-0x01], ymm19 ; ret ; (2 found)
0x451c84: vmovdqu64  [rdi+rdx-0x01], zmm16 ; vmovdqu64  [rdi], zmm16 ; ret ; (1 found)
0x4510c2: vmovdqu64  [rdi+rdx-0x01], zmm17 ; ret ; (2 found)
0x4511e0: vmovdqu64  [rdi+rdx-0x01], zmm18 ; vmovdqu64  [rdi+rdx-0x02], zmm19 ; ret ; (1 found)
0x4516a7: vmovdqu64  [rdi+rdx-0x01], zmm19 ; ret ; (2 found)
0x45521a: vmovdqu64  [rdi+rdx-0x02], ymm18 ; vmovdqu64  [rdi+rdx-0x01], ymm19 ; ret ; (2 found)
0x454d76: vmovdqu64  [rdi+rdx-0x02], ymm19 ; ret ; (1 found)
0x45169f: vmovdqu64  [rdi+rdx-0x02], zmm18 ; vmovdqu64  [rdi+rdx-0x01], zmm19 ; ret ; (2 found)
0x4511e8: vmovdqu64  [rdi+rdx-0x02], zmm19 ; ret ; (1 found)
0x454dff: vmovdqu64  [rdi+rdx-0x03], ymm22 ; vmovdqu64  [rdi+rdx-0x04], ymm23 ; ret ; (1 found)
0x45127f: vmovdqu64  [rdi+rdx-0x03], zmm22 ; vmovdqu64  [rdi+rdx-0x04], zmm23 ; ret ; (1 found)
0x454e07: vmovdqu64  [rdi+rdx-0x04], ymm23 ; ret ; (1 found)
0x451287: vmovdqu64  [rdi+rdx-0x04], zmm23 ; ret ; (1 found)
0x4569a1: vmovdqu64  [rdi], xmm18 ; vmovdqu64  [rdi+rdx-0x0000000F], xmm19 ; ret ; (1 found)
0x4554c9: vmovdqu64  [rdi], ymm16 ; ret ; (1 found)
0x4511a3: vmovdqu64  [rdi], ymm16 ; vmovdqu64  [rdi+rdx-0x01], ymm17 ; ret ; (3 found)
0x4569d1: vmovdqu64  [rdi], ymm18 ; vmovdqu64  [rdi+rdx-0x0000001F], ymm19 ; ret ; (1 found)
0x451c8c: vmovdqu64  [rdi], zmm16 ; ret ; (1 found)
0x4510bc: vmovdqu64  [rdi], zmm16 ; vmovdqu64  [rdi+rdx-0x01], zmm17 ; ret ; (2 found)
0x454f7e: vmovdqu64  [rdx+rdi-0x01], ymm24 ; ret ; (1 found)
0x451408: vmovdqu64  [rdx+rdi-0x01], zmm24 ; ret ; (1 found)
0x454ed8: vmovdqu64  [rdx], ymm24 ; vmovdqu64  [rcx], ymm16 ; ret ; (1 found)
0x45135e: vmovdqu64  [rdx], zmm24 ; vmovdqu64  [rcx], zmm16 ; ret ; (1 found)
0x455560: vmovdqu8  [rax], ymm16 ; ret ; (1 found)
0x451d23: vmovdqu8  [rax], zmm16 ; ret ; (1 found)
0x450098: vmovq  [rdi], xmm0 ; vmovq  [rsi-0x08], xmm0 ; ret ; (1 found)
0x45009c: vmovq  [rsi-0x08], xmm0 ; ret ; (1 found)
0x440a30: vmovups  [r9+0x0180], zmm14 ; vmovups  [r9+0x01C0], zmm15 ; ret ; (1 found)
0x440a37: vmovups  [r9+0x01C0], zmm15 ; ret ; (1 found)
0x4408c9: vmovups  [r9-0x0080], zmm14 ; vmovups  [r9-0x40], zmm15 ; ret ; (1 found)
0x4406cb: vmovups  [r9-0x0080], zmm2 ; vmovups  [r9-0x40], zmm3 ; ret ; (1 found)
0x44068f: vmovups  [r9-0x0080], zmm6 ; vmovups  [r9-0x40], zmm7 ; ret ; (1 found)
0x4408d0: vmovups  [r9-0x40], zmm15 ; ret ; (1 found)
0x4406d2: vmovups  [r9-0x40], zmm3 ; ret ; (1 found)
0x440696: vmovups  [r9-0x40], zmm7 ; ret ; (1 found)
0x440b92: vmovups  [rdi-0x01C0], zmm14 ; vmovups  [rdi-0x0200], zmm15 ; ret ; (1 found)
0x440b99: vmovups  [rdi-0x0200], zmm15 ; ret ; (1 found)
0x45006c: vmovups  [rdi], zmm2 ; vmovups  [rsi-0x40], zmm2 ; ret ; (1 found)
0x450198: vmovups  [rsi+0x0080], zmm2 ; vmovups  [rsi+0x00C0], zmm2 ; ret ; (1 found)
0x45019f: vmovups  [rsi+0x00C0], zmm2 ; ret ; (1 found)
0x450235: vmovups  [rsi+0x0180], zmm2 ; vmovups  [rsi+0x01C0], zmm2 ; ret ; (1 found)
0x45023c: vmovups  [rsi+0x01C0], zmm2 ; ret ; (1 found)
0x450037: vmovups  [rsi-0x0080], zmm2 ; vmovups  [rsi-0x40], zmm2 ; ret ; (3 found)
0x45003e: vmovups  [rsi-0x40], zmm2 ; ret ; (4 found)
0x461aae: vpand ymm1, ymm15,  [rdi] ; lahf ; ret ; (1 found)
0x446da1: vpcmpeqb xmm0, xmm0, xmm1 ; lea r10, qword [r10+r9] ; jmp r10 ; (2 found)
0x4090e5: vpsubsb xmm14, xmm15,  [rax+rax*4+0x2948FFFF] ; ret ; (1 found)
0x451f33: vzeroall ; ret ; (18 found)
0x42fcc4: vzeroupper ; ret ; (238 found)
0x4bcc7b: wait ; hlt ; call qword [rax-0x76B6A8BF] ; (1 found)
0x418b06: xchg  [0xFFFFFFFF89418B21], eax ; retn 0xC083 ; (1 found)
0x49fb02: xchg  [rax-0x3D], eax ; xor eax, eax ; ret ; (1 found)
0x49f96d: xchg  [rax-0x3D], esp ; xor eax, eax ; ret ; (1 found)
0x49f96c: xchg  [rax-0x3D], r12d ; xor eax, eax ; ret ; (1 found)
0x49fb01: xchg  [rax-0x3D], r8d ; xor eax, eax ; ret ; (1 found)
0x419303: xchg  [rax-0x76FFFFF5], ecx ; retn 0xC083 ; (1 found)
0x41ea65: xchg  [rax-0x76FFFFFF], ebp ; retn 0xC083 ; (1 found)
0x4bfaa0: xchg  [rax-0x77], ecx ; retn 0xC148 ; (2 found)
0x49f9ad: xchg  [rax], esp ; ret ; (6 found)
0x49f9ac: xchg  [rax], r12d ; ret ; (6 found)
0x42ced5: xchg  [rbp+0x02], ecx ; add byte [rax+0x0F], cl ; retn 0x66C3 ; (1 found)
0x45962e: xchg  [rbp+rdi*8-0x0F760001], esi ; ret ; (1 found)
0x49fb16: xchg  [rbp-0x14], esi ; lea rax, qword [rdi+rax*4] ; ret ; (1 found)
0x49f94e: xchg  [rbx], edi ; xor byte [rbp+0x1D], dh ; ret ; (1 found)
0x48e6dc: xchg  [rcx-0x76FFFFF9], edi ; retn 0xC083 ; (1 found)
0x4afe55: xchg  [rcx], edi ; sti ; call qword [rax-0x00043517] ; (1 found)
0x415429: xchg  [rdi-0x77000000], esp ; retn 0xC083 ; (1 found)
0x48d689: xchg  [rdx-0x76FFFFF2], ebp ; retn 0xC083 ; (1 found)
0x42d0a4: xchg  [rdx], eax ; add bh, dh ; retn 0x0000 ; (1 found)
0x418d6d: xchg  [rsi-0x76FFFFEE], esi ; retn 0xC083 ; (1 found)
0x419f54: xchg  [rsi-0x76FFFFFF], ecx ; retn 0xC083 ; (1 found)
0x447c9c: xchg bh, bh ; add eax, 0x83480000 ; retn 0x4910 ; (1 found)
0x4474bc: xchg bh, bl ; or eax, 0x83480000 ; retn 0x4910 ; (1 found)
0x49bcf1: xchg bl, cl ; adc eax, 0x83480000 ; retn 0xE910 ; (1 found)
0x433b23: xchg byte [0x83480000+rax], ch ; retn 0xEB10 ; (1 found)
0x48f23b: xchg byte [rax+0x01], cl ; lock jmp rax ; (1 found)
0x446b9f: xchg byte [rax+rax+0x00], bh ; add byte [rax-0x7D], cl ; retn 0xE910 ; (1 found)
0x41f8e7: xchg byte [rax+rax-0x2DCF0000], ah ; mov rdi, rbp ; call qword [rbx+0x00000080] ; (1 found)
0x433fcb: xchg byte [rax+rax-0x7CB80000], al ; retn 0xEB10 ; (1 found)
0x44637f: xchg byte [rax+rcx-0x7CB80000], bl ; retn 0xE910 ; (1 found)
0x445b5f: xchg byte [rax+rdx-0x7CB80000], bh ; retn 0xE910 ; (1 found)
0x4ba7b4: xchg byte [rax-0x39], cl ; retn 0xFFFF ; (1 found)
0x4b6821: xchg byte [rax-0x77], cl ; retn 0x294C ; (1 found)
0x4466bf: xchg byte [rbp+rax+0x00], bl ; add byte [rax-0x7D], cl ; retn 0xE910 ; (1 found)
0x445e9f: xchg byte [rbp+rcx+0x00], bh ; add byte [rax-0x7D], cl ; retn 0xE910 ; (1 found)
0x4332b3: xchg byte [rbp+rcx-0x7CB80000], bl ; retn 0xEB10 ; (1 found)
0x44567f: xchg byte [rbp+rdx-0x7CB80000], bl ; retn 0xE910 ; (1 found)
0x4a4439: xchg byte [rbx+rax+0x00], bh ; add byte [rax+0x01], cl ; retn 0xBA41 ; (1 found)
0x433d03: xchg byte [rbx+rax+0x00], cl ; add byte [rax-0x7D], cl ; retn 0xEB10 ; (1 found)
0x44685f: xchg byte [rbx+rax-0x7CB80000], bh ; retn 0xE910 ; (1 found)
0x433493: xchg byte [rbx+rcx-0x7CB80000], bh ; retn 0xEB10 ; (1 found)
0x422c3a: xchg byte [rcx+0x48000000], ah ; mov edi, ebx ; call qword [r13+0x60] ; (1 found)
0x433ee3: xchg byte [rcx+rax+0x00], ch ; add byte [rax-0x7D], cl ; retn 0xEB10 ; (1 found)
0x4ba050: xchg byte [rcx+rax-0x10], cl ; jmp rax ; (1 found)
0x4914a9: xchg byte [rdx+0x4C000001], ch ; mov edi, ebp ; call qword [r14+0x20] ; (1 found)
0x433df3: xchg byte [rdx+rax+0x00], bl ; add byte [rax-0x7D], cl ; retn 0xEB10 ; (1 found)
0x4459bf: xchg byte [rdx+rdx+0x00], bl ; add byte [rax-0x7D], cl ; retn 0xE910 ; (1 found)
0x49c596: xchg byte [rsi], ah ; or eax, 0x83480000 ; retn 0x4910 ; (1 found)
0x4333a3: xchg byte [rsp+rcx-0x7CB80000], ch ; retn 0xEB10 ; (1 found)
0x445e35: xchg dh, ah ; or eax, 0x83480000 ; retn 0x4910 ; (1 found)
0x446655: xchg dh, al ; add eax, 0x83480000 ; retn 0x4910 ; (1 found)
0x433285: xchg dl, cl ; or eax, 0x83480000 ; retn 0x4910 ; (1 found)
0x49a368: xchg eax, ebp ; adc eax, 0x83480000 ; retn 0xE910 ; (1 found)
0x4bb86c: xchg eax, ebp ; cmp ah, 0xFF ; jmp qword [rsi+0x0F] ; (1 found)
0x4bbe47: xchg eax, ebp ; cmp dh, 0xFF ; jmp qword [rsi+0x0F] ; (1 found)
0x464c13: xchg eax, ebp ; ret ; (5 found)
0x4815b7: xchg eax, ebp ; retn 0x0941 ; (1 found)
0x427cc1: xchg eax, ebp ; retn 0x2948 ; (1 found)
0x4298b6: xchg eax, ebp ; retn 0x294C ; (1 found)
0x4b73fa: xchg eax, ebp ; retn 0x3145 ; (4 found)
0x460aa4: xchg eax, ebp ; retn 0x3948 ; (1 found)
0x465913: xchg eax, ebp ; retn 0x8348 ; (1 found)
0x47762b: xchg eax, ebp ; retn 0x8941 ; (4 found)
0x4646ea: xchg eax, ebp ; retn 0x894C ; (1 found)
0x46b4db: xchg eax, ebp ; retn 0x8D47 ; (1 found)
0x46604f: xchg eax, ebp ; retn 0x8D48 ; (1 found)
0x4811fb: xchg eax, ebp ; retn 0xB60F ; (2 found)
0x4785db: xchg eax, ebp ; retn 0xC220 ; (4 found)
0x42523f: xchg eax, ebp ; retn 0xC231 ; (1 found)
0x4b596b: xchg eax, ebp ; retn 0xC931 ; (1 found)
0x4a0c30: xchg eax, ebp ; retn 0xC985 ; (1 found)
0x4b7193: xchg eax, ebp ; retn 0xD348 ; (1 found)
0x4b88c2: xchg eax, ebp ; retn 0xD349 ; (1 found)
0x4295a8: xchg eax, ebp ; retn 0xE083 ; (1 found)
0x45bbb5: xchg eax, ebp ; retn 0xF748 ; (1 found)
0x467bcb: xchg eax, ebp ; stc ; jmp qword [rsi+0x0F] ; (2 found)
0x48a14b: xchg eax, ebp ; std ; jmp qword [rsi-0x70] ; (1 found)
0x40b07b: xchg eax, ebx ; add r10, r11 ; jmp r10 ; (1 found)
0x49fb71: xchg eax, ebx ; lea rax, qword [rdx+rax*4] ; ret ; (1 found)
0x44d01c: xchg eax, ebx ; lea rcx, qword [r11+rcx] ; jmp rcx ; (16 found)
0x435b82: xchg eax, ebx ; lea rdx, qword [r11+rdx] ; jmp rdx ; (150 found)
0x457717: xchg eax, ebx ; ret ; (3 found)
0x45770f: xchg eax, ebx ; retn 0xC085 ; (3 found)
0x475fdc: xchg eax, ebx ; retn 0xD008 ; (2 found)
0x405c66: xchg eax, ecx ; add rax, rcx ; jmp rax ; (1 found)
0x4054b1: xchg eax, ecx ; add rdx, rcx ; jmp rdx ; (4 found)
0x440cca: xchg eax, ecx ; sar ch, 0xFF ; jmp qword [rdx-0x0F] ; (1 found)
0x44536f: xchg eax, ecx ; sub eax, edx ; ret ; (4 found)
0x45fd15: xchg eax, edi ; adc eax, 0x89480000 ; ret ; (1 found)
0x45c7a1: xchg eax, edi ; add rdx, rdi ; jmp rdx ; (1 found)
0x46798c: xchg eax, edi ; stc ; call qword [rax-0x05E1F00D] ; (1 found)
0x4679bf: xchg eax, edi ; stc ; jmp qword [rsi+0x0F] ; (1 found)
0x483e9a: xchg eax, edx ; fcos ; jmp qword [rsi-0x70] ; (1 found)
0x4a6eda: xchg eax, edx ; ret ; (2 found)
0x4b85b0: xchg eax, edx ; retn 0x0148 ; (1 found)
0x44ff18: xchg eax, edx ; retn 0x0F40 ; (2 found)
0x41774a: xchg eax, edx ; retn 0x3948 ; (2 found)
0x47fa99: xchg eax, edx ; retn 0x8948 ; (1 found)
0x4b17b7: xchg eax, edx ; retn 0xCE89 ; (1 found)
0x4b8592: xchg eax, edx ; retn 0xDB31 ; (1 found)
0x43402c: xchg eax, edx ; sub eax, edx ; ret ; (1 found)
0x403115: xchg eax, esi ; add rax, rsi ; jmp rax ; (1 found)
0x4ba2c3: xchg eax, esi ; add rdx, r14 ; jmp rdx ; (1 found)
0x40ada5: xchg eax, esi ; add rdx, rsi ; jmp rdx ; (3 found)
0x401a3a: xchg eax, esi ; idiv edi ; call qword [rax-0x18] ; (1 found)
0x4a1686: xchg eax, esi ; lock sti ; jmp qword [rsi+0x0F] ; (1 found)
0x459937: xchg eax, esi ; retn 0xB60F ; (1 found)
0x48aba6: xchg eax, esi ; stc ; jmp qword [rsi+0x0F] ; (1 found)
0x402f07: xchg eax, esp ; ret ; (7 found)
0x478d40: xchg eax, esp ; retn 0x2040 ; (4 found)
0x4b76ec: xchg eax, esp ; retn 0x2044 ; (1 found)
0x4a0da1: xchg eax, esp ; retn 0x3840 ; (3 found)
0x460b75: xchg eax, esp ; retn 0x3948 ; (1 found)
0x4b7f56: xchg eax, esp ; retn 0x8441 ; (1 found)
0x487d63: xchg eax, esp ; retn 0x894C ; (1 found)
0x46602e: xchg eax, esp ; retn 0x8D48 ; (2 found)
0x4a0d61: xchg eax, esp ; retn 0xB60F ; (1 found)
0x48eb68: xchg eax, esp ; retn 0xCA08 ; (1 found)
0x41ba97: xchg eax, esp ; retn 0xD008 ; (1 found)
0x472e1f: xchg eax, esp ; retn 0xD108 ; (1 found)
0x4af79b: xchg eax, esp ; retn 0xDE89 ; (1 found)
0x4b0121: xchg eax, esp ; retn 0xF631 ; (1 found)
0x468235: xchg eax, esp ; retn 0xF739 ; (1 found)
0x4b3a51: xchg eax, esp ; retn 0xF883 ; (1 found)
0x49fd3d: xchg ebx, eax ; xor eax, eax ; ret ; (2 found)
0x49318e: xchg rax, r8 ; add rsp, 0x18 ; ret ; (1 found)
0x4aec0a: xend ; xor eax, eax ; ret ; (1 found)
0x435a4d: xlatb ; add r9, r11 ; jmp r9 ; (2 found)
0x41948b: xlatb ; jmp rdx ; (4 found)
0x456a65: xlatb ; lea eax,  [rdi+rax+0x00000080] ; ret ; (1 found)
0x456a35: xlatb ; lea eax,  [rdi+rax+0x20] ; ret ; (1 found)
0x456a45: xlatb ; lea eax,  [rdi+rax+0x40] ; ret ; (1 found)
0x456a55: xlatb ; lea eax,  [rdi+rax+0x60] ; ret ; (1 found)
0x457332: xlatb ; lea rax, qword [rdi+rax+0x00000080] ; ret ; (1 found)
0x4572e6: xlatb ; lea rax, qword [rdi+rax+0x20] ; ret ; (2 found)
0x4572b4: xlatb ; lea rax, qword [rdi+rax+0x40] ; ret ; (2 found)
0x45736d: xlatb ; lea rax, qword [rdi+rax+0x60] ; ret ; (1 found)
0x464585: xlatb ; or  [rax], r8d ; ret ; (1 found)
0x476e9b: xlatb ; or byte [rax-0x7D], cl ; retn 0x4801 ; (8 found)
0x434664: xlatb ; ret ; (71 found)
0x448dc7: xlatb ; retn 0x094C ; (1 found)
0x449118: xlatb ; retn 0x0F66 ; (14 found)
0x43464f: xlatb ; retn 0xC085 ; (34 found)
0x434d58: xlatb ; retn 0xC0FF ; (6 found)
0x42e7f0: xlatb ; retn 0xC148 ; (3 found)
0x43509e: xlatb ; retn 0xFF2D ; (8 found)
0x494a23: xlatb ; rol  [rbp+0x315775C0], 0xFFFFFFC0 ; ret ; (1 found)
0x49e363: xlatb ; rol  [rbp+0x316775C0], 0xFFFFFFC0 ; ret ; (1 found)
0x44df0a: xlatb ; ror  [rcx], cl ; retn 0xE074 ; (1 found)
0x42e6d6: xlatb ; sal bh, 1 ; retn 0x8000 ; (8 found)
0x42e596: xlatb ; sal bh, 1 ; retn 0xC000 ; (8 found)
0x42e456: xlatb ; sal bh, 1 ; retn 0xE000 ; (8 found)
0x42e316: xlatb ; sal bh, 1 ; retn 0xF000 ; (8 found)
0x42e1d6: xlatb ; sal bh, 1 ; retn 0xF800 ; (8 found)
0x42e096: xlatb ; sal bh, 1 ; retn 0xFC00 ; (8 found)
0x42df56: xlatb ; sal bh, 1 ; retn 0xFE00 ; (8 found)
0x42de16: xlatb ; sal bh, 1 ; retn 0xFF00 ; (8 found)
0x42dcd6: xlatb ; sal bh, 1 ; retn 0xFF80 ; (8 found)
0x42db96: xlatb ; sal bh, 1 ; retn 0xFFC0 ; (8 found)
0x42da56: xlatb ; sal bh, 1 ; retn 0xFFE0 ; (8 found)
0x42d916: xlatb ; sal bh, 1 ; retn 0xFFF0 ; (8 found)
0x42d7d6: xlatb ; sal bh, 1 ; retn 0xFFF8 ; (8 found)
0x42d696: xlatb ; sal bh, 1 ; retn 0xFFFC ; (8 found)
0x42d556: xlatb ; sal bh, 1 ; retn 0xFFFE ; (8 found)
0x463335: xor  [rax], eax ; add byte [rax], al ; syscall ; (1 found)
0x4291c1: xor  [rax], ecx ; add  [rax+0x39], ecx ; ret ; (1 found)
0x4b160b: xor  [rbp-0x0B], eax ; call qword [rax-0x05E1F00D] ; (1 found)
0x401557: xor  [rcx], eax ; add byte [rbx-0x7CB7FD12], al ; retn 0x4810 ; (1 found)
0x47507e: xor  [rcx], edi ; retn 0x820F ; (1 found)
0x42d1ce: xor  [rdx], eax ; add byte [rax+0x0F], cl ; retn 0x66C3 ; (1 found)
0x4576fd: xor ah, byte [rdx-0x4D] ; and byte [r15], r15L ; retn 0xC500 ; (1 found)
0x493f7f: xor al, 0x00 ; add byte [rax+0x0F], cl ; retn 0x66C3 ; (1 found)
0x45113f: xor al, 0x17 ; ret ; (2 found)
0x4879f3: xor al, 0x29 ; retn 0x8341 ; (1 found)
0x4161f6: xor al, 0x4F ; add byte [rax-0x77], cl ; retn 0x2949 ; (2 found)
0x41f47c: xor al, 0x4F ; add byte [rax-0x77], cl ; retn 0x294C ; (1 found)
0x48f2d8: xor al, 0xB7 ; add rsi, rdi ; jmp rsi ; (1 found)
0x463365: xor al, byte [rax] ; add byte [rax], al ; syscall ; (1 found)
0x4bf587: xor al, ch ; ret ; (1 found)
0x413bf1: xor bh, bh ; add cl, ch ; jmp qword [rbx-0x76BB0001] ; (1 found)
0x43474b: xor byte [r14+0x0F], r12L ; xlatb ; ret ; (3 found)
0x48f997: xor byte [r9-0x75], cl ; add byte [rcx+0x39], cl ; ret ; (1 found)
0x448375: xor byte [rax+0x0F], cl ; retn 0x0FC3 ; (1 found)
0x44849f: xor byte [rax+0x0F], cl ; retn 0x66C3 ; (1 found)
0x4b8fda: xor byte [rax+0x21], cl ; retn 0x8949 ; (1 found)
0x45d321: xor byte [rax+0x39], cl ; retn 0x830F ; (1 found)
0x48dd11: xor byte [rax+0x39], cl ; retn 0x850F ; (1 found)
0x449cff: xor byte [rax-0x77], cl ; add cl, byte [rax-0x7D] ; retn 0x4808 ; (2 found)
0x47d478: xor byte [rax-0x77], cl ; mov byte [rcx+0x0F], 0x95 ; ret ; (1 found)
0x4ae6e7: xor byte [rax-0x77], cl ; or byte [rax+0x00000002], r15L ; ret ; (1 found)
0x4744eb: xor byte [rax-0x77], cl ; ret ; (1 found)
0x414f3c: xor byte [rax-0x7D], cl ; ret ; (1 found)
0x4046f6: xor byte [rax], al ; add byte [rax+0x0000009E], bh ; syscall ; (3 found)
0x4230e9: xor byte [rbp+0x14], 0x5D ; ret ; (1 found)
0x49f950: xor byte [rbp+0x1D], dh ; ret ; (1 found)
0x455c90: xor byte [rbp+0x1E], dh ; ret ; (1 found)
0x4b9098: xor byte [rbx+0x5D], bl ; pop r12 ; ret ; (3 found)
0x4895bb: xor byte [rbx-0x7CB7FB8E], cl ; retn 0x4804 ; (1 found)
0x490f3c: xor byte [rcx+0x5D5B7453], cl ; pop r12 ; ret ; (2 found)
0x41ceeb: xor byte [rcx+rcx*4-0x01], cl ; call qword [r14+0x00000090] ; (1 found)
0x48f998: xor byte [rcx-0x75], cl ; add byte [rcx+0x39], cl ; ret ; (1 found)
0x41779f: xor byte [rcx-0x77], cl ; ret ; (1 found)
0x4b8355: xor byte [rcx-0x77], cl ; retn 0x8941 ; (1 found)
0x450579: xor byte [rdi+rcx+0x11], al ; cmp r14L, al ; ret ; (1 found)
0x491ed3: xor byte [rdx+0x09], 0x00 ; add byte [rax], al ; ret ; (1 found)
0x448d2c: xor byte [rsi+0x0F], ah ; outsd ; ret ; (1 found)
0x43474c: xor byte [rsi+0x0F], ah ; xlatb ; ret ; (3 found)
0x4b2afc: xor ch, dh ; call qword [rax-0x76B6AABF] ; (1 found)
0x48dc62: xor cl, byte [rax-0x77] ; ror  [rax-0x7D], cl ; retn 0x4104 ; (1 found)
0x4a3986: xor cl, byte [rax-0x7D] ; retn 0x4838 ; (1 found)
0x424a4b: xor dh, 0x80 ; syscall ; (1 found)
0x425185: xor dh, 0x81 ; mov eax, 0x000000CA ; syscall ; (5 found)
0x425051: xor dh, 0x81 ; syscall ; (4 found)
0x4be7b4: xor dh, ah ; jmp qword [rsi+0x0F] ; (1 found)
0x4b2891: xor dh, ch ; jmp qword [rsi+0x66] ; (1 found)
0x413bf0: xor dil, r15L ; add cl, ch ; jmp qword [rbx-0x76BB0001] ; (1 found)
0x49d76c: xor eax,  [rbx-0x70F0BF3E] ; mov edx, 0x83000000 ; retn 0x7E20 ; (1 found)
0x42cfee: xor eax,  [rdx] ; add byte [rax+0x0F], cl ; retn 0x66C3 ; (1 found)
0x48d9b4: xor eax, 0x000610E7 ; jmp qword [rsi+rdx*8] ; (1 found)
0x48da4d: xor eax, 0x0006114E ; jmp qword [rsi+rdx*8] ; (1 found)
0x48ac81: xor eax, 0x00063A1A ; movzx eax, byte [rdi+rax] ; jmp qword [rsi+rax*8] ; (1 found)
0x424dde: xor eax, 0x0009E4BD ; syscall ; (1 found)
0x424c6b: xor eax, 0x0009E630 ; mov eax, 0x0000000E ; syscall ; (1 found)
0x42cdde: xor eax, 0x0F480002 ; retn 0x66C3 ; (1 found)
0x4bab55: xor eax, 0x89480000 ; ret ; (1 found)
0x482f47: xor eax, 0x8DFFFFC7 ; iretq ; (1 found)
0x42b0db: xor eax, 0xF6000CD3 ; retn 0x7402 ; (1 found)
0x46d002: xor eax, 0xF7000004 ; retn 0x0000 ; (1 found)
0x429998: xor eax, eax ; add rsp, 0x08 ; ret ; (7 found)
0x46780b: xor eax, eax ; call rbx ; (1 found)
0x462df6: xor eax, eax ; mov eax, 0x00000019 ; syscall ; (1 found)
0x4a18c5: xor eax, eax ; mov eax, r8d ; ret ; (1 found)
0x493d9a: xor eax, eax ; mov qword [r8], rsi ; ret ; (1 found)
0x458756: xor eax, eax ; mov rcx, r12 ; call rbx ; (1 found)
0x4588e5: xor eax, eax ; mov rdi, rbp ; call rbx ; (1 found)
0x402f87: xor eax, eax ; pop rbx ; ret ; (3 found)
0x40399e: xor eax, eax ; ret ; (105 found)
0x42e9fe: xor eax, eax ; sub eax, ecx ; ret ; (1 found)
0x460628: xor eax, eax ; syscall ; (3 found)
0x434460: xor eax, eax ; vzeroupper ; ret ; (9 found)
0x48d936: xor ebp, ebp ; mov rdx, qword [r8+rdx*8] ; jmp rdx ; (1 found)
0x4905c2: xor ebp, edi ; jmp qword [rsi+0x2E] ; (1 found)
0x41ab55: xor ecx,  [0x0000000004CCF35B] ; clc ; ret ; (1 found)
0x41ebb6: xor ecx,  [rax-0x7D] ; ret ; (2 found)
0x4a16d3: xor edi, eax ; jmp qword [rsi+0x2E] ; (1 found)
0x4032e0: xor edi, edi ; mov eax, edx ; syscall ; (1 found)
0x461320: xor edi, edi ; syscall ; (1 found)
0x4921de: xor edx, edx ; mov eax, 0x000000CA ; syscall ; (1 found)
0x4623d0: xor edx, edx ; mov esi, 0x00000001 ; call r12 ; (1 found)
0x41cfd0: xor edx, edx ; mov rdi, r15 ; call qword [r14+0x00000080] ; (1 found)
0x41d58c: xor edx, edx ; mov rdi, r15 ; call qword [rbx+0x00000080] ; (1 found)
0x41f602: xor edx, edx ; mov rdi, rbp ; call qword [rax+0x00000080] ; (1 found)
0x41f8ec: xor edx, edx ; mov rdi, rbp ; call qword [rbx+0x00000080] ; (1 found)
0x48ceab: xor edx, edx ; mov rdx, qword [r8+rdx*8] ; jmp rdx ; (1 found)
0x422d37: xor edx, edx ; pop rbx ; jmp rax ; (1 found)
0x46787d: xor edx, edx ; push rax ; call rbx ; (1 found)
0x492042: xor esi, eax ; xor r8d, r8d ; syscall ; (1 found)
0x4615c7: xor esi, esi ; call r12 ; (4 found)
0x41ba5a: xor esi, esi ; mov rdi, rbp ; call qword [rbx+0x10] ; (1 found)
0x423618: xor esi, esi ; mov rdi, rbx ; call qword [rcx+0x58] ; (1 found)
0x492041: xor esi, r8d ; xor r8d, r8d ; syscall ; (1 found)
0x4be0c3: xor esp, esi ; jmp qword [rsi+0x2E] ; (1 found)
0x4291c0: xor qword [rax], r9 ; add  [rax+0x39], ecx ; ret ; (1 found)
0x48ceaa: xor r10d, r10d ; mov rdx, qword [r8+rdx*8] ; jmp rdx ; (1 found)
0x4905c1: xor r13, rdi ; jmp qword [rsi+0x2E] ; (1 found)
0x4b2afb: xor r13L, sil ; call qword [rax-0x76B6AABF] ; (1 found)
0x42cfed: xor r8, qword [r10] ; add byte [rax+0x0F], cl ; retn 0x66C3 ; (1 found)
0x46780a: xor r8d, r8d ; call rbx ; (1 found)
0x462df5: xor r8d, r8d ; mov eax, 0x00000019 ; syscall ; (1 found)
0x4a18c4: xor r8d, r8d ; mov eax, r8d ; ret ; (1 found)
0x458755: xor r8d, r8d ; mov rcx, r12 ; call rbx ; (1 found)
0x4588e4: xor r8d, r8d ; mov rdi, rbp ; call rbx ; (1 found)
0x492044: xor r8d, r8d ; syscall ; (1 found)
0x449269: xor rax, rax ; ret ; (5 found)
0x424a4a: xor sil, 0x80 ; syscall ; (1 found)
0x425184: xor sil, 0x81 ; mov eax, 0x000000CA ; syscall ; (5 found)
0x425050: xor sil, 0x81 ; syscall ; (4 found)
